
CRYP_SAES_ECB_CBC.elf:     file format elf32-littlearm

Sections:
Idx Name          Size      VMA       LMA       File off  Algn
  0 .isr_vector   00000238  08000000  08000000  00010000  2**0
                  CONTENTS, ALLOC, LOAD, READONLY, DATA
  1 .text         00004d04  08000238  08000238  00010238  2**2
                  CONTENTS, ALLOC, LOAD, READONLY, CODE
  2 .rodata       00000108  08004f3c  08004f3c  00014f3c  2**2
                  CONTENTS, ALLOC, LOAD, READONLY, DATA
  3 .init_array   00000004  08005044  08005044  00015044  2**2
                  CONTENTS, ALLOC, LOAD, DATA
  4 .fini_array   00000004  08005048  08005048  00015048  2**2
                  CONTENTS, ALLOC, LOAD, DATA
  5 .data         00000111  20000000  0800504c  00020000  2**2
                  CONTENTS, ALLOC, LOAD, DATA
  6 .bss          00000154  20000114  0800515d  00020114  2**2
                  ALLOC
  7 ._user_heap_stack 00000600  20000268  0800515d  00020268  2**0
                  ALLOC
  8 .ARM.attributes 00000036  00000000  00000000  00020111  2**0
                  CONTENTS, READONLY
  9 .comment      00000043  00000000  00000000  00020147  2**0
                  CONTENTS, READONLY
 10 .debug_line   0000fab9  00000000  00000000  0002018a  2**0
                  CONTENTS, READONLY, DEBUGGING, OCTETS
 11 .debug_line_str 000000ae  00000000  00000000  0002fc43  2**0
                  CONTENTS, READONLY, DEBUGGING, OCTETS
 12 .debug_info   0000c561  00000000  00000000  0002fcf1  2**0
                  CONTENTS, READONLY, DEBUGGING, OCTETS
 13 .debug_abbrev 00001ea9  00000000  00000000  0003c252  2**0
                  CONTENTS, READONLY, DEBUGGING, OCTETS
 14 .debug_aranges 00000b70  00000000  00000000  0003e100  2**3
                  CONTENTS, READONLY, DEBUGGING, OCTETS
 15 .debug_str    00136b58  00000000  00000000  0003ec70  2**0
                  CONTENTS, READONLY, DEBUGGING, OCTETS
 16 .debug_rnglists 000008a0  00000000  00000000  001757c8  2**0
                  CONTENTS, READONLY, DEBUGGING, OCTETS
 17 .debug_macro  0003202a  00000000  00000000  00176068  2**0
                  CONTENTS, READONLY, DEBUGGING, OCTETS
 18 .debug_frame  00002dec  00000000  00000000  001a8094  2**2
                  CONTENTS, READONLY, DEBUGGING, OCTETS

Disassembly of section .text:

08000238 <__do_global_dtors_aux>:
 8000238:	b510      	push	{r4, lr}
 800023a:	4c05      	ldr	r4, [pc, #20]	; (8000250 <__do_global_dtors_aux+0x18>)
 800023c:	7823      	ldrb	r3, [r4, #0]
 800023e:	b933      	cbnz	r3, 800024e <__do_global_dtors_aux+0x16>
 8000240:	4b04      	ldr	r3, [pc, #16]	; (8000254 <__do_global_dtors_aux+0x1c>)
 8000242:	b113      	cbz	r3, 800024a <__do_global_dtors_aux+0x12>
 8000244:	4804      	ldr	r0, [pc, #16]	; (8000258 <__do_global_dtors_aux+0x20>)
 8000246:	f3af 8000 	nop.w
 800024a:	2301      	movs	r3, #1
 800024c:	7023      	strb	r3, [r4, #0]
 800024e:	bd10      	pop	{r4, pc}
 8000250:	20000114 	.word	0x20000114
 8000254:	00000000 	.word	0x00000000
 8000258:	08004f24 	.word	0x08004f24

0800025c <frame_dummy>:
 800025c:	b508      	push	{r3, lr}
 800025e:	4b03      	ldr	r3, [pc, #12]	; (800026c <frame_dummy+0x10>)
 8000260:	b11b      	cbz	r3, 800026a <frame_dummy+0xe>
 8000262:	4903      	ldr	r1, [pc, #12]	; (8000270 <frame_dummy+0x14>)
 8000264:	4803      	ldr	r0, [pc, #12]	; (8000274 <frame_dummy+0x18>)
 8000266:	f3af 8000 	nop.w
 800026a:	bd08      	pop	{r3, pc}
 800026c:	00000000 	.word	0x00000000
 8000270:	20000118 	.word	0x20000118
 8000274:	08004f24 	.word	0x08004f24

08000278 <Reset_Handler>:

    .section	.text.Reset_Handler
	.weak	Reset_Handler
	.type	Reset_Handler, %function
Reset_Handler:
  ldr   sp, =_estack    /* set stack pointer */
 8000278:	f8df d034 	ldr.w	sp, [pc, #52]	; 80002b0 <LoopForever+0x2>
/* Call the clock system initialization function.*/
  bl  SystemInit
 800027c:	f000 faf4 	bl	8000868 <SystemInit>

/* Copy the data segment initializers from flash to SRAM */
  movs	r1, #0
 8000280:	2100      	movs	r1, #0
  b	LoopCopyDataInit
 8000282:	e003      	b.n	800028c <LoopCopyDataInit>

08000284 <CopyDataInit>:

CopyDataInit:
	ldr	r3, =_sidata
 8000284:	4b0b      	ldr	r3, [pc, #44]	; (80002b4 <LoopForever+0x6>)
	ldr	r3, [r3, r1]
 8000286:	585b      	ldr	r3, [r3, r1]
	str	r3, [r0, r1]
 8000288:	5043      	str	r3, [r0, r1]
	adds	r1, r1, #4
 800028a:	3104      	adds	r1, #4

0800028c <LoopCopyDataInit>:

LoopCopyDataInit:
	ldr	r0, =_sdata
 800028c:	480a      	ldr	r0, [pc, #40]	; (80002b8 <LoopForever+0xa>)
	ldr	r3, =_edata
 800028e:	4b0b      	ldr	r3, [pc, #44]	; (80002bc <LoopForever+0xe>)
	adds	r2, r0, r1
 8000290:	1842      	adds	r2, r0, r1
	cmp	r2, r3
 8000292:	429a      	cmp	r2, r3
	bcc	CopyDataInit
 8000294:	d3f6      	bcc.n	8000284 <CopyDataInit>
	ldr	r2, =_sbss
 8000296:	4a0a      	ldr	r2, [pc, #40]	; (80002c0 <LoopForever+0x12>)
	b	LoopFillZerobss
 8000298:	e002      	b.n	80002a0 <LoopFillZerobss>

0800029a <FillZerobss>:
/* Zero fill the bss segment. */
FillZerobss:
	movs	r3, #0
 800029a:	2300      	movs	r3, #0
	str	r3, [r2], #4
 800029c:	f842 3b04 	str.w	r3, [r2], #4

080002a0 <LoopFillZerobss>:

LoopFillZerobss:
	ldr	r3, = _ebss
 80002a0:	4b08      	ldr	r3, [pc, #32]	; (80002c4 <LoopForever+0x16>)
	cmp	r2, r3
 80002a2:	429a      	cmp	r2, r3
	bcc	FillZerobss
 80002a4:	d3f9      	bcc.n	800029a <FillZerobss>

/* Call static constructors */
    bl __libc_init_array
 80002a6:	f004 fe19 	bl	8004edc <__libc_init_array>
/* Call the application's entry point.*/
	bl	main
 80002aa:	f000 f80f 	bl	80002cc <main>

080002ae <LoopForever>:

LoopForever:
    b LoopForever
 80002ae:	e7fe      	b.n	80002ae <LoopForever>
  ldr   sp, =_estack    /* set stack pointer */
 80002b0:	200c0000 	.word	0x200c0000
	ldr	r3, =_sidata
 80002b4:	0800504c 	.word	0x0800504c
	ldr	r0, =_sdata
 80002b8:	20000000 	.word	0x20000000
	ldr	r3, =_edata
 80002bc:	20000111 	.word	0x20000111
	ldr	r2, =_sbss
 80002c0:	20000114 	.word	0x20000114
	ldr	r3, = _ebss
 80002c4:	20000268 	.word	0x20000268

080002c8 <ADC1_IRQHandler>:
 * @retval : None
*/
    .section	.text.Default_Handler,"ax",%progbits
Default_Handler:
Infinite_Loop:
	b	Infinite_Loop
 80002c8:	e7fe      	b.n	80002c8 <ADC1_IRQHandler>
	...

080002cc <main>:
/**
  * @brief  The application entry point.
  * @retval int
  */
int main(void)
{
 80002cc:	b580      	push	{r7, lr}
 80002ce:	b082      	sub	sp, #8
 80002d0:	af02      	add	r7, sp, #8
  /* USER CODE END 1 */

  /* MCU Configuration--------------------------------------------------------*/

  /* Reset of all peripherals, Initializes the Flash interface and the Systick. */
  HAL_Init();
 80002d2:	f000 fb01 	bl	80008d8 <HAL_Init>
  /* USER CODE BEGIN Init */

  /* USER CODE END Init */

  /* Configure the system clock */
  SystemClock_Config();
 80002d6:	f000 f89f 	bl	8000418 <SystemClock_Config>

  /* Configure the System Power */
  SystemPower_Config();
 80002da:	f000 f8ff 	bl	80004dc <SystemPower_Config>

  /* USER CODE BEGIN SysInit */

  /* Configure LED7 and LED6 */
  BSP_LED_Init(LED7); /* Green LED */
 80002de:	2001      	movs	r0, #1
 80002e0:	f000 fa34 	bl	800074c <BSP_LED_Init>
  BSP_LED_Init(LED6); /* Red LED */
 80002e4:	2000      	movs	r0, #0
 80002e6:	f000 fa31 	bl	800074c <BSP_LED_Init>

  /* USER CODE END SysInit */

  /* Initialize all configured peripherals */
  MX_ICACHE_Init();
 80002ea:	f000 f905 	bl	80004f8 <MX_ICACHE_Init>
  MX_RNG_Init();
 80002ee:	f000 f917 	bl	8000520 <MX_RNG_Init>
  MX_SAES_AES_Init();
 80002f2:	f000 f92b 	bl	800054c <MX_SAES_AES_Init>
  /* USER CODE BEGIN 2 */
  /* Waiting RNG activation */
  HAL_Delay(10);
 80002f6:	200a      	movs	r0, #10
 80002f8:	f000 fb72 	bl	80009e0 <HAL_Delay>
  /*##-2- Secure AES ECB Encryption/Decryption #################################################*/
  if (HAL_CRYP_Encrypt(&hcryp, Plaintext, PLAINTEXT_SIZE, EncryptedText, TIMEOUT_VALUE) != HAL_OK)
 80002fc:	f640 73ff 	movw	r3, #4095	; 0xfff
 8000300:	9300      	str	r3, [sp, #0]
 8000302:	4b3c      	ldr	r3, [pc, #240]	; (80003f4 <main+0x128>)
 8000304:	2210      	movs	r2, #16
 8000306:	493c      	ldr	r1, [pc, #240]	; (80003f8 <main+0x12c>)
 8000308:	483c      	ldr	r0, [pc, #240]	; (80003fc <main+0x130>)
 800030a:	f000 fe7f 	bl	800100c <HAL_CRYP_Encrypt>
 800030e:	4603      	mov	r3, r0
 8000310:	2b00      	cmp	r3, #0
 8000312:	d001      	beq.n	8000318 <main+0x4c>
  {
    /* Processing Error */
    Error_Handler();
 8000314:	f000 f948 	bl	80005a8 <Error_Handler>
  }
  /*Compare results with expected buffer*/
  if(memcmp(EncryptedText, CiphertextAESECB128, PLAINTEXT_SIZE) != 0)
 8000318:	2210      	movs	r2, #16
 800031a:	4939      	ldr	r1, [pc, #228]	; (8000400 <main+0x134>)
 800031c:	4835      	ldr	r0, [pc, #212]	; (80003f4 <main+0x128>)
 800031e:	f004 fdc4 	bl	8004eaa <memcmp>
 8000322:	4603      	mov	r3, r0
 8000324:	2b00      	cmp	r3, #0
 8000326:	d001      	beq.n	800032c <main+0x60>
  {
    /* Processing Error */
    Error_Handler();
 8000328:	f000 f93e 	bl	80005a8 <Error_Handler>
  }

  if (HAL_CRYP_Decrypt(&hcryp,CiphertextAESECB128 , PLAINTEXT_SIZE, DecryptedText, TIMEOUT_VALUE) != HAL_OK)
 800032c:	f640 73ff 	movw	r3, #4095	; 0xfff
 8000330:	9300      	str	r3, [sp, #0]
 8000332:	4b34      	ldr	r3, [pc, #208]	; (8000404 <main+0x138>)
 8000334:	2210      	movs	r2, #16
 8000336:	4932      	ldr	r1, [pc, #200]	; (8000400 <main+0x134>)
 8000338:	4830      	ldr	r0, [pc, #192]	; (80003fc <main+0x130>)
 800033a:	f000 ff15 	bl	8001168 <HAL_CRYP_Decrypt>
 800033e:	4603      	mov	r3, r0
 8000340:	2b00      	cmp	r3, #0
 8000342:	d001      	beq.n	8000348 <main+0x7c>
  {
    /* Processing Error */
    Error_Handler();
 8000344:	f000 f930 	bl	80005a8 <Error_Handler>
  }
  /*Compare results with expected buffer*/
  if(memcmp(DecryptedText, Plaintext, PLAINTEXT_SIZE) != 0)
 8000348:	2210      	movs	r2, #16
 800034a:	492b      	ldr	r1, [pc, #172]	; (80003f8 <main+0x12c>)
 800034c:	482d      	ldr	r0, [pc, #180]	; (8000404 <main+0x138>)
 800034e:	f004 fdac 	bl	8004eaa <memcmp>
 8000352:	4603      	mov	r3, r0
 8000354:	2b00      	cmp	r3, #0
 8000356:	d001      	beq.n	800035c <main+0x90>
  {
    /* Processing Error */
    Error_Handler();
 8000358:	f000 f926 	bl	80005a8 <Error_Handler>
  }
  /*##-3- Change Secure AES configuration #################################################*/

  /* Get the Secure AES parameters */
  HAL_CRYP_GetConfig(&hcryp, &Conf);
 800035c:	492a      	ldr	r1, [pc, #168]	; (8000408 <main+0x13c>)
 800035e:	4827      	ldr	r0, [pc, #156]	; (80003fc <main+0x130>)
 8000360:	f000 fde2 	bl	8000f28 <HAL_CRYP_GetConfig>

  /* Change CRYP parameters */
  Conf.KeySize   = CRYP_KEYSIZE_256B;
 8000364:	4b28      	ldr	r3, [pc, #160]	; (8000408 <main+0x13c>)
 8000366:	f44f 2280 	mov.w	r2, #262144	; 0x40000
 800036a:	605a      	str	r2, [r3, #4]
  Conf.pKey    = AESKey256;
 800036c:	4b26      	ldr	r3, [pc, #152]	; (8000408 <main+0x13c>)
 800036e:	4a27      	ldr	r2, [pc, #156]	; (800040c <main+0x140>)
 8000370:	609a      	str	r2, [r3, #8]
  Conf.Algorithm = CRYP_AES_CBC;
 8000372:	4b25      	ldr	r3, [pc, #148]	; (8000408 <main+0x13c>)
 8000374:	2220      	movs	r2, #32
 8000376:	611a      	str	r2, [r3, #16]
  Conf.pInitVect = AESIV;
 8000378:	4b23      	ldr	r3, [pc, #140]	; (8000408 <main+0x13c>)
 800037a:	4a25      	ldr	r2, [pc, #148]	; (8000410 <main+0x144>)
 800037c:	60da      	str	r2, [r3, #12]

  /* Set the CRYP Configuration */
  HAL_CRYP_SetConfig(&hcryp, &Conf);
 800037e:	4922      	ldr	r1, [pc, #136]	; (8000408 <main+0x13c>)
 8000380:	481e      	ldr	r0, [pc, #120]	; (80003fc <main+0x130>)
 8000382:	f000 fcf1 	bl	8000d68 <HAL_CRYP_SetConfig>

  /*##-4- Secure AES CBC Encryption/Decryption #################################################*/
  if (HAL_CRYP_Encrypt(&hcryp, Plaintext, PLAINTEXT_SIZE, EncryptedText, TIMEOUT_VALUE) != HAL_OK)
 8000386:	f640 73ff 	movw	r3, #4095	; 0xfff
 800038a:	9300      	str	r3, [sp, #0]
 800038c:	4b19      	ldr	r3, [pc, #100]	; (80003f4 <main+0x128>)
 800038e:	2210      	movs	r2, #16
 8000390:	4919      	ldr	r1, [pc, #100]	; (80003f8 <main+0x12c>)
 8000392:	481a      	ldr	r0, [pc, #104]	; (80003fc <main+0x130>)
 8000394:	f000 fe3a 	bl	800100c <HAL_CRYP_Encrypt>
 8000398:	4603      	mov	r3, r0
 800039a:	2b00      	cmp	r3, #0
 800039c:	d001      	beq.n	80003a2 <main+0xd6>
  {
    /* Processing Error */
    Error_Handler();
 800039e:	f000 f903 	bl	80005a8 <Error_Handler>
  }
  /*Compare results with expected buffer*/
  if(memcmp(EncryptedText, CiphertextAESCBC256, PLAINTEXT_SIZE) != 0)
 80003a2:	2210      	movs	r2, #16
 80003a4:	491b      	ldr	r1, [pc, #108]	; (8000414 <main+0x148>)
 80003a6:	4813      	ldr	r0, [pc, #76]	; (80003f4 <main+0x128>)
 80003a8:	f004 fd7f 	bl	8004eaa <memcmp>
 80003ac:	4603      	mov	r3, r0
 80003ae:	2b00      	cmp	r3, #0
 80003b0:	d001      	beq.n	80003b6 <main+0xea>
  {
    /* Processing Error */
    Error_Handler();
 80003b2:	f000 f8f9 	bl	80005a8 <Error_Handler>
  }

  if (HAL_CRYP_Decrypt(&hcryp,CiphertextAESCBC256 , PLAINTEXT_SIZE, DecryptedText, TIMEOUT_VALUE) != HAL_OK)
 80003b6:	f640 73ff 	movw	r3, #4095	; 0xfff
 80003ba:	9300      	str	r3, [sp, #0]
 80003bc:	4b11      	ldr	r3, [pc, #68]	; (8000404 <main+0x138>)
 80003be:	2210      	movs	r2, #16
 80003c0:	4914      	ldr	r1, [pc, #80]	; (8000414 <main+0x148>)
 80003c2:	480e      	ldr	r0, [pc, #56]	; (80003fc <main+0x130>)
 80003c4:	f000 fed0 	bl	8001168 <HAL_CRYP_Decrypt>
 80003c8:	4603      	mov	r3, r0
 80003ca:	2b00      	cmp	r3, #0
 80003cc:	d001      	beq.n	80003d2 <main+0x106>
  {
    /* Processing Error */
    Error_Handler();
 80003ce:	f000 f8eb 	bl	80005a8 <Error_Handler>
  }
  /*Compare results with expected buffer*/
  if(memcmp(DecryptedText, Plaintext, PLAINTEXT_SIZE) != 0)
 80003d2:	2210      	movs	r2, #16
 80003d4:	4908      	ldr	r1, [pc, #32]	; (80003f8 <main+0x12c>)
 80003d6:	480b      	ldr	r0, [pc, #44]	; (8000404 <main+0x138>)
 80003d8:	f004 fd67 	bl	8004eaa <memcmp>
 80003dc:	4603      	mov	r3, r0
 80003de:	2b00      	cmp	r3, #0
 80003e0:	d001      	beq.n	80003e6 <main+0x11a>
  {
    /* Processing Error */
    Error_Handler();
 80003e2:	f000 f8e1 	bl	80005a8 <Error_Handler>
  while (1)
  {
    /* USER CODE END WHILE */

    /* USER CODE BEGIN 3 */
    HAL_Delay(250);
 80003e6:	20fa      	movs	r0, #250	; 0xfa
 80003e8:	f000 fafa 	bl	80009e0 <HAL_Delay>
    BSP_LED_Toggle(LED7);
 80003ec:	2001      	movs	r0, #1
 80003ee:	f000 fa1d 	bl	800082c <BSP_LED_Toggle>
    HAL_Delay(250);
 80003f2:	e7f8      	b.n	80003e6 <main+0x11a>
 80003f4:	200001e4 	.word	0x200001e4
 80003f8:	20000040 	.word	0x20000040
 80003fc:	20000144 	.word	0x20000144
 8000400:	20000080 	.word	0x20000080
 8000404:	20000224 	.word	0x20000224
 8000408:	200001ac 	.word	0x200001ac
 800040c:	20000020 	.word	0x20000020
 8000410:	20000010 	.word	0x20000010
 8000414:	200000c0 	.word	0x200000c0

08000418 <SystemClock_Config>:
/**
  * @brief System Clock Configuration
  * @retval None
  */
void SystemClock_Config(void)
{
 8000418:	b580      	push	{r7, lr}
 800041a:	b09e      	sub	sp, #120	; 0x78
 800041c:	af00      	add	r7, sp, #0
  RCC_OscInitTypeDef RCC_OscInitStruct = {0};
 800041e:	f107 0318 	add.w	r3, r7, #24
 8000422:	2260      	movs	r2, #96	; 0x60
 8000424:	2100      	movs	r1, #0
 8000426:	4618      	mov	r0, r3
 8000428:	f004 fd4f 	bl	8004eca <memset>
  RCC_ClkInitTypeDef RCC_ClkInitStruct = {0};
 800042c:	463b      	mov	r3, r7
 800042e:	2200      	movs	r2, #0
 8000430:	601a      	str	r2, [r3, #0]
 8000432:	605a      	str	r2, [r3, #4]
 8000434:	609a      	str	r2, [r3, #8]
 8000436:	60da      	str	r2, [r3, #12]
 8000438:	611a      	str	r2, [r3, #16]
 800043a:	615a      	str	r2, [r3, #20]

  /** Configure the main internal regulator output voltage
  */
  if (HAL_PWREx_ControlVoltageScaling(PWR_REGULATOR_VOLTAGE_SCALE1) != HAL_OK)
 800043c:	f44f 3040 	mov.w	r0, #196608	; 0x30000
 8000440:	f002 fa4e 	bl	80028e0 <HAL_PWREx_ControlVoltageScaling>
 8000444:	4603      	mov	r3, r0
 8000446:	2b00      	cmp	r3, #0
 8000448:	d001      	beq.n	800044e <SystemClock_Config+0x36>
  {
    Error_Handler();
 800044a:	f000 f8ad 	bl	80005a8 <Error_Handler>
  }

  /** Initializes the CPU, AHB and APB buses clocks
  */
  RCC_OscInitStruct.OscillatorType = RCC_OSCILLATORTYPE_HSI48|RCC_OSCILLATORTYPE_MSI
 800044e:	23b0      	movs	r3, #176	; 0xb0
 8000450:	61bb      	str	r3, [r7, #24]
                              |RCC_OSCILLATORTYPE_SHSI;
  RCC_OscInitStruct.HSI48State = RCC_HSI48_ON;
 8000452:	f44f 5380 	mov.w	r3, #4096	; 0x1000
 8000456:	647b      	str	r3, [r7, #68]	; 0x44
  RCC_OscInitStruct.MSIState = RCC_MSI_ON;
 8000458:	2301      	movs	r3, #1
 800045a:	637b      	str	r3, [r7, #52]	; 0x34
  RCC_OscInitStruct.MSICalibrationValue = RCC_MSICALIBRATION_DEFAULT;
 800045c:	2310      	movs	r3, #16
 800045e:	63bb      	str	r3, [r7, #56]	; 0x38
  RCC_OscInitStruct.MSIClockRange = RCC_MSIRANGE_4;
 8000460:	f04f 4380 	mov.w	r3, #1073741824	; 0x40000000
 8000464:	63fb      	str	r3, [r7, #60]	; 0x3c
  RCC_OscInitStruct.SHSIState = RCC_SHSI_ON;
 8000466:	f44f 4380 	mov.w	r3, #16384	; 0x4000
 800046a:	64bb      	str	r3, [r7, #72]	; 0x48
  RCC_OscInitStruct.PLL.PLLState = RCC_PLL_ON;
 800046c:	2302      	movs	r3, #2
 800046e:	653b      	str	r3, [r7, #80]	; 0x50
  RCC_OscInitStruct.PLL.PLLSource = RCC_PLLSOURCE_MSI;
 8000470:	2301      	movs	r3, #1
 8000472:	657b      	str	r3, [r7, #84]	; 0x54
  RCC_OscInitStruct.PLL.PLLMBOOST = RCC_PLLMBOOST_DIV1;
 8000474:	2300      	movs	r3, #0
 8000476:	65fb      	str	r3, [r7, #92]	; 0x5c
  RCC_OscInitStruct.PLL.PLLM = 1;
 8000478:	2301      	movs	r3, #1
 800047a:	65bb      	str	r3, [r7, #88]	; 0x58
  RCC_OscInitStruct.PLL.PLLN = 80;
 800047c:	2350      	movs	r3, #80	; 0x50
 800047e:	663b      	str	r3, [r7, #96]	; 0x60
  RCC_OscInitStruct.PLL.PLLP = 2;
 8000480:	2302      	movs	r3, #2
 8000482:	667b      	str	r3, [r7, #100]	; 0x64
  RCC_OscInitStruct.PLL.PLLQ = 2;
 8000484:	2302      	movs	r3, #2
 8000486:	66bb      	str	r3, [r7, #104]	; 0x68
  RCC_OscInitStruct.PLL.PLLR = 2;
 8000488:	2302      	movs	r3, #2
 800048a:	66fb      	str	r3, [r7, #108]	; 0x6c
  RCC_OscInitStruct.PLL.PLLRGE = RCC_PLLVCIRANGE_0;
 800048c:	2300      	movs	r3, #0
 800048e:	673b      	str	r3, [r7, #112]	; 0x70
  RCC_OscInitStruct.PLL.PLLFRACN = 0;
 8000490:	2300      	movs	r3, #0
 8000492:	677b      	str	r3, [r7, #116]	; 0x74
  if (HAL_RCC_OscConfig(&RCC_OscInitStruct) != HAL_OK)
 8000494:	f107 0318 	add.w	r3, r7, #24
 8000498:	4618      	mov	r0, r3
 800049a:	f002 fb0d 	bl	8002ab8 <HAL_RCC_OscConfig>
 800049e:	4603      	mov	r3, r0
 80004a0:	2b00      	cmp	r3, #0
 80004a2:	d001      	beq.n	80004a8 <SystemClock_Config+0x90>
  {
    Error_Handler();
 80004a4:	f000 f880 	bl	80005a8 <Error_Handler>
  }

  /** Initializes the CPU, AHB and APB buses clocks
  */
  RCC_ClkInitStruct.ClockType = RCC_CLOCKTYPE_HCLK|RCC_CLOCKTYPE_SYSCLK
 80004a8:	231f      	movs	r3, #31
 80004aa:	603b      	str	r3, [r7, #0]
                              |RCC_CLOCKTYPE_PCLK1|RCC_CLOCKTYPE_PCLK2
                              |RCC_CLOCKTYPE_PCLK3;
  RCC_ClkInitStruct.SYSCLKSource = RCC_SYSCLKSOURCE_PLLCLK;
 80004ac:	2303      	movs	r3, #3
 80004ae:	607b      	str	r3, [r7, #4]
  RCC_ClkInitStruct.AHBCLKDivider = RCC_SYSCLK_DIV1;
 80004b0:	2300      	movs	r3, #0
 80004b2:	60bb      	str	r3, [r7, #8]
  RCC_ClkInitStruct.APB1CLKDivider = RCC_HCLK_DIV1;
 80004b4:	2300      	movs	r3, #0
 80004b6:	60fb      	str	r3, [r7, #12]
  RCC_ClkInitStruct.APB2CLKDivider = RCC_HCLK_DIV1;
 80004b8:	2300      	movs	r3, #0
 80004ba:	613b      	str	r3, [r7, #16]
  RCC_ClkInitStruct.APB3CLKDivider = RCC_HCLK_DIV1;
 80004bc:	2300      	movs	r3, #0
 80004be:	617b      	str	r3, [r7, #20]

  if (HAL_RCC_ClockConfig(&RCC_ClkInitStruct, FLASH_LATENCY_4) != HAL_OK)
 80004c0:	463b      	mov	r3, r7
 80004c2:	2104      	movs	r1, #4
 80004c4:	4618      	mov	r0, r3
 80004c6:	f003 f9d3 	bl	8003870 <HAL_RCC_ClockConfig>
 80004ca:	4603      	mov	r3, r0
 80004cc:	2b00      	cmp	r3, #0
 80004ce:	d001      	beq.n	80004d4 <SystemClock_Config+0xbc>
  {
    Error_Handler();
 80004d0:	f000 f86a 	bl	80005a8 <Error_Handler>
  }
}
 80004d4:	bf00      	nop
 80004d6:	3778      	adds	r7, #120	; 0x78
 80004d8:	46bd      	mov	sp, r7
 80004da:	bd80      	pop	{r7, pc}

080004dc <SystemPower_Config>:
/**
  * @brief Power Configuration
  * @retval None
  */
static void SystemPower_Config(void)
{
 80004dc:	b580      	push	{r7, lr}
 80004de:	af00      	add	r7, sp, #0

  /*
   * Disable the internal Pull-Up in Dead Battery pins of UCPD peripheral
   */
  HAL_PWREx_DisableUCPDDeadBattery();
 80004e0:	f002 fada 	bl	8002a98 <HAL_PWREx_DisableUCPDDeadBattery>

  /*
   * Switch to SMPS regulator instead of LDO
   */
  if (HAL_PWREx_ConfigSupply(PWR_SMPS_SUPPLY) != HAL_OK)
 80004e4:	2002      	movs	r0, #2
 80004e6:	f002 fa87 	bl	80029f8 <HAL_PWREx_ConfigSupply>
 80004ea:	4603      	mov	r3, r0
 80004ec:	2b00      	cmp	r3, #0
 80004ee:	d001      	beq.n	80004f4 <SystemPower_Config+0x18>
  {
    Error_Handler();
 80004f0:	f000 f85a 	bl	80005a8 <Error_Handler>
  }
/* USER CODE BEGIN PWR */
/* USER CODE END PWR */
}
 80004f4:	bf00      	nop
 80004f6:	bd80      	pop	{r7, pc}

080004f8 <MX_ICACHE_Init>:
  * @brief ICACHE Initialization Function
  * @param None
  * @retval None
  */
static void MX_ICACHE_Init(void)
{
 80004f8:	b580      	push	{r7, lr}
 80004fa:	af00      	add	r7, sp, #0

  /* USER CODE END ICACHE_Init 1 */

  /** Enable instruction cache in 1-way (direct mapped cache)
  */
  if (HAL_ICACHE_ConfigAssociativityMode(ICACHE_1WAY) != HAL_OK)
 80004fc:	2000      	movs	r0, #0
 80004fe:	f002 f9bf 	bl	8002880 <HAL_ICACHE_ConfigAssociativityMode>
 8000502:	4603      	mov	r3, r0
 8000504:	2b00      	cmp	r3, #0
 8000506:	d001      	beq.n	800050c <MX_ICACHE_Init+0x14>
  {
    Error_Handler();
 8000508:	f000 f84e 	bl	80005a8 <Error_Handler>
  }
  if (HAL_ICACHE_Enable() != HAL_OK)
 800050c:	f002 f9d8 	bl	80028c0 <HAL_ICACHE_Enable>
 8000510:	4603      	mov	r3, r0
 8000512:	2b00      	cmp	r3, #0
 8000514:	d001      	beq.n	800051a <MX_ICACHE_Init+0x22>
  {
    Error_Handler();
 8000516:	f000 f847 	bl	80005a8 <Error_Handler>
  }
  /* USER CODE BEGIN ICACHE_Init 2 */

  /* USER CODE END ICACHE_Init 2 */

}
 800051a:	bf00      	nop
 800051c:	bd80      	pop	{r7, pc}
	...

08000520 <MX_RNG_Init>:
  * @brief RNG Initialization Function
  * @param None
  * @retval None
  */
static void MX_RNG_Init(void)
{
 8000520:	b580      	push	{r7, lr}
 8000522:	af00      	add	r7, sp, #0
  /* USER CODE END RNG_Init 0 */

  /* USER CODE BEGIN RNG_Init 1 */

  /* USER CODE END RNG_Init 1 */
  hrng.Instance = RNG;
 8000524:	4b07      	ldr	r3, [pc, #28]	; (8000544 <MX_RNG_Init+0x24>)
 8000526:	4a08      	ldr	r2, [pc, #32]	; (8000548 <MX_RNG_Init+0x28>)
 8000528:	601a      	str	r2, [r3, #0]
  hrng.Init.ClockErrorDetection = RNG_CED_ENABLE;
 800052a:	4b06      	ldr	r3, [pc, #24]	; (8000544 <MX_RNG_Init+0x24>)
 800052c:	2200      	movs	r2, #0
 800052e:	605a      	str	r2, [r3, #4]
  if (HAL_RNG_Init(&hrng) != HAL_OK)
 8000530:	4804      	ldr	r0, [pc, #16]	; (8000544 <MX_RNG_Init+0x24>)
 8000532:	f004 fc21 	bl	8004d78 <HAL_RNG_Init>
 8000536:	4603      	mov	r3, r0
 8000538:	2b00      	cmp	r3, #0
 800053a:	d001      	beq.n	8000540 <MX_RNG_Init+0x20>
  {
    Error_Handler();
 800053c:	f000 f834 	bl	80005a8 <Error_Handler>
  }
  /* USER CODE BEGIN RNG_Init 2 */

  /* USER CODE END RNG_Init 2 */

}
 8000540:	bf00      	nop
 8000542:	bd80      	pop	{r7, pc}
 8000544:	20000130 	.word	0x20000130
 8000548:	420c0800 	.word	0x420c0800

0800054c <MX_SAES_AES_Init>:
  * @brief SAES Initialization Function
  * @param None
  * @retval None
  */
static void MX_SAES_AES_Init(void)
{
 800054c:	b580      	push	{r7, lr}
 800054e:	af00      	add	r7, sp, #0
  /* USER CODE END SAES_Init 0 */

  /* USER CODE BEGIN SAES_Init 1 */

  /* USER CODE END SAES_Init 1 */
  hcryp.Instance = SAES;
 8000550:	4b12      	ldr	r3, [pc, #72]	; (800059c <MX_SAES_AES_Init+0x50>)
 8000552:	4a13      	ldr	r2, [pc, #76]	; (80005a0 <MX_SAES_AES_Init+0x54>)
 8000554:	601a      	str	r2, [r3, #0]
  hcryp.Init.DataType = CRYP_NO_SWAP;
 8000556:	4b11      	ldr	r3, [pc, #68]	; (800059c <MX_SAES_AES_Init+0x50>)
 8000558:	2200      	movs	r2, #0
 800055a:	605a      	str	r2, [r3, #4]
  hcryp.Init.KeySize = CRYP_KEYSIZE_128B;
 800055c:	4b0f      	ldr	r3, [pc, #60]	; (800059c <MX_SAES_AES_Init+0x50>)
 800055e:	2200      	movs	r2, #0
 8000560:	609a      	str	r2, [r3, #8]
  hcryp.Init.pKey = (uint32_t *)pKeySAES;
 8000562:	4b0e      	ldr	r3, [pc, #56]	; (800059c <MX_SAES_AES_Init+0x50>)
 8000564:	4a0f      	ldr	r2, [pc, #60]	; (80005a4 <MX_SAES_AES_Init+0x58>)
 8000566:	60da      	str	r2, [r3, #12]
  hcryp.Init.Algorithm = CRYP_AES_ECB;
 8000568:	4b0c      	ldr	r3, [pc, #48]	; (800059c <MX_SAES_AES_Init+0x50>)
 800056a:	2200      	movs	r2, #0
 800056c:	615a      	str	r2, [r3, #20]
  hcryp.Init.KeyIVConfigSkip = CRYP_KEYIVCONFIG_ALWAYS;
 800056e:	4b0b      	ldr	r3, [pc, #44]	; (800059c <MX_SAES_AES_Init+0x50>)
 8000570:	2200      	movs	r2, #0
 8000572:	62da      	str	r2, [r3, #44]	; 0x2c
  hcryp.Init.KeyMode = CRYP_KEYMODE_NORMAL;
 8000574:	4b09      	ldr	r3, [pc, #36]	; (800059c <MX_SAES_AES_Init+0x50>)
 8000576:	2200      	movs	r2, #0
 8000578:	631a      	str	r2, [r3, #48]	; 0x30
  hcryp.Init.KeySelect = CRYP_KEYSEL_NORMAL;
 800057a:	4b08      	ldr	r3, [pc, #32]	; (800059c <MX_SAES_AES_Init+0x50>)
 800057c:	2200      	movs	r2, #0
 800057e:	635a      	str	r2, [r3, #52]	; 0x34
  hcryp.Init.KeyProtection = CRYP_KEYPROT_DISABLE;
 8000580:	4b06      	ldr	r3, [pc, #24]	; (800059c <MX_SAES_AES_Init+0x50>)
 8000582:	2200      	movs	r2, #0
 8000584:	639a      	str	r2, [r3, #56]	; 0x38
  if (HAL_CRYP_Init(&hcryp) != HAL_OK)
 8000586:	4805      	ldr	r0, [pc, #20]	; (800059c <MX_SAES_AES_Init+0x50>)
 8000588:	f000 fb32 	bl	8000bf0 <HAL_CRYP_Init>
 800058c:	4603      	mov	r3, r0
 800058e:	2b00      	cmp	r3, #0
 8000590:	d001      	beq.n	8000596 <MX_SAES_AES_Init+0x4a>
  {
    Error_Handler();
 8000592:	f000 f809 	bl	80005a8 <Error_Handler>
  }
  /* USER CODE BEGIN SAES_Init 2 */

  /* USER CODE END SAES_Init 2 */

}
 8000596:	bf00      	nop
 8000598:	bd80      	pop	{r7, pc}
 800059a:	bf00      	nop
 800059c:	20000144 	.word	0x20000144
 80005a0:	420c0c00 	.word	0x420c0c00
 80005a4:	20000000 	.word	0x20000000

080005a8 <Error_Handler>:
/**
  * @brief  This function is executed in case of error occurrence.
  * @retval None
  */
void Error_Handler(void)
{
 80005a8:	b580      	push	{r7, lr}
 80005aa:	af00      	add	r7, sp, #0
  /* USER CODE BEGIN Error_Handler_Debug */
  /* User can add his own implementation to report the HAL error return state */
  /* Turn LED6 on */
  BSP_LED_On(LED6);
 80005ac:	2000      	movs	r0, #0
 80005ae:	f000 f91f 	bl	80007f0 <BSP_LED_On>
  while (1)
 80005b2:	e7fe      	b.n	80005b2 <Error_Handler+0xa>

080005b4 <HAL_MspInit>:
/* USER CODE END 0 */
/**
  * Initializes the Global MSP.
  */
void HAL_MspInit(void)
{
 80005b4:	b480      	push	{r7}
 80005b6:	b083      	sub	sp, #12
 80005b8:	af00      	add	r7, sp, #0
  /* USER CODE BEGIN MspInit 0 */
  /* Enable Secure AES clock */
  __HAL_RCC_RNG_CLK_ENABLE();
 80005ba:	4b12      	ldr	r3, [pc, #72]	; (8000604 <HAL_MspInit+0x50>)
 80005bc:	f8d3 308c 	ldr.w	r3, [r3, #140]	; 0x8c
 80005c0:	4a10      	ldr	r2, [pc, #64]	; (8000604 <HAL_MspInit+0x50>)
 80005c2:	f443 2380 	orr.w	r3, r3, #262144	; 0x40000
 80005c6:	f8c2 308c 	str.w	r3, [r2, #140]	; 0x8c
 80005ca:	4b0e      	ldr	r3, [pc, #56]	; (8000604 <HAL_MspInit+0x50>)
 80005cc:	f8d3 308c 	ldr.w	r3, [r3, #140]	; 0x8c
 80005d0:	f403 2380 	and.w	r3, r3, #262144	; 0x40000
 80005d4:	607b      	str	r3, [r7, #4]
 80005d6:	687b      	ldr	r3, [r7, #4]
  /* USER CODE END MspInit 0 */

  __HAL_RCC_PWR_CLK_ENABLE();
 80005d8:	4b0a      	ldr	r3, [pc, #40]	; (8000604 <HAL_MspInit+0x50>)
 80005da:	f8d3 3094 	ldr.w	r3, [r3, #148]	; 0x94
 80005de:	4a09      	ldr	r2, [pc, #36]	; (8000604 <HAL_MspInit+0x50>)
 80005e0:	f043 0304 	orr.w	r3, r3, #4
 80005e4:	f8c2 3094 	str.w	r3, [r2, #148]	; 0x94
 80005e8:	4b06      	ldr	r3, [pc, #24]	; (8000604 <HAL_MspInit+0x50>)
 80005ea:	f8d3 3094 	ldr.w	r3, [r3, #148]	; 0x94
 80005ee:	f003 0304 	and.w	r3, r3, #4
 80005f2:	603b      	str	r3, [r7, #0]
 80005f4:	683b      	ldr	r3, [r7, #0]
  /* System interrupt init*/

  /* USER CODE BEGIN MspInit 1 */

  /* USER CODE END MspInit 1 */
}
 80005f6:	bf00      	nop
 80005f8:	370c      	adds	r7, #12
 80005fa:	46bd      	mov	sp, r7
 80005fc:	f85d 7b04 	ldr.w	r7, [sp], #4
 8000600:	4770      	bx	lr
 8000602:	bf00      	nop
 8000604:	46020c00 	.word	0x46020c00

08000608 <HAL_RNG_MspInit>:
* This function configures the hardware resources used in this example
* @param hrng: RNG handle pointer
* @retval None
*/
void HAL_RNG_MspInit(RNG_HandleTypeDef* hrng)
{
 8000608:	b580      	push	{r7, lr}
 800060a:	b0b6      	sub	sp, #216	; 0xd8
 800060c:	af00      	add	r7, sp, #0
 800060e:	6078      	str	r0, [r7, #4]
  RCC_PeriphCLKInitTypeDef PeriphClkInit = {0};
 8000610:	f107 0310 	add.w	r3, r7, #16
 8000614:	22c8      	movs	r2, #200	; 0xc8
 8000616:	2100      	movs	r1, #0
 8000618:	4618      	mov	r0, r3
 800061a:	f004 fc56 	bl	8004eca <memset>
  if(hrng->Instance==RNG)
 800061e:	687b      	ldr	r3, [r7, #4]
 8000620:	681b      	ldr	r3, [r3, #0]
 8000622:	4a14      	ldr	r2, [pc, #80]	; (8000674 <HAL_RNG_MspInit+0x6c>)
 8000624:	4293      	cmp	r3, r2
 8000626:	d121      	bne.n	800066c <HAL_RNG_MspInit+0x64>

  /* USER CODE END RNG_MspInit 0 */

  /** Initializes the peripherals clock
  */
    PeriphClkInit.PeriphClockSelection = RCC_PERIPHCLK_RNG;
 8000628:	f44f 2200 	mov.w	r2, #524288	; 0x80000
 800062c:	f04f 0300 	mov.w	r3, #0
 8000630:	e9c7 2304 	strd	r2, r3, [r7, #16]
    PeriphClkInit.RngClockSelection = RCC_RNGCLKSOURCE_HSI48;
 8000634:	2300      	movs	r3, #0
 8000636:	f8c7 30a8 	str.w	r3, [r7, #168]	; 0xa8
    if (HAL_RCCEx_PeriphCLKConfig(&PeriphClkInit) != HAL_OK)
 800063a:	f107 0310 	add.w	r3, r7, #16
 800063e:	4618      	mov	r0, r3
 8000640:	f003 fcaa 	bl	8003f98 <HAL_RCCEx_PeriphCLKConfig>
 8000644:	4603      	mov	r3, r0
 8000646:	2b00      	cmp	r3, #0
 8000648:	d001      	beq.n	800064e <HAL_RNG_MspInit+0x46>
    {
      Error_Handler();
 800064a:	f7ff ffad 	bl	80005a8 <Error_Handler>
    }

    /* Peripheral clock enable */
    __HAL_RCC_RNG_CLK_ENABLE();
 800064e:	4b0a      	ldr	r3, [pc, #40]	; (8000678 <HAL_RNG_MspInit+0x70>)
 8000650:	f8d3 308c 	ldr.w	r3, [r3, #140]	; 0x8c
 8000654:	4a08      	ldr	r2, [pc, #32]	; (8000678 <HAL_RNG_MspInit+0x70>)
 8000656:	f443 2380 	orr.w	r3, r3, #262144	; 0x40000
 800065a:	f8c2 308c 	str.w	r3, [r2, #140]	; 0x8c
 800065e:	4b06      	ldr	r3, [pc, #24]	; (8000678 <HAL_RNG_MspInit+0x70>)
 8000660:	f8d3 308c 	ldr.w	r3, [r3, #140]	; 0x8c
 8000664:	f403 2380 	and.w	r3, r3, #262144	; 0x40000
 8000668:	60fb      	str	r3, [r7, #12]
 800066a:	68fb      	ldr	r3, [r7, #12]
  /* USER CODE BEGIN RNG_MspInit 1 */

  /* USER CODE END RNG_MspInit 1 */
  }

}
 800066c:	bf00      	nop
 800066e:	37d8      	adds	r7, #216	; 0xd8
 8000670:	46bd      	mov	sp, r7
 8000672:	bd80      	pop	{r7, pc}
 8000674:	420c0800 	.word	0x420c0800
 8000678:	46020c00 	.word	0x46020c00

0800067c <HAL_CRYP_MspInit>:
* This function configures the hardware resources used in this example
* @param hcryp: CRYP handle pointer
* @retval None
*/
void HAL_CRYP_MspInit(CRYP_HandleTypeDef* hcryp)
{
 800067c:	b580      	push	{r7, lr}
 800067e:	b0b6      	sub	sp, #216	; 0xd8
 8000680:	af00      	add	r7, sp, #0
 8000682:	6078      	str	r0, [r7, #4]
  RCC_PeriphCLKInitTypeDef PeriphClkInit = {0};
 8000684:	f107 0310 	add.w	r3, r7, #16
 8000688:	22c8      	movs	r2, #200	; 0xc8
 800068a:	2100      	movs	r1, #0
 800068c:	4618      	mov	r0, r3
 800068e:	f004 fc1c 	bl	8004eca <memset>
  if(hcryp->Instance==SAES)
 8000692:	687b      	ldr	r3, [r7, #4]
 8000694:	681b      	ldr	r3, [r3, #0]
 8000696:	4a14      	ldr	r2, [pc, #80]	; (80006e8 <HAL_CRYP_MspInit+0x6c>)
 8000698:	4293      	cmp	r3, r2
 800069a:	d121      	bne.n	80006e0 <HAL_CRYP_MspInit+0x64>

  /* USER CODE END SAES_MspInit 0 */

  /** Initializes the peripherals clock
  */
    PeriphClkInit.PeriphClockSelection = RCC_PERIPHCLK_SAES;
 800069c:	f44f 5280 	mov.w	r2, #4096	; 0x1000
 80006a0:	f04f 0300 	mov.w	r3, #0
 80006a4:	e9c7 2304 	strd	r2, r3, [r7, #16]
    PeriphClkInit.SaesClockSelection = RCC_SAESCLKSOURCE_SHSI;
 80006a8:	2300      	movs	r3, #0
 80006aa:	f8c7 30ac 	str.w	r3, [r7, #172]	; 0xac
    if (HAL_RCCEx_PeriphCLKConfig(&PeriphClkInit) != HAL_OK)
 80006ae:	f107 0310 	add.w	r3, r7, #16
 80006b2:	4618      	mov	r0, r3
 80006b4:	f003 fc70 	bl	8003f98 <HAL_RCCEx_PeriphCLKConfig>
 80006b8:	4603      	mov	r3, r0
 80006ba:	2b00      	cmp	r3, #0
 80006bc:	d001      	beq.n	80006c2 <HAL_CRYP_MspInit+0x46>
    {
      Error_Handler();
 80006be:	f7ff ff73 	bl	80005a8 <Error_Handler>
    }

    /* Peripheral clock enable */
    __HAL_RCC_SAES_CLK_ENABLE();
 80006c2:	4b0a      	ldr	r3, [pc, #40]	; (80006ec <HAL_CRYP_MspInit+0x70>)
 80006c4:	f8d3 308c 	ldr.w	r3, [r3, #140]	; 0x8c
 80006c8:	4a08      	ldr	r2, [pc, #32]	; (80006ec <HAL_CRYP_MspInit+0x70>)
 80006ca:	f443 1380 	orr.w	r3, r3, #1048576	; 0x100000
 80006ce:	f8c2 308c 	str.w	r3, [r2, #140]	; 0x8c
 80006d2:	4b06      	ldr	r3, [pc, #24]	; (80006ec <HAL_CRYP_MspInit+0x70>)
 80006d4:	f8d3 308c 	ldr.w	r3, [r3, #140]	; 0x8c
 80006d8:	f403 1380 	and.w	r3, r3, #1048576	; 0x100000
 80006dc:	60fb      	str	r3, [r7, #12]
 80006de:	68fb      	ldr	r3, [r7, #12]
  /* USER CODE BEGIN SAES_MspInit 1 */

  /* USER CODE END SAES_MspInit 1 */
  }

}
 80006e0:	bf00      	nop
 80006e2:	37d8      	adds	r7, #216	; 0xd8
 80006e4:	46bd      	mov	sp, r7
 80006e6:	bd80      	pop	{r7, pc}
 80006e8:	420c0c00 	.word	0x420c0c00
 80006ec:	46020c00 	.word	0x46020c00

080006f0 <NMI_Handler>:
/******************************************************************************/
/**
  * @brief This function handles Non maskable interrupt.
  */
void NMI_Handler(void)
{
 80006f0:	b480      	push	{r7}
 80006f2:	af00      	add	r7, sp, #0

  /* USER CODE END NonMaskableInt_IRQn 0 */
  /* USER CODE BEGIN NonMaskableInt_IRQn 1 */

  /* USER CODE END NonMaskableInt_IRQn 1 */
}
 80006f4:	bf00      	nop
 80006f6:	46bd      	mov	sp, r7
 80006f8:	f85d 7b04 	ldr.w	r7, [sp], #4
 80006fc:	4770      	bx	lr

080006fe <HardFault_Handler>:

/**
  * @brief This function handles Hard fault interrupt.
  */
void HardFault_Handler(void)
{
 80006fe:	b480      	push	{r7}
 8000700:	af00      	add	r7, sp, #0
  /* USER CODE BEGIN HardFault_IRQn 0 */

  /* USER CODE END HardFault_IRQn 0 */
  while (1)
 8000702:	e7fe      	b.n	8000702 <HardFault_Handler+0x4>

08000704 <MemManage_Handler>:

/**
  * @brief This function handles Memory management fault.
  */
void MemManage_Handler(void)
{
 8000704:	b480      	push	{r7}
 8000706:	af00      	add	r7, sp, #0
  /* USER CODE BEGIN MemoryManagement_IRQn 0 */

  /* USER CODE END MemoryManagement_IRQn 0 */
  while (1)
 8000708:	e7fe      	b.n	8000708 <MemManage_Handler+0x4>

0800070a <BusFault_Handler>:

/**
  * @brief This function handles Prefetch fault, memory access fault.
  */
void BusFault_Handler(void)
{
 800070a:	b480      	push	{r7}
 800070c:	af00      	add	r7, sp, #0
  /* USER CODE BEGIN BusFault_IRQn 0 */

  /* USER CODE END BusFault_IRQn 0 */
  while (1)
 800070e:	e7fe      	b.n	800070e <BusFault_Handler+0x4>

08000710 <UsageFault_Handler>:

/**
  * @brief This function handles Undefined instruction or illegal state.
  */
void UsageFault_Handler(void)
{
 8000710:	b480      	push	{r7}
 8000712:	af00      	add	r7, sp, #0
  /* USER CODE BEGIN UsageFault_IRQn 0 */

  /* USER CODE END UsageFault_IRQn 0 */
  while (1)
 8000714:	e7fe      	b.n	8000714 <UsageFault_Handler+0x4>

08000716 <SVC_Handler>:

/**
  * @brief This function handles System service call via SWI instruction.
  */
void SVC_Handler(void)
{
 8000716:	b480      	push	{r7}
 8000718:	af00      	add	r7, sp, #0

  /* USER CODE END SVCall_IRQn 0 */
  /* USER CODE BEGIN SVCall_IRQn 1 */

  /* USER CODE END SVCall_IRQn 1 */
}
 800071a:	bf00      	nop
 800071c:	46bd      	mov	sp, r7
 800071e:	f85d 7b04 	ldr.w	r7, [sp], #4
 8000722:	4770      	bx	lr

08000724 <DebugMon_Handler>:

/**
  * @brief This function handles Debug monitor.
  */
void DebugMon_Handler(void)
{
 8000724:	b480      	push	{r7}
 8000726:	af00      	add	r7, sp, #0

  /* USER CODE END DebugMonitor_IRQn 0 */
  /* USER CODE BEGIN DebugMonitor_IRQn 1 */

  /* USER CODE END DebugMonitor_IRQn 1 */
}
 8000728:	bf00      	nop
 800072a:	46bd      	mov	sp, r7
 800072c:	f85d 7b04 	ldr.w	r7, [sp], #4
 8000730:	4770      	bx	lr

08000732 <PendSV_Handler>:

/**
  * @brief This function handles Pendable request for system service.
  */
void PendSV_Handler(void)
{
 8000732:	b480      	push	{r7}
 8000734:	af00      	add	r7, sp, #0

  /* USER CODE END PendSV_IRQn 0 */
  /* USER CODE BEGIN PendSV_IRQn 1 */

  /* USER CODE END PendSV_IRQn 1 */
}
 8000736:	bf00      	nop
 8000738:	46bd      	mov	sp, r7
 800073a:	f85d 7b04 	ldr.w	r7, [sp], #4
 800073e:	4770      	bx	lr

08000740 <SysTick_Handler>:

/**
  * @brief This function handles System tick timer.
  */
void SysTick_Handler(void)
{
 8000740:	b580      	push	{r7, lr}
 8000742:	af00      	add	r7, sp, #0
  /* USER CODE BEGIN SysTick_IRQn 0 */

  /* USER CODE END SysTick_IRQn 0 */
  HAL_IncTick();
 8000744:	f000 f92c 	bl	80009a0 <HAL_IncTick>
  /* USER CODE BEGIN SysTick_IRQn 1 */

  /* USER CODE END SysTick_IRQn 1 */
}
 8000748:	bf00      	nop
 800074a:	bd80      	pop	{r7, pc}

0800074c <BSP_LED_Init>:
  *            @arg  LED6
  *            @arg  LED7
  * @retval BSP status
  */
int32_t BSP_LED_Init(Led_TypeDef Led)
{
 800074c:	b580      	push	{r7, lr}
 800074e:	b08a      	sub	sp, #40	; 0x28
 8000750:	af00      	add	r7, sp, #0
 8000752:	4603      	mov	r3, r0
 8000754:	71fb      	strb	r3, [r7, #7]
  int32_t ret = BSP_ERROR_NONE;
 8000756:	2300      	movs	r3, #0
 8000758:	627b      	str	r3, [r7, #36]	; 0x24
  GPIO_InitTypeDef  gpio_init_structure;

  /* Enable the GPIO_LED clock */
  LED6_GPIO_CLK_ENABLE();
 800075a:	4b22      	ldr	r3, [pc, #136]	; (80007e4 <BSP_LED_Init+0x98>)
 800075c:	f8d3 308c 	ldr.w	r3, [r3, #140]	; 0x8c
 8000760:	4a20      	ldr	r2, [pc, #128]	; (80007e4 <BSP_LED_Init+0x98>)
 8000762:	f043 0380 	orr.w	r3, r3, #128	; 0x80
 8000766:	f8c2 308c 	str.w	r3, [r2, #140]	; 0x8c
 800076a:	4b1e      	ldr	r3, [pc, #120]	; (80007e4 <BSP_LED_Init+0x98>)
 800076c:	f8d3 308c 	ldr.w	r3, [r3, #140]	; 0x8c
 8000770:	f003 0380 	and.w	r3, r3, #128	; 0x80
 8000774:	60fb      	str	r3, [r7, #12]
 8000776:	68fb      	ldr	r3, [r7, #12]
  LED7_GPIO_CLK_ENABLE();
 8000778:	4b1a      	ldr	r3, [pc, #104]	; (80007e4 <BSP_LED_Init+0x98>)
 800077a:	f8d3 308c 	ldr.w	r3, [r3, #140]	; 0x8c
 800077e:	4a19      	ldr	r2, [pc, #100]	; (80007e4 <BSP_LED_Init+0x98>)
 8000780:	f043 0380 	orr.w	r3, r3, #128	; 0x80
 8000784:	f8c2 308c 	str.w	r3, [r2, #140]	; 0x8c
 8000788:	4b16      	ldr	r3, [pc, #88]	; (80007e4 <BSP_LED_Init+0x98>)
 800078a:	f8d3 308c 	ldr.w	r3, [r3, #140]	; 0x8c
 800078e:	f003 0380 	and.w	r3, r3, #128	; 0x80
 8000792:	60bb      	str	r3, [r7, #8]
 8000794:	68bb      	ldr	r3, [r7, #8]

  /* Configure the GPIO_LED pin */
  gpio_init_structure.Mode = GPIO_MODE_OUTPUT_PP;
 8000796:	2301      	movs	r3, #1
 8000798:	617b      	str	r3, [r7, #20]
  gpio_init_structure.Pull = GPIO_NOPULL;
 800079a:	2300      	movs	r3, #0
 800079c:	61bb      	str	r3, [r7, #24]
  gpio_init_structure.Speed = GPIO_SPEED_FREQ_HIGH;
 800079e:	2302      	movs	r3, #2
 80007a0:	61fb      	str	r3, [r7, #28]
  gpio_init_structure.Pin = LED_PIN [Led];
 80007a2:	79fb      	ldrb	r3, [r7, #7]
 80007a4:	4a10      	ldr	r2, [pc, #64]	; (80007e8 <BSP_LED_Init+0x9c>)
 80007a6:	f852 3023 	ldr.w	r3, [r2, r3, lsl #2]
 80007aa:	613b      	str	r3, [r7, #16]
  HAL_GPIO_Init(LED_PORT[Led], &gpio_init_structure);
 80007ac:	79fb      	ldrb	r3, [r7, #7]
 80007ae:	4a0f      	ldr	r2, [pc, #60]	; (80007ec <BSP_LED_Init+0xa0>)
 80007b0:	f852 3023 	ldr.w	r3, [r2, r3, lsl #2]
 80007b4:	f107 0210 	add.w	r2, r7, #16
 80007b8:	4611      	mov	r1, r2
 80007ba:	4618      	mov	r0, r3
 80007bc:	f001 fe56 	bl	800246c <HAL_GPIO_Init>
  HAL_GPIO_WritePin(LED_PORT [Led], (uint16_t)LED_PIN[Led], GPIO_PIN_SET);
 80007c0:	79fb      	ldrb	r3, [r7, #7]
 80007c2:	4a0a      	ldr	r2, [pc, #40]	; (80007ec <BSP_LED_Init+0xa0>)
 80007c4:	f852 0023 	ldr.w	r0, [r2, r3, lsl #2]
 80007c8:	79fb      	ldrb	r3, [r7, #7]
 80007ca:	4a07      	ldr	r2, [pc, #28]	; (80007e8 <BSP_LED_Init+0x9c>)
 80007cc:	f852 3023 	ldr.w	r3, [r2, r3, lsl #2]
 80007d0:	b29b      	uxth	r3, r3
 80007d2:	2201      	movs	r2, #1
 80007d4:	4619      	mov	r1, r3
 80007d6:	f002 f821 	bl	800281c <HAL_GPIO_WritePin>

  return ret;
 80007da:	6a7b      	ldr	r3, [r7, #36]	; 0x24
}
 80007dc:	4618      	mov	r0, r3
 80007de:	3728      	adds	r7, #40	; 0x28
 80007e0:	46bd      	mov	sp, r7
 80007e2:	bd80      	pop	{r7, pc}
 80007e4:	46020c00 	.word	0x46020c00
 80007e8:	08004f6c 	.word	0x08004f6c
 80007ec:	20000100 	.word	0x20000100

080007f0 <BSP_LED_On>:
  *            @arg  LED6
  *            @arg  LED7
  * @retval BSP status
  */
int32_t BSP_LED_On(Led_TypeDef Led)
{
 80007f0:	b580      	push	{r7, lr}
 80007f2:	b084      	sub	sp, #16
 80007f4:	af00      	add	r7, sp, #0
 80007f6:	4603      	mov	r3, r0
 80007f8:	71fb      	strb	r3, [r7, #7]
  int32_t ret;

  HAL_GPIO_WritePin(LED_PORT [Led], (uint16_t)LED_PIN [Led], GPIO_PIN_RESET);
 80007fa:	79fb      	ldrb	r3, [r7, #7]
 80007fc:	4a09      	ldr	r2, [pc, #36]	; (8000824 <BSP_LED_On+0x34>)
 80007fe:	f852 0023 	ldr.w	r0, [r2, r3, lsl #2]
 8000802:	79fb      	ldrb	r3, [r7, #7]
 8000804:	4a08      	ldr	r2, [pc, #32]	; (8000828 <BSP_LED_On+0x38>)
 8000806:	f852 3023 	ldr.w	r3, [r2, r3, lsl #2]
 800080a:	b29b      	uxth	r3, r3
 800080c:	2200      	movs	r2, #0
 800080e:	4619      	mov	r1, r3
 8000810:	f002 f804 	bl	800281c <HAL_GPIO_WritePin>
  ret = BSP_ERROR_NONE;
 8000814:	2300      	movs	r3, #0
 8000816:	60fb      	str	r3, [r7, #12]

  return ret;
 8000818:	68fb      	ldr	r3, [r7, #12]
}
 800081a:	4618      	mov	r0, r3
 800081c:	3710      	adds	r7, #16
 800081e:	46bd      	mov	sp, r7
 8000820:	bd80      	pop	{r7, pc}
 8000822:	bf00      	nop
 8000824:	20000100 	.word	0x20000100
 8000828:	08004f6c 	.word	0x08004f6c

0800082c <BSP_LED_Toggle>:
  *            @arg  LED5
  *            @arg  LED7
  * @retval BSP status
  */
int32_t BSP_LED_Toggle(Led_TypeDef Led)
{
 800082c:	b580      	push	{r7, lr}
 800082e:	b084      	sub	sp, #16
 8000830:	af00      	add	r7, sp, #0
 8000832:	4603      	mov	r3, r0
 8000834:	71fb      	strb	r3, [r7, #7]
  int32_t ret;

  HAL_GPIO_TogglePin(LED_PORT[Led], (uint16_t)LED_PIN[Led]);
 8000836:	79fb      	ldrb	r3, [r7, #7]
 8000838:	4a09      	ldr	r2, [pc, #36]	; (8000860 <BSP_LED_Toggle+0x34>)
 800083a:	f852 2023 	ldr.w	r2, [r2, r3, lsl #2]
 800083e:	79fb      	ldrb	r3, [r7, #7]
 8000840:	4908      	ldr	r1, [pc, #32]	; (8000864 <BSP_LED_Toggle+0x38>)
 8000842:	f851 3023 	ldr.w	r3, [r1, r3, lsl #2]
 8000846:	b29b      	uxth	r3, r3
 8000848:	4619      	mov	r1, r3
 800084a:	4610      	mov	r0, r2
 800084c:	f001 fffe 	bl	800284c <HAL_GPIO_TogglePin>
  ret = BSP_ERROR_NONE;
 8000850:	2300      	movs	r3, #0
 8000852:	60fb      	str	r3, [r7, #12]

  return ret;
 8000854:	68fb      	ldr	r3, [r7, #12]
}
 8000856:	4618      	mov	r0, r3
 8000858:	3710      	adds	r7, #16
 800085a:	46bd      	mov	sp, r7
 800085c:	bd80      	pop	{r7, pc}
 800085e:	bf00      	nop
 8000860:	20000100 	.word	0x20000100
 8000864:	08004f6c 	.word	0x08004f6c

08000868 <SystemInit>:
  * @param  None
  * @retval None
  */

void SystemInit(void)
{
 8000868:	b480      	push	{r7}
 800086a:	af00      	add	r7, sp, #0
  /* FPU settings ------------------------------------------------------------*/
  #if (__FPU_PRESENT == 1) && (__FPU_USED == 1)
   SCB->CPACR |= ((3UL << 20U)|(3UL << 22U));  /* set CP10 and CP11 Full Access */
 800086c:	4b18      	ldr	r3, [pc, #96]	; (80008d0 <SystemInit+0x68>)
 800086e:	f8d3 3088 	ldr.w	r3, [r3, #136]	; 0x88
 8000872:	4a17      	ldr	r2, [pc, #92]	; (80008d0 <SystemInit+0x68>)
 8000874:	f443 0370 	orr.w	r3, r3, #15728640	; 0xf00000
 8000878:	f8c2 3088 	str.w	r3, [r2, #136]	; 0x88
  #endif

  /* Reset the RCC clock configuration to the default reset state ------------*/
  /* Set MSION bit */
  RCC->CR = RCC_CR_MSISON;
 800087c:	4b15      	ldr	r3, [pc, #84]	; (80008d4 <SystemInit+0x6c>)
 800087e:	2201      	movs	r2, #1
 8000880:	601a      	str	r2, [r3, #0]

  /* Reset CFGR register */
  RCC->CFGR1 = 0U;
 8000882:	4b14      	ldr	r3, [pc, #80]	; (80008d4 <SystemInit+0x6c>)
 8000884:	2200      	movs	r2, #0
 8000886:	61da      	str	r2, [r3, #28]
  RCC->CFGR2 = 0U;
 8000888:	4b12      	ldr	r3, [pc, #72]	; (80008d4 <SystemInit+0x6c>)
 800088a:	2200      	movs	r2, #0
 800088c:	621a      	str	r2, [r3, #32]
  RCC->CFGR3 = 0U;
 800088e:	4b11      	ldr	r3, [pc, #68]	; (80008d4 <SystemInit+0x6c>)
 8000890:	2200      	movs	r2, #0
 8000892:	625a      	str	r2, [r3, #36]	; 0x24

  /* Reset HSEON, CSSON , HSION, PLLxON bits */
  RCC->CR &= ~(RCC_CR_HSEON | RCC_CR_CSSON | RCC_CR_PLL1ON | RCC_CR_PLL2ON | RCC_CR_PLL3ON);
 8000894:	4b0f      	ldr	r3, [pc, #60]	; (80008d4 <SystemInit+0x6c>)
 8000896:	681b      	ldr	r3, [r3, #0]
 8000898:	4a0e      	ldr	r2, [pc, #56]	; (80008d4 <SystemInit+0x6c>)
 800089a:	f023 53a8 	bic.w	r3, r3, #352321536	; 0x15000000
 800089e:	f423 2310 	bic.w	r3, r3, #589824	; 0x90000
 80008a2:	6013      	str	r3, [r2, #0]

  /* Reset PLLCFGR register */
  RCC->PLL1CFGR = 0U;
 80008a4:	4b0b      	ldr	r3, [pc, #44]	; (80008d4 <SystemInit+0x6c>)
 80008a6:	2200      	movs	r2, #0
 80008a8:	629a      	str	r2, [r3, #40]	; 0x28

  /* Reset HSEBYP bit */
  RCC->CR &= ~(RCC_CR_HSEBYP);
 80008aa:	4b0a      	ldr	r3, [pc, #40]	; (80008d4 <SystemInit+0x6c>)
 80008ac:	681b      	ldr	r3, [r3, #0]
 80008ae:	4a09      	ldr	r2, [pc, #36]	; (80008d4 <SystemInit+0x6c>)
 80008b0:	f423 2380 	bic.w	r3, r3, #262144	; 0x40000
 80008b4:	6013      	str	r3, [r2, #0]

  /* Disable all interrupts */
  RCC->CIER = 0U;
 80008b6:	4b07      	ldr	r3, [pc, #28]	; (80008d4 <SystemInit+0x6c>)
 80008b8:	2200      	movs	r2, #0
 80008ba:	651a      	str	r2, [r3, #80]	; 0x50

  /* Configure the Vector Table location add offset address ------------------*/
  #ifdef VECT_TAB_SRAM
    SCB->VTOR = SRAM1_BASE | VECT_TAB_OFFSET; /* Vector Table Relocation in Internal SRAM */
  #else
    SCB->VTOR = FLASH_BASE | VECT_TAB_OFFSET; /* Vector Table Relocation in Internal FLASH */
 80008bc:	4b04      	ldr	r3, [pc, #16]	; (80008d0 <SystemInit+0x68>)
 80008be:	f04f 6200 	mov.w	r2, #134217728	; 0x8000000
 80008c2:	609a      	str	r2, [r3, #8]
  #endif
}
 80008c4:	bf00      	nop
 80008c6:	46bd      	mov	sp, r7
 80008c8:	f85d 7b04 	ldr.w	r7, [sp], #4
 80008cc:	4770      	bx	lr
 80008ce:	bf00      	nop
 80008d0:	e000ed00 	.word	0xe000ed00
 80008d4:	46020c00 	.word	0x46020c00

080008d8 <HAL_Init>:
  *         each 1ms in the SysTick_Handler() interrupt handler.
  *
  * @retval HAL status
  */
HAL_StatusTypeDef HAL_Init(void)
{
 80008d8:	b580      	push	{r7, lr}
 80008da:	af00      	add	r7, sp, #0
  /* Configure Flash prefetch */
#if (PREFETCH_ENABLE != 0U)
  __HAL_FLASH_PREFETCH_BUFFER_ENABLE();
 80008dc:	4b11      	ldr	r3, [pc, #68]	; (8000924 <HAL_Init+0x4c>)
 80008de:	681b      	ldr	r3, [r3, #0]
 80008e0:	4a10      	ldr	r2, [pc, #64]	; (8000924 <HAL_Init+0x4c>)
 80008e2:	f443 7380 	orr.w	r3, r3, #256	; 0x100
 80008e6:	6013      	str	r3, [r2, #0]
#endif /* PREFETCH_ENABLE */

  /* Set Interrupt Group Priority */
  HAL_NVIC_SetPriorityGrouping(NVIC_PRIORITYGROUP_4);
 80008e8:	2003      	movs	r0, #3
 80008ea:	f000 f94f 	bl	8000b8c <HAL_NVIC_SetPriorityGrouping>

  /* Update the SystemCoreClock global variable */
  SystemCoreClock = HAL_RCC_GetSysClockFreq() >> AHBPrescTable[(RCC->CFGR2 & RCC_CFGR2_HPRE) >> RCC_CFGR2_HPRE_Pos];
 80008ee:	f003 f9b1 	bl	8003c54 <HAL_RCC_GetSysClockFreq>
 80008f2:	4602      	mov	r2, r0
 80008f4:	4b0c      	ldr	r3, [pc, #48]	; (8000928 <HAL_Init+0x50>)
 80008f6:	6a1b      	ldr	r3, [r3, #32]
 80008f8:	f003 030f 	and.w	r3, r3, #15
 80008fc:	490b      	ldr	r1, [pc, #44]	; (800092c <HAL_Init+0x54>)
 80008fe:	5ccb      	ldrb	r3, [r1, r3]
 8000900:	fa22 f303 	lsr.w	r3, r2, r3
 8000904:	4a0a      	ldr	r2, [pc, #40]	; (8000930 <HAL_Init+0x58>)
 8000906:	6013      	str	r3, [r2, #0]

  /* Use systick as time base source and configure 1ms tick (default clock after Reset is HSI) */
  if (HAL_InitTick(TICK_INT_PRIORITY) != HAL_OK)
 8000908:	2000      	movs	r0, #0
 800090a:	f000 f813 	bl	8000934 <HAL_InitTick>
 800090e:	4603      	mov	r3, r0
 8000910:	2b00      	cmp	r3, #0
 8000912:	d001      	beq.n	8000918 <HAL_Init+0x40>
  {
    return HAL_ERROR;
 8000914:	2301      	movs	r3, #1
 8000916:	e002      	b.n	800091e <HAL_Init+0x46>
  }

  /* Init the low level hardware */
  HAL_MspInit();
 8000918:	f7ff fe4c 	bl	80005b4 <HAL_MspInit>

  /* Return function status */
  return HAL_OK;
 800091c:	2300      	movs	r3, #0
}
 800091e:	4618      	mov	r0, r3
 8000920:	bd80      	pop	{r7, pc}
 8000922:	bf00      	nop
 8000924:	40022000 	.word	0x40022000
 8000928:	46020c00 	.word	0x46020c00
 800092c:	08004f74 	.word	0x08004f74
 8000930:	20000108 	.word	0x20000108

08000934 <HAL_InitTick>:
  *       implementation  in user file.
  * @param TickPriority: Tick interrupt priority.
  * @retval HAL status
  */
__weak HAL_StatusTypeDef HAL_InitTick(uint32_t TickPriority)
{
 8000934:	b580      	push	{r7, lr}
 8000936:	b082      	sub	sp, #8
 8000938:	af00      	add	r7, sp, #0
 800093a:	6078      	str	r0, [r7, #4]
  /* Check uwTickFreq for MisraC 2012 (even if uwTickFreq is a enum type that don't take the value zero)*/
  if ((uint32_t)uwTickFreq == 0UL)
 800093c:	4b15      	ldr	r3, [pc, #84]	; (8000994 <HAL_InitTick+0x60>)
 800093e:	781b      	ldrb	r3, [r3, #0]
 8000940:	2b00      	cmp	r3, #0
 8000942:	d101      	bne.n	8000948 <HAL_InitTick+0x14>
  {
    return HAL_ERROR;
 8000944:	2301      	movs	r3, #1
 8000946:	e021      	b.n	800098c <HAL_InitTick+0x58>
  }

  /* Configure the SysTick to have interrupt in 1ms time basis*/
  if (HAL_SYSTICK_Config(SystemCoreClock / (1000UL / (uint32_t)uwTickFreq)) > 0U)
 8000948:	4b13      	ldr	r3, [pc, #76]	; (8000998 <HAL_InitTick+0x64>)
 800094a:	681a      	ldr	r2, [r3, #0]
 800094c:	4b11      	ldr	r3, [pc, #68]	; (8000994 <HAL_InitTick+0x60>)
 800094e:	781b      	ldrb	r3, [r3, #0]
 8000950:	4619      	mov	r1, r3
 8000952:	f44f 737a 	mov.w	r3, #1000	; 0x3e8
 8000956:	fbb3 f3f1 	udiv	r3, r3, r1
 800095a:	fbb2 f3f3 	udiv	r3, r2, r3
 800095e:	4618      	mov	r0, r3
 8000960:	f000 f939 	bl	8000bd6 <HAL_SYSTICK_Config>
 8000964:	4603      	mov	r3, r0
 8000966:	2b00      	cmp	r3, #0
 8000968:	d001      	beq.n	800096e <HAL_InitTick+0x3a>
  {
    return HAL_ERROR;
 800096a:	2301      	movs	r3, #1
 800096c:	e00e      	b.n	800098c <HAL_InitTick+0x58>
  }

  /* Configure the SysTick IRQ priority */
  if (TickPriority < (1UL << __NVIC_PRIO_BITS))
 800096e:	687b      	ldr	r3, [r7, #4]
 8000970:	2b0f      	cmp	r3, #15
 8000972:	d80a      	bhi.n	800098a <HAL_InitTick+0x56>
  {
    HAL_NVIC_SetPriority(SysTick_IRQn, TickPriority, 0U);
 8000974:	2200      	movs	r2, #0
 8000976:	6879      	ldr	r1, [r7, #4]
 8000978:	f04f 30ff 	mov.w	r0, #4294967295	; 0xffffffff
 800097c:	f000 f911 	bl	8000ba2 <HAL_NVIC_SetPriority>
    uwTickPrio = TickPriority;
 8000980:	4a06      	ldr	r2, [pc, #24]	; (800099c <HAL_InitTick+0x68>)
 8000982:	687b      	ldr	r3, [r7, #4]
 8000984:	6013      	str	r3, [r2, #0]
  {
    return HAL_ERROR;
  }

  /* Return function status */
  return HAL_OK;
 8000986:	2300      	movs	r3, #0
 8000988:	e000      	b.n	800098c <HAL_InitTick+0x58>
    return HAL_ERROR;
 800098a:	2301      	movs	r3, #1
}
 800098c:	4618      	mov	r0, r3
 800098e:	3708      	adds	r7, #8
 8000990:	46bd      	mov	sp, r7
 8000992:	bd80      	pop	{r7, pc}
 8000994:	20000110 	.word	0x20000110
 8000998:	20000108 	.word	0x20000108
 800099c:	2000010c 	.word	0x2000010c

080009a0 <HAL_IncTick>:
  * @note This function is declared as __weak to be overwritten in case of other
  *      implementations in user file.
  * @retval None
  */
__weak void HAL_IncTick(void)
{
 80009a0:	b480      	push	{r7}
 80009a2:	af00      	add	r7, sp, #0
  uwTick += (uint32_t)uwTickFreq;
 80009a4:	4b06      	ldr	r3, [pc, #24]	; (80009c0 <HAL_IncTick+0x20>)
 80009a6:	781b      	ldrb	r3, [r3, #0]
 80009a8:	461a      	mov	r2, r3
 80009aa:	4b06      	ldr	r3, [pc, #24]	; (80009c4 <HAL_IncTick+0x24>)
 80009ac:	681b      	ldr	r3, [r3, #0]
 80009ae:	4413      	add	r3, r2
 80009b0:	4a04      	ldr	r2, [pc, #16]	; (80009c4 <HAL_IncTick+0x24>)
 80009b2:	6013      	str	r3, [r2, #0]
}
 80009b4:	bf00      	nop
 80009b6:	46bd      	mov	sp, r7
 80009b8:	f85d 7b04 	ldr.w	r7, [sp], #4
 80009bc:	4770      	bx	lr
 80009be:	bf00      	nop
 80009c0:	20000110 	.word	0x20000110
 80009c4:	20000264 	.word	0x20000264

080009c8 <HAL_GetTick>:
  * @note This function is declared as __weak to be overwritten in case of other
  *       implementations in user file.
  * @retval tick value
  */
__weak uint32_t HAL_GetTick(void)
{
 80009c8:	b480      	push	{r7}
 80009ca:	af00      	add	r7, sp, #0
  return uwTick;
 80009cc:	4b03      	ldr	r3, [pc, #12]	; (80009dc <HAL_GetTick+0x14>)
 80009ce:	681b      	ldr	r3, [r3, #0]
}
 80009d0:	4618      	mov	r0, r3
 80009d2:	46bd      	mov	sp, r7
 80009d4:	f85d 7b04 	ldr.w	r7, [sp], #4
 80009d8:	4770      	bx	lr
 80009da:	bf00      	nop
 80009dc:	20000264 	.word	0x20000264

080009e0 <HAL_Delay>:
  *       implementations in user file.
  * @param Delay  specifies the delay time length, in milliseconds.
  * @retval None
  */
__weak void HAL_Delay(uint32_t Delay)
{
 80009e0:	b580      	push	{r7, lr}
 80009e2:	b084      	sub	sp, #16
 80009e4:	af00      	add	r7, sp, #0
 80009e6:	6078      	str	r0, [r7, #4]
  uint32_t tickstart = HAL_GetTick();
 80009e8:	f7ff ffee 	bl	80009c8 <HAL_GetTick>
 80009ec:	60b8      	str	r0, [r7, #8]
  uint32_t wait = Delay;
 80009ee:	687b      	ldr	r3, [r7, #4]
 80009f0:	60fb      	str	r3, [r7, #12]

  /* Add a freq to guarantee minimum wait */
  if (wait < HAL_MAX_DELAY)
 80009f2:	68fb      	ldr	r3, [r7, #12]
 80009f4:	f1b3 3fff 	cmp.w	r3, #4294967295	; 0xffffffff
 80009f8:	d005      	beq.n	8000a06 <HAL_Delay+0x26>
  {
    wait += (uint32_t)(uwTickFreq);
 80009fa:	4b0a      	ldr	r3, [pc, #40]	; (8000a24 <HAL_Delay+0x44>)
 80009fc:	781b      	ldrb	r3, [r3, #0]
 80009fe:	461a      	mov	r2, r3
 8000a00:	68fb      	ldr	r3, [r7, #12]
 8000a02:	4413      	add	r3, r2
 8000a04:	60fb      	str	r3, [r7, #12]
  }

  while ((HAL_GetTick() - tickstart) < wait)
 8000a06:	bf00      	nop
 8000a08:	f7ff ffde 	bl	80009c8 <HAL_GetTick>
 8000a0c:	4602      	mov	r2, r0
 8000a0e:	68bb      	ldr	r3, [r7, #8]
 8000a10:	1ad3      	subs	r3, r2, r3
 8000a12:	68fa      	ldr	r2, [r7, #12]
 8000a14:	429a      	cmp	r2, r3
 8000a16:	d8f7      	bhi.n	8000a08 <HAL_Delay+0x28>
  {
  }
}
 8000a18:	bf00      	nop
 8000a1a:	bf00      	nop
 8000a1c:	3710      	adds	r7, #16
 8000a1e:	46bd      	mov	sp, r7
 8000a20:	bd80      	pop	{r7, pc}
 8000a22:	bf00      	nop
 8000a24:	20000110 	.word	0x20000110

08000a28 <__NVIC_SetPriorityGrouping>:
           In case of a conflict between priority grouping and available
           priority bits (__NVIC_PRIO_BITS), the smallest possible priority group is set.
  \param [in]      PriorityGroup  Priority grouping field.
 */
__STATIC_INLINE void __NVIC_SetPriorityGrouping(uint32_t PriorityGroup)
{
 8000a28:	b480      	push	{r7}
 8000a2a:	b085      	sub	sp, #20
 8000a2c:	af00      	add	r7, sp, #0
 8000a2e:	6078      	str	r0, [r7, #4]
  uint32_t reg_value;
  uint32_t PriorityGroupTmp = (PriorityGroup & (uint32_t)0x07UL);             /* only values 0..7 are used          */
 8000a30:	687b      	ldr	r3, [r7, #4]
 8000a32:	f003 0307 	and.w	r3, r3, #7
 8000a36:	60fb      	str	r3, [r7, #12]

  reg_value  =  SCB->AIRCR;                                                   /* read old register configuration    */
 8000a38:	4b0c      	ldr	r3, [pc, #48]	; (8000a6c <__NVIC_SetPriorityGrouping+0x44>)
 8000a3a:	68db      	ldr	r3, [r3, #12]
 8000a3c:	60bb      	str	r3, [r7, #8]
  reg_value &= ~((uint32_t)(SCB_AIRCR_VECTKEY_Msk | SCB_AIRCR_PRIGROUP_Msk)); /* clear bits to change               */
 8000a3e:	68ba      	ldr	r2, [r7, #8]
 8000a40:	f64f 03ff 	movw	r3, #63743	; 0xf8ff
 8000a44:	4013      	ands	r3, r2
 8000a46:	60bb      	str	r3, [r7, #8]
  reg_value  =  (reg_value                                   |
                ((uint32_t)0x5FAUL << SCB_AIRCR_VECTKEY_Pos) |
                (PriorityGroupTmp << SCB_AIRCR_PRIGROUP_Pos)  );              /* Insert write key and priority group */
 8000a48:	68fb      	ldr	r3, [r7, #12]
 8000a4a:	021a      	lsls	r2, r3, #8
                ((uint32_t)0x5FAUL << SCB_AIRCR_VECTKEY_Pos) |
 8000a4c:	68bb      	ldr	r3, [r7, #8]
 8000a4e:	4313      	orrs	r3, r2
  reg_value  =  (reg_value                                   |
 8000a50:	f043 63bf 	orr.w	r3, r3, #100139008	; 0x5f80000
 8000a54:	f443 3300 	orr.w	r3, r3, #131072	; 0x20000
 8000a58:	60bb      	str	r3, [r7, #8]
  SCB->AIRCR =  reg_value;
 8000a5a:	4a04      	ldr	r2, [pc, #16]	; (8000a6c <__NVIC_SetPriorityGrouping+0x44>)
 8000a5c:	68bb      	ldr	r3, [r7, #8]
 8000a5e:	60d3      	str	r3, [r2, #12]
}
 8000a60:	bf00      	nop
 8000a62:	3714      	adds	r7, #20
 8000a64:	46bd      	mov	sp, r7
 8000a66:	f85d 7b04 	ldr.w	r7, [sp], #4
 8000a6a:	4770      	bx	lr
 8000a6c:	e000ed00 	.word	0xe000ed00

08000a70 <__NVIC_GetPriorityGrouping>:
  \brief   Get Priority Grouping
  \details Reads the priority grouping field from the NVIC Interrupt Controller.
  \return                Priority grouping field (SCB->AIRCR [10:8] PRIGROUP field).
 */
__STATIC_INLINE uint32_t __NVIC_GetPriorityGrouping(void)
{
 8000a70:	b480      	push	{r7}
 8000a72:	af00      	add	r7, sp, #0
  return ((uint32_t)((SCB->AIRCR & SCB_AIRCR_PRIGROUP_Msk) >> SCB_AIRCR_PRIGROUP_Pos));
 8000a74:	4b04      	ldr	r3, [pc, #16]	; (8000a88 <__NVIC_GetPriorityGrouping+0x18>)
 8000a76:	68db      	ldr	r3, [r3, #12]
 8000a78:	0a1b      	lsrs	r3, r3, #8
 8000a7a:	f003 0307 	and.w	r3, r3, #7
}
 8000a7e:	4618      	mov	r0, r3
 8000a80:	46bd      	mov	sp, r7
 8000a82:	f85d 7b04 	ldr.w	r7, [sp], #4
 8000a86:	4770      	bx	lr
 8000a88:	e000ed00 	.word	0xe000ed00

08000a8c <__NVIC_SetPriority>:
  \param [in]      IRQn  Interrupt number.
  \param [in]  priority  Priority to set.
  \note    The priority cannot be set for every processor exception.
 */
__STATIC_INLINE void __NVIC_SetPriority(IRQn_Type IRQn, uint32_t priority)
{
 8000a8c:	b480      	push	{r7}
 8000a8e:	b083      	sub	sp, #12
 8000a90:	af00      	add	r7, sp, #0
 8000a92:	4603      	mov	r3, r0
 8000a94:	6039      	str	r1, [r7, #0]
 8000a96:	71fb      	strb	r3, [r7, #7]
  if ((int32_t)(IRQn) >= 0)
 8000a98:	f997 3007 	ldrsb.w	r3, [r7, #7]
 8000a9c:	2b00      	cmp	r3, #0
 8000a9e:	db0a      	blt.n	8000ab6 <__NVIC_SetPriority+0x2a>
  {
    NVIC->IPR[((uint32_t)IRQn)]               = (uint8_t)((priority << (8U - __NVIC_PRIO_BITS)) & (uint32_t)0xFFUL);
 8000aa0:	683b      	ldr	r3, [r7, #0]
 8000aa2:	b2da      	uxtb	r2, r3
 8000aa4:	490c      	ldr	r1, [pc, #48]	; (8000ad8 <__NVIC_SetPriority+0x4c>)
 8000aa6:	f997 3007 	ldrsb.w	r3, [r7, #7]
 8000aaa:	0112      	lsls	r2, r2, #4
 8000aac:	b2d2      	uxtb	r2, r2
 8000aae:	440b      	add	r3, r1
 8000ab0:	f883 2300 	strb.w	r2, [r3, #768]	; 0x300
  }
  else
  {
    SCB->SHPR[(((uint32_t)IRQn) & 0xFUL)-4UL] = (uint8_t)((priority << (8U - __NVIC_PRIO_BITS)) & (uint32_t)0xFFUL);
  }
}
 8000ab4:	e00a      	b.n	8000acc <__NVIC_SetPriority+0x40>
    SCB->SHPR[(((uint32_t)IRQn) & 0xFUL)-4UL] = (uint8_t)((priority << (8U - __NVIC_PRIO_BITS)) & (uint32_t)0xFFUL);
 8000ab6:	683b      	ldr	r3, [r7, #0]
 8000ab8:	b2da      	uxtb	r2, r3
 8000aba:	4908      	ldr	r1, [pc, #32]	; (8000adc <__NVIC_SetPriority+0x50>)
 8000abc:	79fb      	ldrb	r3, [r7, #7]
 8000abe:	f003 030f 	and.w	r3, r3, #15
 8000ac2:	3b04      	subs	r3, #4
 8000ac4:	0112      	lsls	r2, r2, #4
 8000ac6:	b2d2      	uxtb	r2, r2
 8000ac8:	440b      	add	r3, r1
 8000aca:	761a      	strb	r2, [r3, #24]
}
 8000acc:	bf00      	nop
 8000ace:	370c      	adds	r7, #12
 8000ad0:	46bd      	mov	sp, r7
 8000ad2:	f85d 7b04 	ldr.w	r7, [sp], #4
 8000ad6:	4770      	bx	lr
 8000ad8:	e000e100 	.word	0xe000e100
 8000adc:	e000ed00 	.word	0xe000ed00

08000ae0 <NVIC_EncodePriority>:
  \param [in]   PreemptPriority  Preemptive priority value (starting from 0).
  \param [in]       SubPriority  Subpriority value (starting from 0).
  \return                        Encoded priority. Value can be used in the function \ref NVIC_SetPriority().
 */
__STATIC_INLINE uint32_t NVIC_EncodePriority (uint32_t PriorityGroup, uint32_t PreemptPriority, uint32_t SubPriority)
{
 8000ae0:	b480      	push	{r7}
 8000ae2:	b089      	sub	sp, #36	; 0x24
 8000ae4:	af00      	add	r7, sp, #0
 8000ae6:	60f8      	str	r0, [r7, #12]
 8000ae8:	60b9      	str	r1, [r7, #8]
 8000aea:	607a      	str	r2, [r7, #4]
  uint32_t PriorityGroupTmp = (PriorityGroup & (uint32_t)0x07UL);   /* only values 0..7 are used          */
 8000aec:	68fb      	ldr	r3, [r7, #12]
 8000aee:	f003 0307 	and.w	r3, r3, #7
 8000af2:	61fb      	str	r3, [r7, #28]
  uint32_t PreemptPriorityBits;
  uint32_t SubPriorityBits;

  PreemptPriorityBits = ((7UL - PriorityGroupTmp) > (uint32_t)(__NVIC_PRIO_BITS)) ? (uint32_t)(__NVIC_PRIO_BITS) : (uint32_t)(7UL - PriorityGroupTmp);
 8000af4:	69fb      	ldr	r3, [r7, #28]
 8000af6:	f1c3 0307 	rsb	r3, r3, #7
 8000afa:	2b04      	cmp	r3, #4
 8000afc:	bf28      	it	cs
 8000afe:	2304      	movcs	r3, #4
 8000b00:	61bb      	str	r3, [r7, #24]
  SubPriorityBits     = ((PriorityGroupTmp + (uint32_t)(__NVIC_PRIO_BITS)) < (uint32_t)7UL) ? (uint32_t)0UL : (uint32_t)((PriorityGroupTmp - 7UL) + (uint32_t)(__NVIC_PRIO_BITS));
 8000b02:	69fb      	ldr	r3, [r7, #28]
 8000b04:	3304      	adds	r3, #4
 8000b06:	2b06      	cmp	r3, #6
 8000b08:	d902      	bls.n	8000b10 <NVIC_EncodePriority+0x30>
 8000b0a:	69fb      	ldr	r3, [r7, #28]
 8000b0c:	3b03      	subs	r3, #3
 8000b0e:	e000      	b.n	8000b12 <NVIC_EncodePriority+0x32>
 8000b10:	2300      	movs	r3, #0
 8000b12:	617b      	str	r3, [r7, #20]

  return (
           ((PreemptPriority & (uint32_t)((1UL << (PreemptPriorityBits)) - 1UL)) << SubPriorityBits) |
 8000b14:	f04f 32ff 	mov.w	r2, #4294967295	; 0xffffffff
 8000b18:	69bb      	ldr	r3, [r7, #24]
 8000b1a:	fa02 f303 	lsl.w	r3, r2, r3
 8000b1e:	43da      	mvns	r2, r3
 8000b20:	68bb      	ldr	r3, [r7, #8]
 8000b22:	401a      	ands	r2, r3
 8000b24:	697b      	ldr	r3, [r7, #20]
 8000b26:	409a      	lsls	r2, r3
           ((SubPriority     & (uint32_t)((1UL << (SubPriorityBits    )) - 1UL)))
 8000b28:	f04f 31ff 	mov.w	r1, #4294967295	; 0xffffffff
 8000b2c:	697b      	ldr	r3, [r7, #20]
 8000b2e:	fa01 f303 	lsl.w	r3, r1, r3
 8000b32:	43d9      	mvns	r1, r3
 8000b34:	687b      	ldr	r3, [r7, #4]
 8000b36:	400b      	ands	r3, r1
           ((PreemptPriority & (uint32_t)((1UL << (PreemptPriorityBits)) - 1UL)) << SubPriorityBits) |
 8000b38:	4313      	orrs	r3, r2
         );
}
 8000b3a:	4618      	mov	r0, r3
 8000b3c:	3724      	adds	r7, #36	; 0x24
 8000b3e:	46bd      	mov	sp, r7
 8000b40:	f85d 7b04 	ldr.w	r7, [sp], #4
 8000b44:	4770      	bx	lr
	...

08000b48 <SysTick_Config>:
  \note    When the variable <b>__Vendor_SysTickConfig</b> is set to 1, then the
           function <b>SysTick_Config</b> is not included. In this case, the file <b><i>device</i>.h</b>
           must contain a vendor-specific implementation of this function.
 */
__STATIC_INLINE uint32_t SysTick_Config(uint32_t ticks)
{
 8000b48:	b580      	push	{r7, lr}
 8000b4a:	b082      	sub	sp, #8
 8000b4c:	af00      	add	r7, sp, #0
 8000b4e:	6078      	str	r0, [r7, #4]
  if ((ticks - 1UL) > SysTick_LOAD_RELOAD_Msk)
 8000b50:	687b      	ldr	r3, [r7, #4]
 8000b52:	3b01      	subs	r3, #1
 8000b54:	f1b3 7f80 	cmp.w	r3, #16777216	; 0x1000000
 8000b58:	d301      	bcc.n	8000b5e <SysTick_Config+0x16>
  {
    return (1UL);                                                   /* Reload value impossible */
 8000b5a:	2301      	movs	r3, #1
 8000b5c:	e00f      	b.n	8000b7e <SysTick_Config+0x36>
  }

  SysTick->LOAD  = (uint32_t)(ticks - 1UL);                         /* set reload register */
 8000b5e:	4a0a      	ldr	r2, [pc, #40]	; (8000b88 <SysTick_Config+0x40>)
 8000b60:	687b      	ldr	r3, [r7, #4]
 8000b62:	3b01      	subs	r3, #1
 8000b64:	6053      	str	r3, [r2, #4]
  NVIC_SetPriority (SysTick_IRQn, (1UL << __NVIC_PRIO_BITS) - 1UL); /* set Priority for Systick Interrupt */
 8000b66:	210f      	movs	r1, #15
 8000b68:	f04f 30ff 	mov.w	r0, #4294967295	; 0xffffffff
 8000b6c:	f7ff ff8e 	bl	8000a8c <__NVIC_SetPriority>
  SysTick->VAL   = 0UL;                                             /* Load the SysTick Counter Value */
 8000b70:	4b05      	ldr	r3, [pc, #20]	; (8000b88 <SysTick_Config+0x40>)
 8000b72:	2200      	movs	r2, #0
 8000b74:	609a      	str	r2, [r3, #8]
  SysTick->CTRL  = SysTick_CTRL_CLKSOURCE_Msk |
 8000b76:	4b04      	ldr	r3, [pc, #16]	; (8000b88 <SysTick_Config+0x40>)
 8000b78:	2207      	movs	r2, #7
 8000b7a:	601a      	str	r2, [r3, #0]
                   SysTick_CTRL_TICKINT_Msk   |
                   SysTick_CTRL_ENABLE_Msk;                         /* Enable SysTick IRQ and SysTick Timer */
  return (0UL);                                                     /* Function successful */
 8000b7c:	2300      	movs	r3, #0
}
 8000b7e:	4618      	mov	r0, r3
 8000b80:	3708      	adds	r7, #8
 8000b82:	46bd      	mov	sp, r7
 8000b84:	bd80      	pop	{r7, pc}
 8000b86:	bf00      	nop
 8000b88:	e000e010 	.word	0xe000e010

08000b8c <HAL_NVIC_SetPriorityGrouping>:
  * @note   When the NVIC_PriorityGroup_0 is selected, IRQ pre-emption is no more possible.
  *         The pending IRQ priority will be managed only by the subpriority.
  * @retval None
  */
void HAL_NVIC_SetPriorityGrouping(uint32_t PriorityGroup)
{
 8000b8c:	b580      	push	{r7, lr}
 8000b8e:	b082      	sub	sp, #8
 8000b90:	af00      	add	r7, sp, #0
 8000b92:	6078      	str	r0, [r7, #4]
  /* Check the parameters */
  assert_param(IS_NVIC_PRIORITY_GROUP(PriorityGroup));

  /* Set the PRIGROUP[10:8] bits according to the PriorityGroup parameter value */
  NVIC_SetPriorityGrouping(PriorityGroup);
 8000b94:	6878      	ldr	r0, [r7, #4]
 8000b96:	f7ff ff47 	bl	8000a28 <__NVIC_SetPriorityGrouping>
}
 8000b9a:	bf00      	nop
 8000b9c:	3708      	adds	r7, #8
 8000b9e:	46bd      	mov	sp, r7
 8000ba0:	bd80      	pop	{r7, pc}

08000ba2 <HAL_NVIC_SetPriority>:
  *         This parameter can be a value between 0 and 15
  *         A lower priority value indicates a higher priority.
  * @retval None
  */
void HAL_NVIC_SetPriority(IRQn_Type IRQn, uint32_t PreemptPriority, uint32_t SubPriority)
{
 8000ba2:	b580      	push	{r7, lr}
 8000ba4:	b086      	sub	sp, #24
 8000ba6:	af00      	add	r7, sp, #0
 8000ba8:	4603      	mov	r3, r0
 8000baa:	60b9      	str	r1, [r7, #8]
 8000bac:	607a      	str	r2, [r7, #4]
 8000bae:	73fb      	strb	r3, [r7, #15]

  /* Check the parameters */
  assert_param(IS_NVIC_SUB_PRIORITY(SubPriority));
  assert_param(IS_NVIC_PREEMPTION_PRIORITY(PreemptPriority));

  prioritygroup = NVIC_GetPriorityGrouping();
 8000bb0:	f7ff ff5e 	bl	8000a70 <__NVIC_GetPriorityGrouping>
 8000bb4:	6178      	str	r0, [r7, #20]

  NVIC_SetPriority(IRQn, NVIC_EncodePriority(prioritygroup, PreemptPriority, SubPriority));
 8000bb6:	687a      	ldr	r2, [r7, #4]
 8000bb8:	68b9      	ldr	r1, [r7, #8]
 8000bba:	6978      	ldr	r0, [r7, #20]
 8000bbc:	f7ff ff90 	bl	8000ae0 <NVIC_EncodePriority>
 8000bc0:	4602      	mov	r2, r0
 8000bc2:	f997 300f 	ldrsb.w	r3, [r7, #15]
 8000bc6:	4611      	mov	r1, r2
 8000bc8:	4618      	mov	r0, r3
 8000bca:	f7ff ff5f 	bl	8000a8c <__NVIC_SetPriority>
}
 8000bce:	bf00      	nop
 8000bd0:	3718      	adds	r7, #24
 8000bd2:	46bd      	mov	sp, r7
 8000bd4:	bd80      	pop	{r7, pc}

08000bd6 <HAL_SYSTICK_Config>:
  * @param  TicksNumb: Specifies the ticks Number of ticks between two interrupts.
  * @retval status:  - 0  Function succeeded.
  *                  - 1  Function failed.
  */
uint32_t HAL_SYSTICK_Config(uint32_t TicksNumb)
{
 8000bd6:	b580      	push	{r7, lr}
 8000bd8:	b082      	sub	sp, #8
 8000bda:	af00      	add	r7, sp, #0
 8000bdc:	6078      	str	r0, [r7, #4]
  return SysTick_Config(TicksNumb);
 8000bde:	6878      	ldr	r0, [r7, #4]
 8000be0:	f7ff ffb2 	bl	8000b48 <SysTick_Config>
 8000be4:	4603      	mov	r3, r0
}
 8000be6:	4618      	mov	r0, r3
 8000be8:	3708      	adds	r7, #8
 8000bea:	46bd      	mov	sp, r7
 8000bec:	bd80      	pop	{r7, pc}
	...

08000bf0 <HAL_CRYP_Init>:
  * @param  hcryp pointer to a CRYP_HandleTypeDef structure that contains
  *         the configuration information for CRYP module
  * @retval HAL status
  */
HAL_StatusTypeDef HAL_CRYP_Init(CRYP_HandleTypeDef *hcryp)
{
 8000bf0:	b580      	push	{r7, lr}
 8000bf2:	b084      	sub	sp, #16
 8000bf4:	af00      	add	r7, sp, #0
 8000bf6:	6078      	str	r0, [r7, #4]
#if defined(SAES)
  uint32_t tickstart;
#endif /* SAES */

  /* Check the CRYP handle allocation */
  if (hcryp == NULL)
 8000bf8:	687b      	ldr	r3, [r7, #4]
 8000bfa:	2b00      	cmp	r3, #0
 8000bfc:	d101      	bne.n	8000c02 <HAL_CRYP_Init+0x12>
  {
    return HAL_ERROR;
 8000bfe:	2301      	movs	r3, #1
 8000c00:	e0a7      	b.n	8000d52 <HAL_CRYP_Init+0x162>

    /* Init the low level hardware */
    hcryp->MspInitCallback(hcryp);
  }
#else
  if (hcryp->State == HAL_CRYP_STATE_RESET)
 8000c02:	687b      	ldr	r3, [r7, #4]
 8000c04:	f893 3059 	ldrb.w	r3, [r3, #89]	; 0x59
 8000c08:	b2db      	uxtb	r3, r3
 8000c0a:	2b00      	cmp	r3, #0
 8000c0c:	d106      	bne.n	8000c1c <HAL_CRYP_Init+0x2c>
  {
    /* Allocate lock resource and initialize it */
    hcryp->Lock = HAL_UNLOCKED;
 8000c0e:	687b      	ldr	r3, [r7, #4]
 8000c10:	2200      	movs	r2, #0
 8000c12:	f883 2058 	strb.w	r2, [r3, #88]	; 0x58

    /* Init the low level hardware */
    HAL_CRYP_MspInit(hcryp);
 8000c16:	6878      	ldr	r0, [r7, #4]
 8000c18:	f7ff fd30 	bl	800067c <HAL_CRYP_MspInit>
  }
#endif /* (USE_HAL_CRYP_REGISTER_CALLBACKS) */

  if (hcryp->Instance == AES)
 8000c1c:	687b      	ldr	r3, [r7, #4]
 8000c1e:	681b      	ldr	r3, [r3, #0]
 8000c20:	4a4e      	ldr	r2, [pc, #312]	; (8000d5c <HAL_CRYP_Init+0x16c>)
 8000c22:	4293      	cmp	r3, r2
 8000c24:	d116      	bne.n	8000c54 <HAL_CRYP_Init+0x64>
  {
    /* Set the key size, data type and Algorithm */
    cr_value = (uint32_t)(hcryp->Init.DataType | hcryp->Init.KeySize | hcryp->Init.Algorithm | hcryp->Init.KeyMode);
 8000c26:	687b      	ldr	r3, [r7, #4]
 8000c28:	685a      	ldr	r2, [r3, #4]
 8000c2a:	687b      	ldr	r3, [r7, #4]
 8000c2c:	689b      	ldr	r3, [r3, #8]
 8000c2e:	431a      	orrs	r2, r3
 8000c30:	687b      	ldr	r3, [r7, #4]
 8000c32:	695b      	ldr	r3, [r3, #20]
 8000c34:	431a      	orrs	r2, r3
 8000c36:	687b      	ldr	r3, [r7, #4]
 8000c38:	6b1b      	ldr	r3, [r3, #48]	; 0x30
 8000c3a:	4313      	orrs	r3, r2
 8000c3c:	60bb      	str	r3, [r7, #8]
    /* Set the key size, data type, algorithm and mode */
    MODIFY_REG(hcryp->Instance->CR, AES_CR_KMOD | AES_CR_DATATYPE | AES_CR_KEYSIZE | AES_CR_CHMOD, cr_value);
 8000c3e:	687b      	ldr	r3, [r7, #4]
 8000c40:	681b      	ldr	r3, [r3, #0]
 8000c42:	681a      	ldr	r2, [r3, #0]
 8000c44:	4b46      	ldr	r3, [pc, #280]	; (8000d60 <HAL_CRYP_Init+0x170>)
 8000c46:	4013      	ands	r3, r2
 8000c48:	687a      	ldr	r2, [r7, #4]
 8000c4a:	6812      	ldr	r2, [r2, #0]
 8000c4c:	68b9      	ldr	r1, [r7, #8]
 8000c4e:	430b      	orrs	r3, r1
 8000c50:	6013      	str	r3, [r2, #0]
 8000c52:	e070      	b.n	8000d36 <HAL_CRYP_Init+0x146>
  }
  else
  {
    /* SAES is initializing, fetching random number from the RNG */
    tickstart = HAL_GetTick();
 8000c54:	f7ff feb8 	bl	80009c8 <HAL_GetTick>
 8000c58:	60f8      	str	r0, [r7, #12]
    while (HAL_IS_BIT_SET(hcryp->Instance->SR, CRYP_FLAG_BUSY))
 8000c5a:	e01e      	b.n	8000c9a <HAL_CRYP_Init+0xaa>
    {
      /* Check for the Timeout */
      if ((HAL_GetTick() - tickstart) > CRYP_GENERAL_TIMEOUT)
 8000c5c:	f7ff feb4 	bl	80009c8 <HAL_GetTick>
 8000c60:	4602      	mov	r2, r0
 8000c62:	68fb      	ldr	r3, [r7, #12]
 8000c64:	1ad3      	subs	r3, r2, r3
 8000c66:	2b52      	cmp	r3, #82	; 0x52
 8000c68:	d917      	bls.n	8000c9a <HAL_CRYP_Init+0xaa>
      {
        __HAL_CRYP_DISABLE(hcryp);
 8000c6a:	687b      	ldr	r3, [r7, #4]
 8000c6c:	681b      	ldr	r3, [r3, #0]
 8000c6e:	681a      	ldr	r2, [r3, #0]
 8000c70:	687b      	ldr	r3, [r7, #4]
 8000c72:	681b      	ldr	r3, [r3, #0]
 8000c74:	f022 0201 	bic.w	r2, r2, #1
 8000c78:	601a      	str	r2, [r3, #0]
        hcryp->ErrorCode |= HAL_CRYP_ERROR_TIMEOUT;
 8000c7a:	687b      	ldr	r3, [r7, #4]
 8000c7c:	6ddb      	ldr	r3, [r3, #92]	; 0x5c
 8000c7e:	f043 0210 	orr.w	r2, r3, #16
 8000c82:	687b      	ldr	r3, [r7, #4]
 8000c84:	65da      	str	r2, [r3, #92]	; 0x5c
        hcryp->State = HAL_CRYP_STATE_READY;
 8000c86:	687b      	ldr	r3, [r7, #4]
 8000c88:	2201      	movs	r2, #1
 8000c8a:	f883 2059 	strb.w	r2, [r3, #89]	; 0x59
        __HAL_UNLOCK(hcryp);
 8000c8e:	687b      	ldr	r3, [r7, #4]
 8000c90:	2200      	movs	r2, #0
 8000c92:	f883 2058 	strb.w	r2, [r3, #88]	; 0x58
        return HAL_ERROR;
 8000c96:	2301      	movs	r3, #1
 8000c98:	e05b      	b.n	8000d52 <HAL_CRYP_Init+0x162>
    while (HAL_IS_BIT_SET(hcryp->Instance->SR, CRYP_FLAG_BUSY))
 8000c9a:	687b      	ldr	r3, [r7, #4]
 8000c9c:	681b      	ldr	r3, [r3, #0]
 8000c9e:	685b      	ldr	r3, [r3, #4]
 8000ca0:	f003 0308 	and.w	r3, r3, #8
 8000ca4:	2b08      	cmp	r3, #8
 8000ca6:	d0d9      	beq.n	8000c5c <HAL_CRYP_Init+0x6c>
      }
    }
    /* SAES is initializing, no random number fetching error flagged */
    tickstart = HAL_GetTick();
 8000ca8:	f7ff fe8e 	bl	80009c8 <HAL_GetTick>
 8000cac:	60f8      	str	r0, [r7, #12]
    while (HAL_IS_BIT_SET(hcryp->Instance->ISR, CRYP_FLAG_RNGEIF))
 8000cae:	e01e      	b.n	8000cee <HAL_CRYP_Init+0xfe>
    {
      /* Check for the Timeout */
      if ((HAL_GetTick() - tickstart) > CRYP_GENERAL_TIMEOUT)
 8000cb0:	f7ff fe8a 	bl	80009c8 <HAL_GetTick>
 8000cb4:	4602      	mov	r2, r0
 8000cb6:	68fb      	ldr	r3, [r7, #12]
 8000cb8:	1ad3      	subs	r3, r2, r3
 8000cba:	2b52      	cmp	r3, #82	; 0x52
 8000cbc:	d917      	bls.n	8000cee <HAL_CRYP_Init+0xfe>
      {
        __HAL_CRYP_DISABLE(hcryp);
 8000cbe:	687b      	ldr	r3, [r7, #4]
 8000cc0:	681b      	ldr	r3, [r3, #0]
 8000cc2:	681a      	ldr	r2, [r3, #0]
 8000cc4:	687b      	ldr	r3, [r7, #4]
 8000cc6:	681b      	ldr	r3, [r3, #0]
 8000cc8:	f022 0201 	bic.w	r2, r2, #1
 8000ccc:	601a      	str	r2, [r3, #0]
        hcryp->ErrorCode |= HAL_CRYP_ERROR_RNG;
 8000cce:	687b      	ldr	r3, [r7, #4]
 8000cd0:	6ddb      	ldr	r3, [r3, #92]	; 0x5c
 8000cd2:	f443 7200 	orr.w	r2, r3, #512	; 0x200
 8000cd6:	687b      	ldr	r3, [r7, #4]
 8000cd8:	65da      	str	r2, [r3, #92]	; 0x5c
        hcryp->State = HAL_CRYP_STATE_READY;
 8000cda:	687b      	ldr	r3, [r7, #4]
 8000cdc:	2201      	movs	r2, #1
 8000cde:	f883 2059 	strb.w	r2, [r3, #89]	; 0x59
        __HAL_UNLOCK(hcryp);
 8000ce2:	687b      	ldr	r3, [r7, #4]
 8000ce4:	2200      	movs	r2, #0
 8000ce6:	f883 2058 	strb.w	r2, [r3, #88]	; 0x58
        return HAL_ERROR;
 8000cea:	2301      	movs	r3, #1
 8000cec:	e031      	b.n	8000d52 <HAL_CRYP_Init+0x162>
    while (HAL_IS_BIT_SET(hcryp->Instance->ISR, CRYP_FLAG_RNGEIF))
 8000cee:	687b      	ldr	r3, [r7, #4]
 8000cf0:	681b      	ldr	r3, [r3, #0]
 8000cf2:	f8d3 3304 	ldr.w	r3, [r3, #772]	; 0x304
 8000cf6:	f003 0308 	and.w	r3, r3, #8
 8000cfa:	2b08      	cmp	r3, #8
 8000cfc:	d0d8      	beq.n	8000cb0 <HAL_CRYP_Init+0xc0>
      }
    }
    cr_value = (uint32_t)(hcryp->Init.KeyMode | hcryp->Init.DataType | hcryp->Init.KeySize | \
 8000cfe:	687b      	ldr	r3, [r7, #4]
 8000d00:	6b1a      	ldr	r2, [r3, #48]	; 0x30
 8000d02:	687b      	ldr	r3, [r7, #4]
 8000d04:	685b      	ldr	r3, [r3, #4]
 8000d06:	431a      	orrs	r2, r3
 8000d08:	687b      	ldr	r3, [r7, #4]
 8000d0a:	689b      	ldr	r3, [r3, #8]
 8000d0c:	431a      	orrs	r2, r3
                          hcryp->Init.Algorithm | hcryp->Init.KeySelect | hcryp->Init.KeyProtection);
 8000d0e:	687b      	ldr	r3, [r7, #4]
 8000d10:	695b      	ldr	r3, [r3, #20]
    cr_value = (uint32_t)(hcryp->Init.KeyMode | hcryp->Init.DataType | hcryp->Init.KeySize | \
 8000d12:	431a      	orrs	r2, r3
                          hcryp->Init.Algorithm | hcryp->Init.KeySelect | hcryp->Init.KeyProtection);
 8000d14:	687b      	ldr	r3, [r7, #4]
 8000d16:	6b5b      	ldr	r3, [r3, #52]	; 0x34
 8000d18:	431a      	orrs	r2, r3
 8000d1a:	687b      	ldr	r3, [r7, #4]
 8000d1c:	6b9b      	ldr	r3, [r3, #56]	; 0x38
    cr_value = (uint32_t)(hcryp->Init.KeyMode | hcryp->Init.DataType | hcryp->Init.KeySize | \
 8000d1e:	4313      	orrs	r3, r2
 8000d20:	60bb      	str	r3, [r7, #8]
    /* Set the key size, data type, algorithm, Key selection and key protection */
    MODIFY_REG(hcryp->Instance->CR, AES_CR_KMOD | AES_CR_DATATYPE | AES_CR_KEYSIZE | AES_CR_CHMOD | AES_CR_KEYSEL |
 8000d22:	687b      	ldr	r3, [r7, #4]
 8000d24:	681b      	ldr	r3, [r3, #0]
 8000d26:	681a      	ldr	r2, [r3, #0]
 8000d28:	4b0e      	ldr	r3, [pc, #56]	; (8000d64 <HAL_CRYP_Init+0x174>)
 8000d2a:	4013      	ands	r3, r2
 8000d2c:	687a      	ldr	r2, [r7, #4]
 8000d2e:	6812      	ldr	r2, [r2, #0]
 8000d30:	68b9      	ldr	r1, [r7, #8]
 8000d32:	430b      	orrs	r3, r1
 8000d34:	6013      	str	r3, [r2, #0]
               AES_CR_KEYPROT, cr_value);
  }
  /* Reset Error Code field */
  hcryp->ErrorCode = HAL_CRYP_ERROR_NONE;
 8000d36:	687b      	ldr	r3, [r7, #4]
 8000d38:	2200      	movs	r2, #0
 8000d3a:	65da      	str	r2, [r3, #92]	; 0x5c

  /* Reset peripheral Key and IV configuration flag */
  hcryp->KeyIVConfig = 0U;
 8000d3c:	687b      	ldr	r3, [r7, #4]
 8000d3e:	2200      	movs	r2, #0
 8000d40:	661a      	str	r2, [r3, #96]	; 0x60

  /* Change the CRYP state */
  hcryp->State = HAL_CRYP_STATE_READY;
 8000d42:	687b      	ldr	r3, [r7, #4]
 8000d44:	2201      	movs	r2, #1
 8000d46:	f883 2059 	strb.w	r2, [r3, #89]	; 0x59

  /* Set the default CRYP phase */
  hcryp->Phase = CRYP_PHASE_READY;
 8000d4a:	687b      	ldr	r3, [r7, #4]
 8000d4c:	2201      	movs	r2, #1
 8000d4e:	64da      	str	r2, [r3, #76]	; 0x4c

  return HAL_OK;
 8000d50:	2300      	movs	r3, #0
}
 8000d52:	4618      	mov	r0, r3
 8000d54:	3710      	adds	r7, #16
 8000d56:	46bd      	mov	sp, r7
 8000d58:	bd80      	pop	{r7, pc}
 8000d5a:	bf00      	nop
 8000d5c:	420c0000 	.word	0x420c0000
 8000d60:	fcfaff99 	.word	0xfcfaff99
 8000d64:	8cf2ff99 	.word	0x8cf2ff99

08000d68 <HAL_CRYP_SetConfig>:
  * @param  pConf pointer to a CRYP_ConfigTypeDef structure that contains
  *         the configuration information for CRYP module
  * @retval HAL status
  */
HAL_StatusTypeDef HAL_CRYP_SetConfig(CRYP_HandleTypeDef *hcryp, CRYP_ConfigTypeDef *pConf)
{
 8000d68:	b480      	push	{r7}
 8000d6a:	b083      	sub	sp, #12
 8000d6c:	af00      	add	r7, sp, #0
 8000d6e:	6078      	str	r0, [r7, #4]
 8000d70:	6039      	str	r1, [r7, #0]
  /* Check the CRYP handle allocation */
  if ((hcryp == NULL) || (pConf == NULL))
 8000d72:	687b      	ldr	r3, [r7, #4]
 8000d74:	2b00      	cmp	r3, #0
 8000d76:	d002      	beq.n	8000d7e <HAL_CRYP_SetConfig+0x16>
 8000d78:	683b      	ldr	r3, [r7, #0]
 8000d7a:	2b00      	cmp	r3, #0
 8000d7c:	d101      	bne.n	8000d82 <HAL_CRYP_SetConfig+0x1a>
  {
    return HAL_ERROR;
 8000d7e:	2301      	movs	r3, #1
 8000d80:	e0c5      	b.n	8000f0e <HAL_CRYP_SetConfig+0x1a6>
  /* Check parameters */
  assert_param(IS_CRYP_KEYSIZE(pConf->KeySize));
  assert_param(IS_CRYP_DATATYPE(pConf->DataType));
  assert_param(IS_CRYP_ALGORITHM(pConf->Algorithm));

  if (hcryp->State == HAL_CRYP_STATE_READY)
 8000d82:	687b      	ldr	r3, [r7, #4]
 8000d84:	f893 3059 	ldrb.w	r3, [r3, #89]	; 0x59
 8000d88:	b2db      	uxtb	r3, r3
 8000d8a:	2b01      	cmp	r3, #1
 8000d8c:	f040 80b8 	bne.w	8000f00 <HAL_CRYP_SetConfig+0x198>
  {
    /* Change the CRYP state */
    hcryp->State = HAL_CRYP_STATE_BUSY;
 8000d90:	687b      	ldr	r3, [r7, #4]
 8000d92:	2202      	movs	r2, #2
 8000d94:	f883 2059 	strb.w	r2, [r3, #89]	; 0x59
    __HAL_LOCK(hcryp);
 8000d98:	687b      	ldr	r3, [r7, #4]
 8000d9a:	f893 3058 	ldrb.w	r3, [r3, #88]	; 0x58
 8000d9e:	2b01      	cmp	r3, #1
 8000da0:	d101      	bne.n	8000da6 <HAL_CRYP_SetConfig+0x3e>
 8000da2:	2302      	movs	r3, #2
 8000da4:	e0b3      	b.n	8000f0e <HAL_CRYP_SetConfig+0x1a6>
 8000da6:	687b      	ldr	r3, [r7, #4]
 8000da8:	2201      	movs	r2, #1
 8000daa:	f883 2058 	strb.w	r2, [r3, #88]	; 0x58

    /* Set CRYP parameters */
    hcryp->Init.DataType   = pConf->DataType;
 8000dae:	683b      	ldr	r3, [r7, #0]
 8000db0:	681a      	ldr	r2, [r3, #0]
 8000db2:	687b      	ldr	r3, [r7, #4]
 8000db4:	605a      	str	r2, [r3, #4]
    hcryp->Init.pKey       = pConf->pKey;
 8000db6:	683b      	ldr	r3, [r7, #0]
 8000db8:	689a      	ldr	r2, [r3, #8]
 8000dba:	687b      	ldr	r3, [r7, #4]
 8000dbc:	60da      	str	r2, [r3, #12]
    hcryp->Init.Algorithm  = pConf->Algorithm;
 8000dbe:	683b      	ldr	r3, [r7, #0]
 8000dc0:	691a      	ldr	r2, [r3, #16]
 8000dc2:	687b      	ldr	r3, [r7, #4]
 8000dc4:	615a      	str	r2, [r3, #20]
    hcryp->Init.KeySize    = pConf->KeySize;
 8000dc6:	683b      	ldr	r3, [r7, #0]
 8000dc8:	685a      	ldr	r2, [r3, #4]
 8000dca:	687b      	ldr	r3, [r7, #4]
 8000dcc:	609a      	str	r2, [r3, #8]
    hcryp->Init.pInitVect  = pConf->pInitVect;
 8000dce:	683b      	ldr	r3, [r7, #0]
 8000dd0:	68da      	ldr	r2, [r3, #12]
 8000dd2:	687b      	ldr	r3, [r7, #4]
 8000dd4:	611a      	str	r2, [r3, #16]
    hcryp->Init.Header     = pConf->Header;
 8000dd6:	683b      	ldr	r3, [r7, #0]
 8000dd8:	695a      	ldr	r2, [r3, #20]
 8000dda:	687b      	ldr	r3, [r7, #4]
 8000ddc:	619a      	str	r2, [r3, #24]
    hcryp->Init.HeaderSize = pConf->HeaderSize;
 8000dde:	683b      	ldr	r3, [r7, #0]
 8000de0:	699a      	ldr	r2, [r3, #24]
 8000de2:	687b      	ldr	r3, [r7, #4]
 8000de4:	61da      	str	r2, [r3, #28]
    hcryp->Init.B0         = pConf->B0;
 8000de6:	683b      	ldr	r3, [r7, #0]
 8000de8:	69da      	ldr	r2, [r3, #28]
 8000dea:	687b      	ldr	r3, [r7, #4]
 8000dec:	621a      	str	r2, [r3, #32]
    hcryp->Init.DataWidthUnit = pConf->DataWidthUnit;
 8000dee:	683b      	ldr	r3, [r7, #0]
 8000df0:	6a1a      	ldr	r2, [r3, #32]
 8000df2:	687b      	ldr	r3, [r7, #4]
 8000df4:	625a      	str	r2, [r3, #36]	; 0x24
    hcryp->Init.KeyMode = pConf->KeyMode;
 8000df6:	683b      	ldr	r3, [r7, #0]
 8000df8:	6ada      	ldr	r2, [r3, #44]	; 0x2c
 8000dfa:	687b      	ldr	r3, [r7, #4]
 8000dfc:	631a      	str	r2, [r3, #48]	; 0x30
    hcryp->Init.HeaderWidthUnit = pConf->HeaderWidthUnit;
 8000dfe:	683b      	ldr	r3, [r7, #0]
 8000e00:	6a5a      	ldr	r2, [r3, #36]	; 0x24
 8000e02:	687b      	ldr	r3, [r7, #4]
 8000e04:	629a      	str	r2, [r3, #40]	; 0x28
    hcryp->Init.KeyIVConfigSkip = pConf->KeyIVConfigSkip;
 8000e06:	683b      	ldr	r3, [r7, #0]
 8000e08:	6a9a      	ldr	r2, [r3, #40]	; 0x28
 8000e0a:	687b      	ldr	r3, [r7, #4]
 8000e0c:	62da      	str	r2, [r3, #44]	; 0x2c

    if (hcryp->Instance == AES)
 8000e0e:	687b      	ldr	r3, [r7, #4]
 8000e10:	681b      	ldr	r3, [r3, #0]
 8000e12:	4a42      	ldr	r2, [pc, #264]	; (8000f1c <HAL_CRYP_SetConfig+0x1b4>)
 8000e14:	4293      	cmp	r3, r2
 8000e16:	d114      	bne.n	8000e42 <HAL_CRYP_SetConfig+0xda>
    {
      /* Set the key size, data type, AlgoMode and operating mode */
      MODIFY_REG(hcryp->Instance->CR, AES_CR_DATATYPE | AES_CR_KEYSIZE | AES_CR_CHMOD | AES_CR_KMOD,
 8000e18:	687b      	ldr	r3, [r7, #4]
 8000e1a:	681b      	ldr	r3, [r3, #0]
 8000e1c:	681a      	ldr	r2, [r3, #0]
 8000e1e:	4b40      	ldr	r3, [pc, #256]	; (8000f20 <HAL_CRYP_SetConfig+0x1b8>)
 8000e20:	4013      	ands	r3, r2
 8000e22:	687a      	ldr	r2, [r7, #4]
 8000e24:	6851      	ldr	r1, [r2, #4]
 8000e26:	687a      	ldr	r2, [r7, #4]
 8000e28:	6892      	ldr	r2, [r2, #8]
 8000e2a:	4311      	orrs	r1, r2
 8000e2c:	687a      	ldr	r2, [r7, #4]
 8000e2e:	6952      	ldr	r2, [r2, #20]
 8000e30:	4311      	orrs	r1, r2
 8000e32:	687a      	ldr	r2, [r7, #4]
 8000e34:	6b12      	ldr	r2, [r2, #48]	; 0x30
 8000e36:	4311      	orrs	r1, r2
 8000e38:	687a      	ldr	r2, [r7, #4]
 8000e3a:	6812      	ldr	r2, [r2, #0]
 8000e3c:	430b      	orrs	r3, r1
 8000e3e:	6013      	str	r3, [r2, #0]
 8000e40:	e044      	b.n	8000ecc <HAL_CRYP_SetConfig+0x164>
                 hcryp->Init.DataType | hcryp->Init.KeySize | hcryp->Init.Algorithm | hcryp->Init.KeyMode);
    }
    else
    {
      hcryp->Init.KeySelect        = pConf->KeySelect;
 8000e42:	683b      	ldr	r3, [r7, #0]
 8000e44:	6b1a      	ldr	r2, [r3, #48]	; 0x30
 8000e46:	687b      	ldr	r3, [r7, #4]
 8000e48:	635a      	str	r2, [r3, #52]	; 0x34
      hcryp->Init.KeyProtection    = pConf->KeyProtection;
 8000e4a:	683b      	ldr	r3, [r7, #0]
 8000e4c:	6b5a      	ldr	r2, [r3, #52]	; 0x34
 8000e4e:	687b      	ldr	r3, [r7, #4]
 8000e50:	639a      	str	r2, [r3, #56]	; 0x38

      /* In case of HSW, HW or SW key selection, we should specify Key mode selection (SAES_CR_KMOD) */
      if ((hcryp->Init.KeySelect != CRYP_KEYSEL_NORMAL) && (hcryp->Init.KeyMode == CRYP_KEYMODE_WRAPPED))
 8000e52:	687b      	ldr	r3, [r7, #4]
 8000e54:	6b5b      	ldr	r3, [r3, #52]	; 0x34
 8000e56:	2b00      	cmp	r3, #0
 8000e58:	d016      	beq.n	8000e88 <HAL_CRYP_SetConfig+0x120>
 8000e5a:	687b      	ldr	r3, [r7, #4]
 8000e5c:	6b1b      	ldr	r3, [r3, #48]	; 0x30
 8000e5e:	f1b3 7f80 	cmp.w	r3, #16777216	; 0x1000000
 8000e62:	d111      	bne.n	8000e88 <HAL_CRYP_SetConfig+0x120>
      {
        /* Disable AES to change key mode */
        __HAL_CRYP_DISABLE(hcryp);
 8000e64:	687b      	ldr	r3, [r7, #4]
 8000e66:	681b      	ldr	r3, [r3, #0]
 8000e68:	681a      	ldr	r2, [r3, #0]
 8000e6a:	687b      	ldr	r3, [r7, #4]
 8000e6c:	681b      	ldr	r3, [r3, #0]
 8000e6e:	f022 0201 	bic.w	r2, r2, #1
 8000e72:	601a      	str	r2, [r3, #0]
        /* Set key mode selection (Normal, Wrapped or Shared key )*/
        MODIFY_REG(hcryp->Instance->CR, AES_CR_KMOD, CRYP_KEYMODE_WRAPPED);
 8000e74:	687b      	ldr	r3, [r7, #4]
 8000e76:	681b      	ldr	r3, [r3, #0]
 8000e78:	681b      	ldr	r3, [r3, #0]
 8000e7a:	f023 7240 	bic.w	r2, r3, #50331648	; 0x3000000
 8000e7e:	687b      	ldr	r3, [r7, #4]
 8000e80:	681b      	ldr	r3, [r3, #0]
 8000e82:	f042 7280 	orr.w	r2, r2, #16777216	; 0x1000000
 8000e86:	601a      	str	r2, [r3, #0]
      }

      /* Set the key size data type, AlgoMode and operating mode */
      MODIFY_REG(hcryp->Instance->CR, AES_CR_DATATYPE | AES_CR_KEYSIZE | AES_CR_CHMOD | \
 8000e88:	687b      	ldr	r3, [r7, #4]
 8000e8a:	681b      	ldr	r3, [r3, #0]
 8000e8c:	681a      	ldr	r2, [r3, #0]
 8000e8e:	4b25      	ldr	r3, [pc, #148]	; (8000f24 <HAL_CRYP_SetConfig+0x1bc>)
 8000e90:	4013      	ands	r3, r2
 8000e92:	687a      	ldr	r2, [r7, #4]
 8000e94:	6851      	ldr	r1, [r2, #4]
 8000e96:	687a      	ldr	r2, [r7, #4]
 8000e98:	6892      	ldr	r2, [r2, #8]
 8000e9a:	4311      	orrs	r1, r2
 8000e9c:	687a      	ldr	r2, [r7, #4]
 8000e9e:	6952      	ldr	r2, [r2, #20]
 8000ea0:	4311      	orrs	r1, r2
 8000ea2:	687a      	ldr	r2, [r7, #4]
 8000ea4:	6b52      	ldr	r2, [r2, #52]	; 0x34
 8000ea6:	4311      	orrs	r1, r2
 8000ea8:	687a      	ldr	r2, [r7, #4]
 8000eaa:	6b92      	ldr	r2, [r2, #56]	; 0x38
 8000eac:	4311      	orrs	r1, r2
 8000eae:	687a      	ldr	r2, [r7, #4]
 8000eb0:	6b12      	ldr	r2, [r2, #48]	; 0x30
 8000eb2:	4311      	orrs	r1, r2
 8000eb4:	687a      	ldr	r2, [r7, #4]
 8000eb6:	6812      	ldr	r2, [r2, #0]
 8000eb8:	430b      	orrs	r3, r1
 8000eba:	6013      	str	r3, [r2, #0]
                 AES_CR_KEYSEL | AES_CR_KEYPROT | AES_CR_KMOD, hcryp->Init.DataType | hcryp->Init.KeySize | \
                 hcryp->Init.Algorithm | hcryp->Init.KeySelect | hcryp->Init.KeyProtection | hcryp->Init.KeyMode);
      /* Set to 0 the number of non-valid bytes using NPBLB field of CR register*/
      MODIFY_REG(hcryp->Instance->CR, AES_CR_NPBLB, 0U);
 8000ebc:	687b      	ldr	r3, [r7, #4]
 8000ebe:	681b      	ldr	r3, [r3, #0]
 8000ec0:	681a      	ldr	r2, [r3, #0]
 8000ec2:	687b      	ldr	r3, [r7, #4]
 8000ec4:	681b      	ldr	r3, [r3, #0]
 8000ec6:	f422 0270 	bic.w	r2, r2, #15728640	; 0xf00000
 8000eca:	601a      	str	r2, [r3, #0]
    }
    /* Clear error flags */
    __HAL_CRYP_CLEAR_FLAG(hcryp, CRYP_CLEAR_RWEIF);
 8000ecc:	687b      	ldr	r3, [r7, #4]
 8000ece:	681b      	ldr	r3, [r3, #0]
 8000ed0:	f8d3 2308 	ldr.w	r2, [r3, #776]	; 0x308
 8000ed4:	687b      	ldr	r3, [r7, #4]
 8000ed6:	681b      	ldr	r3, [r3, #0]
 8000ed8:	f042 0202 	orr.w	r2, r2, #2
 8000edc:	f8c3 2308 	str.w	r2, [r3, #776]	; 0x308
    __HAL_UNLOCK(hcryp);
 8000ee0:	687b      	ldr	r3, [r7, #4]
 8000ee2:	2200      	movs	r2, #0
 8000ee4:	f883 2058 	strb.w	r2, [r3, #88]	; 0x58

    /* Reset Error Code field */
    hcryp->ErrorCode = HAL_CRYP_ERROR_NONE;
 8000ee8:	687b      	ldr	r3, [r7, #4]
 8000eea:	2200      	movs	r2, #0
 8000eec:	65da      	str	r2, [r3, #92]	; 0x5c

    /* Change the CRYP state */
    hcryp->State = HAL_CRYP_STATE_READY;
 8000eee:	687b      	ldr	r3, [r7, #4]
 8000ef0:	2201      	movs	r2, #1
 8000ef2:	f883 2059 	strb.w	r2, [r3, #89]	; 0x59

    /* Set the default CRYP phase */
    hcryp->Phase = CRYP_PHASE_READY;
 8000ef6:	687b      	ldr	r3, [r7, #4]
 8000ef8:	2201      	movs	r2, #1
 8000efa:	64da      	str	r2, [r3, #76]	; 0x4c

    return HAL_OK;
 8000efc:	2300      	movs	r3, #0
 8000efe:	e006      	b.n	8000f0e <HAL_CRYP_SetConfig+0x1a6>
  }
  else
  {
    /* Busy error code field */
    hcryp->ErrorCode |= HAL_CRYP_ERROR_BUSY;
 8000f00:	687b      	ldr	r3, [r7, #4]
 8000f02:	6ddb      	ldr	r3, [r3, #92]	; 0x5c
 8000f04:	f043 0208 	orr.w	r2, r3, #8
 8000f08:	687b      	ldr	r3, [r7, #4]
 8000f0a:	65da      	str	r2, [r3, #92]	; 0x5c
    return HAL_ERROR;
 8000f0c:	2301      	movs	r3, #1
  }
}
 8000f0e:	4618      	mov	r0, r3
 8000f10:	370c      	adds	r7, #12
 8000f12:	46bd      	mov	sp, r7
 8000f14:	f85d 7b04 	ldr.w	r7, [sp], #4
 8000f18:	4770      	bx	lr
 8000f1a:	bf00      	nop
 8000f1c:	420c0000 	.word	0x420c0000
 8000f20:	fcfaff99 	.word	0xfcfaff99
 8000f24:	8cf2ff99 	.word	0x8cf2ff99

08000f28 <HAL_CRYP_GetConfig>:
  * @param  hcryp pointer to a CRYP_HandleTypeDef structure that contains
  *         the configuration information for CRYP module
  * @retval HAL status
  */
HAL_StatusTypeDef HAL_CRYP_GetConfig(CRYP_HandleTypeDef *hcryp, CRYP_ConfigTypeDef *pConf)
{
 8000f28:	b480      	push	{r7}
 8000f2a:	b083      	sub	sp, #12
 8000f2c:	af00      	add	r7, sp, #0
 8000f2e:	6078      	str	r0, [r7, #4]
 8000f30:	6039      	str	r1, [r7, #0]
  /* Check the CRYP handle allocation */
  if ((hcryp == NULL) || (pConf == NULL))
 8000f32:	687b      	ldr	r3, [r7, #4]
 8000f34:	2b00      	cmp	r3, #0
 8000f36:	d002      	beq.n	8000f3e <HAL_CRYP_GetConfig+0x16>
 8000f38:	683b      	ldr	r3, [r7, #0]
 8000f3a:	2b00      	cmp	r3, #0
 8000f3c:	d101      	bne.n	8000f42 <HAL_CRYP_GetConfig+0x1a>
  {
    return HAL_ERROR;
 8000f3e:	2301      	movs	r3, #1
 8000f40:	e05d      	b.n	8000ffe <HAL_CRYP_GetConfig+0xd6>
  }

  if (hcryp->State == HAL_CRYP_STATE_READY)
 8000f42:	687b      	ldr	r3, [r7, #4]
 8000f44:	f893 3059 	ldrb.w	r3, [r3, #89]	; 0x59
 8000f48:	b2db      	uxtb	r3, r3
 8000f4a:	2b01      	cmp	r3, #1
 8000f4c:	d150      	bne.n	8000ff0 <HAL_CRYP_GetConfig+0xc8>
  {
    /* Change the CRYP state */
    hcryp->State = HAL_CRYP_STATE_BUSY;
 8000f4e:	687b      	ldr	r3, [r7, #4]
 8000f50:	2202      	movs	r2, #2
 8000f52:	f883 2059 	strb.w	r2, [r3, #89]	; 0x59
    __HAL_LOCK(hcryp);
 8000f56:	687b      	ldr	r3, [r7, #4]
 8000f58:	f893 3058 	ldrb.w	r3, [r3, #88]	; 0x58
 8000f5c:	2b01      	cmp	r3, #1
 8000f5e:	d101      	bne.n	8000f64 <HAL_CRYP_GetConfig+0x3c>
 8000f60:	2302      	movs	r3, #2
 8000f62:	e04c      	b.n	8000ffe <HAL_CRYP_GetConfig+0xd6>
 8000f64:	687b      	ldr	r3, [r7, #4]
 8000f66:	2201      	movs	r2, #1
 8000f68:	f883 2058 	strb.w	r2, [r3, #88]	; 0x58

    /* Get CRYP parameters */
    pConf->DataType        = hcryp->Init.DataType;
 8000f6c:	687b      	ldr	r3, [r7, #4]
 8000f6e:	685a      	ldr	r2, [r3, #4]
 8000f70:	683b      	ldr	r3, [r7, #0]
 8000f72:	601a      	str	r2, [r3, #0]
    pConf->pKey            = hcryp->Init.pKey;
 8000f74:	687b      	ldr	r3, [r7, #4]
 8000f76:	68da      	ldr	r2, [r3, #12]
 8000f78:	683b      	ldr	r3, [r7, #0]
 8000f7a:	609a      	str	r2, [r3, #8]
    pConf->Algorithm       = hcryp->Init.Algorithm;
 8000f7c:	687b      	ldr	r3, [r7, #4]
 8000f7e:	695a      	ldr	r2, [r3, #20]
 8000f80:	683b      	ldr	r3, [r7, #0]
 8000f82:	611a      	str	r2, [r3, #16]
    pConf->KeySize         = hcryp->Init.KeySize;
 8000f84:	687b      	ldr	r3, [r7, #4]
 8000f86:	689a      	ldr	r2, [r3, #8]
 8000f88:	683b      	ldr	r3, [r7, #0]
 8000f8a:	605a      	str	r2, [r3, #4]
    pConf->pInitVect       = hcryp->Init.pInitVect;
 8000f8c:	687b      	ldr	r3, [r7, #4]
 8000f8e:	691a      	ldr	r2, [r3, #16]
 8000f90:	683b      	ldr	r3, [r7, #0]
 8000f92:	60da      	str	r2, [r3, #12]
    pConf->Header          = hcryp->Init.Header;
 8000f94:	687b      	ldr	r3, [r7, #4]
 8000f96:	699a      	ldr	r2, [r3, #24]
 8000f98:	683b      	ldr	r3, [r7, #0]
 8000f9a:	615a      	str	r2, [r3, #20]
    pConf->HeaderSize      = hcryp->Init.HeaderSize;
 8000f9c:	687b      	ldr	r3, [r7, #4]
 8000f9e:	69da      	ldr	r2, [r3, #28]
 8000fa0:	683b      	ldr	r3, [r7, #0]
 8000fa2:	619a      	str	r2, [r3, #24]
    pConf->B0              = hcryp->Init.B0;
 8000fa4:	687b      	ldr	r3, [r7, #4]
 8000fa6:	6a1a      	ldr	r2, [r3, #32]
 8000fa8:	683b      	ldr	r3, [r7, #0]
 8000faa:	61da      	str	r2, [r3, #28]
    pConf->DataWidthUnit   = hcryp->Init.DataWidthUnit;
 8000fac:	687b      	ldr	r3, [r7, #4]
 8000fae:	6a5a      	ldr	r2, [r3, #36]	; 0x24
 8000fb0:	683b      	ldr	r3, [r7, #0]
 8000fb2:	621a      	str	r2, [r3, #32]
    pConf->KeyMode         = hcryp->Init.KeyMode;
 8000fb4:	687b      	ldr	r3, [r7, #4]
 8000fb6:	6b1a      	ldr	r2, [r3, #48]	; 0x30
 8000fb8:	683b      	ldr	r3, [r7, #0]
 8000fba:	62da      	str	r2, [r3, #44]	; 0x2c
    pConf->KeySelect       = hcryp->Init.KeySelect;
 8000fbc:	687b      	ldr	r3, [r7, #4]
 8000fbe:	6b5a      	ldr	r2, [r3, #52]	; 0x34
 8000fc0:	683b      	ldr	r3, [r7, #0]
 8000fc2:	631a      	str	r2, [r3, #48]	; 0x30
    pConf->KeyProtection   = hcryp->Init.KeyProtection;
 8000fc4:	687b      	ldr	r3, [r7, #4]
 8000fc6:	6b9a      	ldr	r2, [r3, #56]	; 0x38
 8000fc8:	683b      	ldr	r3, [r7, #0]
 8000fca:	635a      	str	r2, [r3, #52]	; 0x34
    pConf->KeyIVConfigSkip = hcryp->Init.KeyIVConfigSkip;
 8000fcc:	687b      	ldr	r3, [r7, #4]
 8000fce:	6ada      	ldr	r2, [r3, #44]	; 0x2c
 8000fd0:	683b      	ldr	r3, [r7, #0]
 8000fd2:	629a      	str	r2, [r3, #40]	; 0x28
    pConf->HeaderWidthUnit = hcryp->Init.HeaderWidthUnit;
 8000fd4:	687b      	ldr	r3, [r7, #4]
 8000fd6:	6a9a      	ldr	r2, [r3, #40]	; 0x28
 8000fd8:	683b      	ldr	r3, [r7, #0]
 8000fda:	625a      	str	r2, [r3, #36]	; 0x24

    __HAL_UNLOCK(hcryp);
 8000fdc:	687b      	ldr	r3, [r7, #4]
 8000fde:	2200      	movs	r2, #0
 8000fe0:	f883 2058 	strb.w	r2, [r3, #88]	; 0x58

    /* Change the CRYP state */
    hcryp->State = HAL_CRYP_STATE_READY;
 8000fe4:	687b      	ldr	r3, [r7, #4]
 8000fe6:	2201      	movs	r2, #1
 8000fe8:	f883 2059 	strb.w	r2, [r3, #89]	; 0x59

    return HAL_OK;
 8000fec:	2300      	movs	r3, #0
 8000fee:	e006      	b.n	8000ffe <HAL_CRYP_GetConfig+0xd6>
  }
  else
  {
    /* Busy error code field */
    hcryp->ErrorCode |= HAL_CRYP_ERROR_BUSY;
 8000ff0:	687b      	ldr	r3, [r7, #4]
 8000ff2:	6ddb      	ldr	r3, [r3, #92]	; 0x5c
 8000ff4:	f043 0208 	orr.w	r2, r3, #8
 8000ff8:	687b      	ldr	r3, [r7, #4]
 8000ffa:	65da      	str	r2, [r3, #92]	; 0x5c
    return HAL_ERROR;
 8000ffc:	2301      	movs	r3, #1
  }
}
 8000ffe:	4618      	mov	r0, r3
 8001000:	370c      	adds	r7, #12
 8001002:	46bd      	mov	sp, r7
 8001004:	f85d 7b04 	ldr.w	r7, [sp], #4
 8001008:	4770      	bx	lr
	...

0800100c <HAL_CRYP_Encrypt>:
  * @param  Timeout Specify Timeout value
  * @retval HAL status
  */
HAL_StatusTypeDef HAL_CRYP_Encrypt(CRYP_HandleTypeDef *hcryp, uint32_t *pInput, uint16_t Size, uint32_t *pOutput,
                                   uint32_t Timeout)
{
 800100c:	b580      	push	{r7, lr}
 800100e:	b086      	sub	sp, #24
 8001010:	af00      	add	r7, sp, #0
 8001012:	60f8      	str	r0, [r7, #12]
 8001014:	60b9      	str	r1, [r7, #8]
 8001016:	603b      	str	r3, [r7, #0]
 8001018:	4613      	mov	r3, r2
 800101a:	80fb      	strh	r3, [r7, #6]

  /* Check input buffer size */
  assert_param(IS_CRYP_BUFFERSIZE(algo_assert, hcryp->Init.DataWidthUnit, Size));
#endif /* USE_FULL_ASSERT */

  if (hcryp->State == HAL_CRYP_STATE_READY)
 800101c:	68fb      	ldr	r3, [r7, #12]
 800101e:	f893 3059 	ldrb.w	r3, [r3, #89]	; 0x59
 8001022:	b2db      	uxtb	r3, r3
 8001024:	2b01      	cmp	r3, #1
 8001026:	f040 808e 	bne.w	8001146 <HAL_CRYP_Encrypt+0x13a>
  {
    /* Change state Busy */
    hcryp->State = HAL_CRYP_STATE_BUSY;
 800102a:	68fb      	ldr	r3, [r7, #12]
 800102c:	2202      	movs	r2, #2
 800102e:	f883 2059 	strb.w	r2, [r3, #89]	; 0x59
    __HAL_LOCK(hcryp);
 8001032:	68fb      	ldr	r3, [r7, #12]
 8001034:	f893 3058 	ldrb.w	r3, [r3, #88]	; 0x58
 8001038:	2b01      	cmp	r3, #1
 800103a:	d101      	bne.n	8001040 <HAL_CRYP_Encrypt+0x34>
 800103c:	2302      	movs	r3, #2
 800103e:	e08b      	b.n	8001158 <HAL_CRYP_Encrypt+0x14c>
 8001040:	68fb      	ldr	r3, [r7, #12]
 8001042:	2201      	movs	r2, #1
 8001044:	f883 2058 	strb.w	r2, [r3, #88]	; 0x58

    /* Reset CrypInCount, CrypOutCount and Initialize pCrypInBuffPtr and pCrypOutBuffPtr parameters */
    hcryp->CrypInCount = 0U;
 8001048:	68fb      	ldr	r3, [r7, #12]
 800104a:	2200      	movs	r2, #0
 800104c:	f8a3 2046 	strh.w	r2, [r3, #70]	; 0x46
    hcryp->CrypOutCount = 0U;
 8001050:	68fb      	ldr	r3, [r7, #12]
 8001052:	2200      	movs	r2, #0
 8001054:	f8a3 2048 	strh.w	r2, [r3, #72]	; 0x48
    hcryp->pCrypInBuffPtr = pInput;
 8001058:	68fb      	ldr	r3, [r7, #12]
 800105a:	68ba      	ldr	r2, [r7, #8]
 800105c:	63da      	str	r2, [r3, #60]	; 0x3c
    hcryp->pCrypOutBuffPtr = pOutput;
 800105e:	68fb      	ldr	r3, [r7, #12]
 8001060:	683a      	ldr	r2, [r7, #0]
 8001062:	641a      	str	r2, [r3, #64]	; 0x40

    /* Calculate Size parameter in Byte */
    if (hcryp->Init.DataWidthUnit == CRYP_DATAWIDTHUNIT_WORD)
 8001064:	68fb      	ldr	r3, [r7, #12]
 8001066:	6a5b      	ldr	r3, [r3, #36]	; 0x24
 8001068:	2b00      	cmp	r3, #0
 800106a:	d106      	bne.n	800107a <HAL_CRYP_Encrypt+0x6e>
    {
      hcryp->Size = Size * 4U;
 800106c:	88fb      	ldrh	r3, [r7, #6]
 800106e:	009b      	lsls	r3, r3, #2
 8001070:	b29a      	uxth	r2, r3
 8001072:	68fb      	ldr	r3, [r7, #12]
 8001074:	f8a3 204a 	strh.w	r2, [r3, #74]	; 0x4a
 8001078:	e003      	b.n	8001082 <HAL_CRYP_Encrypt+0x76>
    }
    else
    {
      hcryp->Size = Size;
 800107a:	68fb      	ldr	r3, [r7, #12]
 800107c:	88fa      	ldrh	r2, [r7, #6]
 800107e:	f8a3 204a 	strh.w	r2, [r3, #74]	; 0x4a
    }

    if (hcryp->Instance == AES)
 8001082:	68fb      	ldr	r3, [r7, #12]
 8001084:	681b      	ldr	r3, [r3, #0]
 8001086:	4a36      	ldr	r2, [pc, #216]	; (8001160 <HAL_CRYP_Encrypt+0x154>)
 8001088:	4293      	cmp	r3, r2
 800108a:	d108      	bne.n	800109e <HAL_CRYP_Encrypt+0x92>
    {
      /* Set the operating mode */
      MODIFY_REG(hcryp->Instance->CR, AES_CR_MODE, CRYP_OPERATINGMODE_ENCRYPT);
 800108c:	68fb      	ldr	r3, [r7, #12]
 800108e:	681b      	ldr	r3, [r3, #0]
 8001090:	681a      	ldr	r2, [r3, #0]
 8001092:	68fb      	ldr	r3, [r7, #12]
 8001094:	681b      	ldr	r3, [r3, #0]
 8001096:	f022 0218 	bic.w	r2, r2, #24
 800109a:	601a      	str	r2, [r3, #0]
 800109c:	e009      	b.n	80010b2 <HAL_CRYP_Encrypt+0xa6>
    }
    else
    {
      /* Set the operating mode and normal key selection */
      MODIFY_REG(hcryp->Instance->CR, AES_CR_MODE | AES_CR_KMOD, CRYP_OPERATINGMODE_ENCRYPT | CRYP_KEYMODE_NORMAL);
 800109e:	68fb      	ldr	r3, [r7, #12]
 80010a0:	681b      	ldr	r3, [r3, #0]
 80010a2:	681b      	ldr	r3, [r3, #0]
 80010a4:	68fa      	ldr	r2, [r7, #12]
 80010a6:	6812      	ldr	r2, [r2, #0]
 80010a8:	f023 7340 	bic.w	r3, r3, #50331648	; 0x3000000
 80010ac:	f023 0318 	bic.w	r3, r3, #24
 80010b0:	6013      	str	r3, [r2, #0]
    }
    /* Algo get algorithm selected */
    algo = hcryp->Instance->CR & AES_CR_CHMOD;
 80010b2:	68fb      	ldr	r3, [r7, #12]
 80010b4:	681b      	ldr	r3, [r3, #0]
 80010b6:	681a      	ldr	r2, [r3, #0]
 80010b8:	4b2a      	ldr	r3, [pc, #168]	; (8001164 <HAL_CRYP_Encrypt+0x158>)
 80010ba:	4013      	ands	r3, r2
 80010bc:	613b      	str	r3, [r7, #16]

    switch (algo)
 80010be:	693b      	ldr	r3, [r7, #16]
 80010c0:	f5b3 3f80 	cmp.w	r3, #65536	; 0x10000
 80010c4:	d023      	beq.n	800110e <HAL_CRYP_Encrypt+0x102>
 80010c6:	693b      	ldr	r3, [r7, #16]
 80010c8:	f5b3 3f80 	cmp.w	r3, #65536	; 0x10000
 80010cc:	d826      	bhi.n	800111c <HAL_CRYP_Encrypt+0x110>
 80010ce:	693b      	ldr	r3, [r7, #16]
 80010d0:	2b60      	cmp	r3, #96	; 0x60
 80010d2:	d015      	beq.n	8001100 <HAL_CRYP_Encrypt+0xf4>
 80010d4:	693b      	ldr	r3, [r7, #16]
 80010d6:	2b60      	cmp	r3, #96	; 0x60
 80010d8:	d820      	bhi.n	800111c <HAL_CRYP_Encrypt+0x110>
 80010da:	693b      	ldr	r3, [r7, #16]
 80010dc:	2b40      	cmp	r3, #64	; 0x40
 80010de:	d008      	beq.n	80010f2 <HAL_CRYP_Encrypt+0xe6>
 80010e0:	693b      	ldr	r3, [r7, #16]
 80010e2:	2b40      	cmp	r3, #64	; 0x40
 80010e4:	d81a      	bhi.n	800111c <HAL_CRYP_Encrypt+0x110>
 80010e6:	693b      	ldr	r3, [r7, #16]
 80010e8:	2b00      	cmp	r3, #0
 80010ea:	d002      	beq.n	80010f2 <HAL_CRYP_Encrypt+0xe6>
 80010ec:	693b      	ldr	r3, [r7, #16]
 80010ee:	2b20      	cmp	r3, #32
 80010f0:	d114      	bne.n	800111c <HAL_CRYP_Encrypt+0x110>
    {
      case CRYP_AES_ECB:
      case CRYP_AES_CBC:
      case CRYP_AES_CTR:
        /* AES encryption */
        status = CRYP_AES_Encrypt(hcryp, Timeout);
 80010f2:	6a39      	ldr	r1, [r7, #32]
 80010f4:	68f8      	ldr	r0, [r7, #12]
 80010f6:	f000 f8df 	bl	80012b8 <CRYP_AES_Encrypt>
 80010fa:	4603      	mov	r3, r0
 80010fc:	75fb      	strb	r3, [r7, #23]
        break;
 80010fe:	e016      	b.n	800112e <HAL_CRYP_Encrypt+0x122>

      case CRYP_AES_GCM_GMAC:
        /* AES GCM encryption */
        status = CRYP_AESGCM_Process(hcryp, Timeout);
 8001100:	6a39      	ldr	r1, [r7, #32]
 8001102:	68f8      	ldr	r0, [r7, #12]
 8001104:	f000 fc7f 	bl	8001a06 <CRYP_AESGCM_Process>
 8001108:	4603      	mov	r3, r0
 800110a:	75fb      	strb	r3, [r7, #23]
        break;
 800110c:	e00f      	b.n	800112e <HAL_CRYP_Encrypt+0x122>

      case CRYP_AES_CCM:
        /* AES CCM encryption */
        status = CRYP_AESCCM_Process(hcryp, Timeout);
 800110e:	6a39      	ldr	r1, [r7, #32]
 8001110:	68f8      	ldr	r0, [r7, #12]
 8001112:	f000 fe0d 	bl	8001d30 <CRYP_AESCCM_Process>
 8001116:	4603      	mov	r3, r0
 8001118:	75fb      	strb	r3, [r7, #23]
        break;
 800111a:	e008      	b.n	800112e <HAL_CRYP_Encrypt+0x122>

      default:
        hcryp->ErrorCode |= HAL_CRYP_ERROR_NOT_SUPPORTED;
 800111c:	68fb      	ldr	r3, [r7, #12]
 800111e:	6ddb      	ldr	r3, [r3, #92]	; 0x5c
 8001120:	f043 0220 	orr.w	r2, r3, #32
 8001124:	68fb      	ldr	r3, [r7, #12]
 8001126:	65da      	str	r2, [r3, #92]	; 0x5c
        status = HAL_ERROR;
 8001128:	2301      	movs	r3, #1
 800112a:	75fb      	strb	r3, [r7, #23]
        break;
 800112c:	bf00      	nop
    }

    if (status == HAL_OK)
 800112e:	7dfb      	ldrb	r3, [r7, #23]
 8001130:	2b00      	cmp	r3, #0
 8001132:	d110      	bne.n	8001156 <HAL_CRYP_Encrypt+0x14a>
    {
      /* Change the CRYP peripheral state */
      hcryp->State = HAL_CRYP_STATE_READY;
 8001134:	68fb      	ldr	r3, [r7, #12]
 8001136:	2201      	movs	r2, #1
 8001138:	f883 2059 	strb.w	r2, [r3, #89]	; 0x59
      __HAL_UNLOCK(hcryp);
 800113c:	68fb      	ldr	r3, [r7, #12]
 800113e:	2200      	movs	r2, #0
 8001140:	f883 2058 	strb.w	r2, [r3, #88]	; 0x58
 8001144:	e007      	b.n	8001156 <HAL_CRYP_Encrypt+0x14a>
    }
  }
  else
  {
    /* Busy error code field */
    hcryp->ErrorCode |= HAL_CRYP_ERROR_BUSY;
 8001146:	68fb      	ldr	r3, [r7, #12]
 8001148:	6ddb      	ldr	r3, [r3, #92]	; 0x5c
 800114a:	f043 0208 	orr.w	r2, r3, #8
 800114e:	68fb      	ldr	r3, [r7, #12]
 8001150:	65da      	str	r2, [r3, #92]	; 0x5c
    status = HAL_ERROR;
 8001152:	2301      	movs	r3, #1
 8001154:	75fb      	strb	r3, [r7, #23]
  }
  return status;
 8001156:	7dfb      	ldrb	r3, [r7, #23]
}
 8001158:	4618      	mov	r0, r3
 800115a:	3718      	adds	r7, #24
 800115c:	46bd      	mov	sp, r7
 800115e:	bd80      	pop	{r7, pc}
 8001160:	420c0000 	.word	0x420c0000
 8001164:	00010060 	.word	0x00010060

08001168 <HAL_CRYP_Decrypt>:
  * @param  Timeout Specify Timeout value
  * @retval HAL status
  */
HAL_StatusTypeDef HAL_CRYP_Decrypt(CRYP_HandleTypeDef *hcryp, uint32_t *pInput, uint16_t Size, uint32_t *pOutput,
                                   uint32_t Timeout)
{
 8001168:	b580      	push	{r7, lr}
 800116a:	b086      	sub	sp, #24
 800116c:	af00      	add	r7, sp, #0
 800116e:	60f8      	str	r0, [r7, #12]
 8001170:	60b9      	str	r1, [r7, #8]
 8001172:	603b      	str	r3, [r7, #0]
 8001174:	4613      	mov	r3, r2
 8001176:	80fb      	strh	r3, [r7, #6]

  /* Check input buffer size */
  assert_param(IS_CRYP_BUFFERSIZE(algo_assert, hcryp->Init.DataWidthUnit, Size));
#endif /* USE_FULL_ASSERT */

  if (hcryp->State == HAL_CRYP_STATE_READY)
 8001178:	68fb      	ldr	r3, [r7, #12]
 800117a:	f893 3059 	ldrb.w	r3, [r3, #89]	; 0x59
 800117e:	b2db      	uxtb	r3, r3
 8001180:	2b01      	cmp	r3, #1
 8001182:	d17f      	bne.n	8001284 <HAL_CRYP_Decrypt+0x11c>
  {
    /* Change state Busy */
    hcryp->State = HAL_CRYP_STATE_BUSY;
 8001184:	68fb      	ldr	r3, [r7, #12]
 8001186:	2202      	movs	r2, #2
 8001188:	f883 2059 	strb.w	r2, [r3, #89]	; 0x59
    __HAL_LOCK(hcryp);
 800118c:	68fb      	ldr	r3, [r7, #12]
 800118e:	f893 3058 	ldrb.w	r3, [r3, #88]	; 0x58
 8001192:	2b01      	cmp	r3, #1
 8001194:	d101      	bne.n	800119a <HAL_CRYP_Decrypt+0x32>
 8001196:	2302      	movs	r3, #2
 8001198:	e07d      	b.n	8001296 <HAL_CRYP_Decrypt+0x12e>
 800119a:	68fb      	ldr	r3, [r7, #12]
 800119c:	2201      	movs	r2, #1
 800119e:	f883 2058 	strb.w	r2, [r3, #88]	; 0x58

    /*  Reset CrypInCount, CrypOutCount and Initialize pCrypInBuffPtr and pCrypOutBuffPtr  parameters*/
    hcryp->CrypInCount = 0U;
 80011a2:	68fb      	ldr	r3, [r7, #12]
 80011a4:	2200      	movs	r2, #0
 80011a6:	f8a3 2046 	strh.w	r2, [r3, #70]	; 0x46
    hcryp->CrypOutCount = 0U;
 80011aa:	68fb      	ldr	r3, [r7, #12]
 80011ac:	2200      	movs	r2, #0
 80011ae:	f8a3 2048 	strh.w	r2, [r3, #72]	; 0x48
    hcryp->pCrypInBuffPtr = pInput;
 80011b2:	68fb      	ldr	r3, [r7, #12]
 80011b4:	68ba      	ldr	r2, [r7, #8]
 80011b6:	63da      	str	r2, [r3, #60]	; 0x3c
    hcryp->pCrypOutBuffPtr = pOutput;
 80011b8:	68fb      	ldr	r3, [r7, #12]
 80011ba:	683a      	ldr	r2, [r7, #0]
 80011bc:	641a      	str	r2, [r3, #64]	; 0x40

    /*  Calculate Size parameter in Byte*/
    if (hcryp->Init.DataWidthUnit == CRYP_DATAWIDTHUNIT_WORD)
 80011be:	68fb      	ldr	r3, [r7, #12]
 80011c0:	6a5b      	ldr	r3, [r3, #36]	; 0x24
 80011c2:	2b00      	cmp	r3, #0
 80011c4:	d106      	bne.n	80011d4 <HAL_CRYP_Decrypt+0x6c>
    {
      hcryp->Size = Size * 4U;
 80011c6:	88fb      	ldrh	r3, [r7, #6]
 80011c8:	009b      	lsls	r3, r3, #2
 80011ca:	b29a      	uxth	r2, r3
 80011cc:	68fb      	ldr	r3, [r7, #12]
 80011ce:	f8a3 204a 	strh.w	r2, [r3, #74]	; 0x4a
 80011d2:	e003      	b.n	80011dc <HAL_CRYP_Decrypt+0x74>
    }
    else
    {
      hcryp->Size = Size;
 80011d4:	68fb      	ldr	r3, [r7, #12]
 80011d6:	88fa      	ldrh	r2, [r7, #6]
 80011d8:	f8a3 204a 	strh.w	r2, [r3, #74]	; 0x4a
    }

    /* Set Decryption operating mode*/
    MODIFY_REG(hcryp->Instance->CR, AES_CR_MODE, CRYP_OPERATINGMODE_DECRYPT);
 80011dc:	68fb      	ldr	r3, [r7, #12]
 80011de:	681b      	ldr	r3, [r3, #0]
 80011e0:	681b      	ldr	r3, [r3, #0]
 80011e2:	f023 0218 	bic.w	r2, r3, #24
 80011e6:	68fb      	ldr	r3, [r7, #12]
 80011e8:	681b      	ldr	r3, [r3, #0]
 80011ea:	f042 0210 	orr.w	r2, r2, #16
 80011ee:	601a      	str	r2, [r3, #0]

    /* algo get algorithm selected */
    algo = hcryp->Instance->CR & AES_CR_CHMOD;
 80011f0:	68fb      	ldr	r3, [r7, #12]
 80011f2:	681b      	ldr	r3, [r3, #0]
 80011f4:	681a      	ldr	r2, [r3, #0]
 80011f6:	4b2a      	ldr	r3, [pc, #168]	; (80012a0 <HAL_CRYP_Decrypt+0x138>)
 80011f8:	4013      	ands	r3, r2
 80011fa:	613b      	str	r3, [r7, #16]

    switch (algo)
 80011fc:	693b      	ldr	r3, [r7, #16]
 80011fe:	f5b3 3f80 	cmp.w	r3, #65536	; 0x10000
 8001202:	d023      	beq.n	800124c <HAL_CRYP_Decrypt+0xe4>
 8001204:	693b      	ldr	r3, [r7, #16]
 8001206:	f5b3 3f80 	cmp.w	r3, #65536	; 0x10000
 800120a:	d826      	bhi.n	800125a <HAL_CRYP_Decrypt+0xf2>
 800120c:	693b      	ldr	r3, [r7, #16]
 800120e:	2b60      	cmp	r3, #96	; 0x60
 8001210:	d015      	beq.n	800123e <HAL_CRYP_Decrypt+0xd6>
 8001212:	693b      	ldr	r3, [r7, #16]
 8001214:	2b60      	cmp	r3, #96	; 0x60
 8001216:	d820      	bhi.n	800125a <HAL_CRYP_Decrypt+0xf2>
 8001218:	693b      	ldr	r3, [r7, #16]
 800121a:	2b40      	cmp	r3, #64	; 0x40
 800121c:	d008      	beq.n	8001230 <HAL_CRYP_Decrypt+0xc8>
 800121e:	693b      	ldr	r3, [r7, #16]
 8001220:	2b40      	cmp	r3, #64	; 0x40
 8001222:	d81a      	bhi.n	800125a <HAL_CRYP_Decrypt+0xf2>
 8001224:	693b      	ldr	r3, [r7, #16]
 8001226:	2b00      	cmp	r3, #0
 8001228:	d002      	beq.n	8001230 <HAL_CRYP_Decrypt+0xc8>
 800122a:	693b      	ldr	r3, [r7, #16]
 800122c:	2b20      	cmp	r3, #32
 800122e:	d114      	bne.n	800125a <HAL_CRYP_Decrypt+0xf2>
    {
      case CRYP_AES_ECB:
      case CRYP_AES_CBC:
      case CRYP_AES_CTR:
        /* AES decryption */
        status = CRYP_AES_Decrypt(hcryp, Timeout);
 8001230:	6a39      	ldr	r1, [r7, #32]
 8001232:	68f8      	ldr	r0, [r7, #12]
 8001234:	f000 f930 	bl	8001498 <CRYP_AES_Decrypt>
 8001238:	4603      	mov	r3, r0
 800123a:	75fb      	strb	r3, [r7, #23]
        break;
 800123c:	e016      	b.n	800126c <HAL_CRYP_Decrypt+0x104>

      case CRYP_AES_GCM_GMAC:
        /* AES GCM decryption */
        status = CRYP_AESGCM_Process(hcryp, Timeout);
 800123e:	6a39      	ldr	r1, [r7, #32]
 8001240:	68f8      	ldr	r0, [r7, #12]
 8001242:	f000 fbe0 	bl	8001a06 <CRYP_AESGCM_Process>
 8001246:	4603      	mov	r3, r0
 8001248:	75fb      	strb	r3, [r7, #23]
        break;
 800124a:	e00f      	b.n	800126c <HAL_CRYP_Decrypt+0x104>

      case CRYP_AES_CCM:
        /* AES CCM decryption */
        status = CRYP_AESCCM_Process(hcryp, Timeout);
 800124c:	6a39      	ldr	r1, [r7, #32]
 800124e:	68f8      	ldr	r0, [r7, #12]
 8001250:	f000 fd6e 	bl	8001d30 <CRYP_AESCCM_Process>
 8001254:	4603      	mov	r3, r0
 8001256:	75fb      	strb	r3, [r7, #23]
        break;
 8001258:	e008      	b.n	800126c <HAL_CRYP_Decrypt+0x104>

      default:
        hcryp->ErrorCode |= HAL_CRYP_ERROR_NOT_SUPPORTED;
 800125a:	68fb      	ldr	r3, [r7, #12]
 800125c:	6ddb      	ldr	r3, [r3, #92]	; 0x5c
 800125e:	f043 0220 	orr.w	r2, r3, #32
 8001262:	68fb      	ldr	r3, [r7, #12]
 8001264:	65da      	str	r2, [r3, #92]	; 0x5c
        status = HAL_ERROR;
 8001266:	2301      	movs	r3, #1
 8001268:	75fb      	strb	r3, [r7, #23]
        break;
 800126a:	bf00      	nop
    }

    if (status == HAL_OK)
 800126c:	7dfb      	ldrb	r3, [r7, #23]
 800126e:	2b00      	cmp	r3, #0
 8001270:	d110      	bne.n	8001294 <HAL_CRYP_Decrypt+0x12c>
    {
      /* Change the CRYP peripheral state */
      hcryp->State = HAL_CRYP_STATE_READY;
 8001272:	68fb      	ldr	r3, [r7, #12]
 8001274:	2201      	movs	r2, #1
 8001276:	f883 2059 	strb.w	r2, [r3, #89]	; 0x59
      __HAL_UNLOCK(hcryp);
 800127a:	68fb      	ldr	r3, [r7, #12]
 800127c:	2200      	movs	r2, #0
 800127e:	f883 2058 	strb.w	r2, [r3, #88]	; 0x58
 8001282:	e007      	b.n	8001294 <HAL_CRYP_Decrypt+0x12c>
    }
  }
  else
  {
    /* Busy error code field */
    hcryp->ErrorCode |= HAL_CRYP_ERROR_BUSY;
 8001284:	68fb      	ldr	r3, [r7, #12]
 8001286:	6ddb      	ldr	r3, [r3, #92]	; 0x5c
 8001288:	f043 0208 	orr.w	r2, r3, #8
 800128c:	68fb      	ldr	r3, [r7, #12]
 800128e:	65da      	str	r2, [r3, #92]	; 0x5c
    status = HAL_ERROR;
 8001290:	2301      	movs	r3, #1
 8001292:	75fb      	strb	r3, [r7, #23]
  }

  return status;
 8001294:	7dfb      	ldrb	r3, [r7, #23]
}
 8001296:	4618      	mov	r0, r3
 8001298:	3718      	adds	r7, #24
 800129a:	46bd      	mov	sp, r7
 800129c:	bd80      	pop	{r7, pc}
 800129e:	bf00      	nop
 80012a0:	00010060 	.word	0x00010060

080012a4 <HAL_CRYP_ErrorCallback>:
  * @param  hcryp pointer to a CRYP_HandleTypeDef structure that contains
  *         the configuration information for CRYP module.
  * @retval None
  */
__weak void HAL_CRYP_ErrorCallback(CRYP_HandleTypeDef *hcryp)
{
 80012a4:	b480      	push	{r7}
 80012a6:	b083      	sub	sp, #12
 80012a8:	af00      	add	r7, sp, #0
 80012aa:	6078      	str	r0, [r7, #4]
  UNUSED(hcryp);

  /* NOTE : This function should not be modified; when the callback is needed,
            the HAL_CRYP_ErrorCallback can be implemented in the user file
   */
}
 80012ac:	bf00      	nop
 80012ae:	370c      	adds	r7, #12
 80012b0:	46bd      	mov	sp, r7
 80012b2:	f85d 7b04 	ldr.w	r7, [sp], #4
 80012b6:	4770      	bx	lr

080012b8 <CRYP_AES_Encrypt>:
  * @param  hcryp pointer to a CRYP_HandleTypeDef structure
  * @param  Timeout specify Timeout value
  * @retval HAL status
  */
static HAL_StatusTypeDef CRYP_AES_Encrypt(CRYP_HandleTypeDef *hcryp, uint32_t Timeout)
{
 80012b8:	b580      	push	{r7, lr}
 80012ba:	b086      	sub	sp, #24
 80012bc:	af00      	add	r7, sp, #0
 80012be:	6078      	str	r0, [r7, #4]
 80012c0:	6039      	str	r1, [r7, #0]
  uint16_t incount;  /* Temporary CrypInCount Value */
  uint16_t outcount;  /* Temporary CrypOutCount Value */
  uint32_t dokeyivconfig = 1U; /* By default, carry out peripheral Key and IV configuration */
 80012c2:	2301      	movs	r3, #1
 80012c4:	613b      	str	r3, [r7, #16]
  uint32_t tickstart;

  if ((hcryp->Init.KeyIVConfigSkip == CRYP_KEYIVCONFIG_ONCE) || (hcryp->Init.KeyIVConfigSkip == CRYP_IVCONFIG_ONCE))
 80012c6:	687b      	ldr	r3, [r7, #4]
 80012c8:	6adb      	ldr	r3, [r3, #44]	; 0x2c
 80012ca:	2b01      	cmp	r3, #1
 80012cc:	d003      	beq.n	80012d6 <CRYP_AES_Encrypt+0x1e>
 80012ce:	687b      	ldr	r3, [r7, #4]
 80012d0:	6adb      	ldr	r3, [r3, #44]	; 0x2c
 80012d2:	2b04      	cmp	r3, #4
 80012d4:	d109      	bne.n	80012ea <CRYP_AES_Encrypt+0x32>
  {
    if (hcryp->KeyIVConfig == 1U)
 80012d6:	687b      	ldr	r3, [r7, #4]
 80012d8:	6e1b      	ldr	r3, [r3, #96]	; 0x60
 80012da:	2b01      	cmp	r3, #1
 80012dc:	d102      	bne.n	80012e4 <CRYP_AES_Encrypt+0x2c>
    {
      /* If the Key and IV configuration has to be done only once
         and if it has already been done, skip it */
      dokeyivconfig = 0U;
 80012de:	2300      	movs	r3, #0
 80012e0:	613b      	str	r3, [r7, #16]
 80012e2:	e002      	b.n	80012ea <CRYP_AES_Encrypt+0x32>
    else
    {
      /* If the Key and IV configuration has to be done only once
         and if it has not been done already, do it and set KeyIVConfig
         to keep track it won't have to be done again next time */
      hcryp->KeyIVConfig = 1U;
 80012e4:	687b      	ldr	r3, [r7, #4]
 80012e6:	2201      	movs	r2, #1
 80012e8:	661a      	str	r2, [r3, #96]	; 0x60
    }
  }

  if (dokeyivconfig == 1U)
 80012ea:	693b      	ldr	r3, [r7, #16]
 80012ec:	2b01      	cmp	r3, #1
 80012ee:	d17a      	bne.n	80013e6 <CRYP_AES_Encrypt+0x12e>
  {
    if ((hcryp->Init.KeyIVConfigSkip == CRYP_KEYIVCONFIG_ONCE) || \
 80012f0:	687b      	ldr	r3, [r7, #4]
 80012f2:	6adb      	ldr	r3, [r3, #44]	; 0x2c
 80012f4:	2b01      	cmp	r3, #1
 80012f6:	d003      	beq.n	8001300 <CRYP_AES_Encrypt+0x48>
        (hcryp->Init.KeyIVConfigSkip == CRYP_KEYIVCONFIG_ALWAYS))
 80012f8:	687b      	ldr	r3, [r7, #4]
 80012fa:	6adb      	ldr	r3, [r3, #44]	; 0x2c
    if ((hcryp->Init.KeyIVConfigSkip == CRYP_KEYIVCONFIG_ONCE) || \
 80012fc:	2b00      	cmp	r3, #0
 80012fe:	d160      	bne.n	80013c2 <CRYP_AES_Encrypt+0x10a>
    {
      if (hcryp->Instance == AES)
 8001300:	687b      	ldr	r3, [r7, #4]
 8001302:	681b      	ldr	r3, [r3, #0]
 8001304:	4a63      	ldr	r2, [pc, #396]	; (8001494 <CRYP_AES_Encrypt+0x1dc>)
 8001306:	4293      	cmp	r3, r2
 8001308:	d114      	bne.n	8001334 <CRYP_AES_Encrypt+0x7c>
      {
        /* Set the Key */
        if (hcryp->Init.KeyMode != CRYP_KEYMODE_SHARED)
 800130a:	687b      	ldr	r3, [r7, #4]
 800130c:	6b1b      	ldr	r3, [r3, #48]	; 0x30
 800130e:	f1b3 7f00 	cmp.w	r3, #33554432	; 0x2000000
 8001312:	d006      	beq.n	8001322 <CRYP_AES_Encrypt+0x6a>
        {
          CRYP_SetKey(hcryp, hcryp->Init.KeySize);
 8001314:	687b      	ldr	r3, [r7, #4]
 8001316:	689b      	ldr	r3, [r3, #8]
 8001318:	4619      	mov	r1, r3
 800131a:	6878      	ldr	r0, [r7, #4]
 800131c:	f000 faec 	bl	80018f8 <CRYP_SetKey>
 8001320:	e048      	b.n	80013b4 <CRYP_AES_Encrypt+0xfc>
        }
        else /* After sharing the key, AES should set KMOD[1:0] to 00.*/
        {
          hcryp->Instance->CR &=  ~CRYP_KEYMODE_SHARED;
 8001322:	687b      	ldr	r3, [r7, #4]
 8001324:	681b      	ldr	r3, [r3, #0]
 8001326:	681a      	ldr	r2, [r3, #0]
 8001328:	687b      	ldr	r3, [r7, #4]
 800132a:	681b      	ldr	r3, [r3, #0]
 800132c:	f022 7200 	bic.w	r2, r2, #33554432	; 0x2000000
 8001330:	601a      	str	r2, [r3, #0]
 8001332:	e03f      	b.n	80013b4 <CRYP_AES_Encrypt+0xfc>
        }
      }
      else
      {
        /* We should re-write Key, in the case where we change key after first operation */
        if ((hcryp->Init.KeySelect == CRYP_KEYSEL_NORMAL) && (hcryp->Init.KeyMode == CRYP_KEYMODE_NORMAL))
 8001334:	687b      	ldr	r3, [r7, #4]
 8001336:	6b5b      	ldr	r3, [r3, #52]	; 0x34
 8001338:	2b00      	cmp	r3, #0
 800133a:	d109      	bne.n	8001350 <CRYP_AES_Encrypt+0x98>
 800133c:	687b      	ldr	r3, [r7, #4]
 800133e:	6b1b      	ldr	r3, [r3, #48]	; 0x30
 8001340:	2b00      	cmp	r3, #0
 8001342:	d105      	bne.n	8001350 <CRYP_AES_Encrypt+0x98>
        {
          /* Set the Key */
          CRYP_SetKey(hcryp, hcryp->Init.KeySize);
 8001344:	687b      	ldr	r3, [r7, #4]
 8001346:	689b      	ldr	r3, [r3, #8]
 8001348:	4619      	mov	r1, r3
 800134a:	6878      	ldr	r0, [r7, #4]
 800134c:	f000 fad4 	bl	80018f8 <CRYP_SetKey>
        }
        /* Get tick */
        tickstart = HAL_GetTick();
 8001350:	f7ff fb3a 	bl	80009c8 <HAL_GetTick>
 8001354:	60f8      	str	r0, [r7, #12]

        while (HAL_IS_BIT_CLR(hcryp->Instance->SR, CRYP_FLAG_KEYVALID))
 8001356:	e026      	b.n	80013a6 <CRYP_AES_Encrypt+0xee>
        {
          /* Check for the Timeout */
          if (Timeout != HAL_MAX_DELAY)
 8001358:	683b      	ldr	r3, [r7, #0]
 800135a:	f1b3 3fff 	cmp.w	r3, #4294967295	; 0xffffffff
 800135e:	d022      	beq.n	80013a6 <CRYP_AES_Encrypt+0xee>
          {
            if (((HAL_GetTick() - tickstart) > Timeout) || (Timeout == 0U))
 8001360:	f7ff fb32 	bl	80009c8 <HAL_GetTick>
 8001364:	4602      	mov	r2, r0
 8001366:	68fb      	ldr	r3, [r7, #12]
 8001368:	1ad3      	subs	r3, r2, r3
 800136a:	683a      	ldr	r2, [r7, #0]
 800136c:	429a      	cmp	r2, r3
 800136e:	d302      	bcc.n	8001376 <CRYP_AES_Encrypt+0xbe>
 8001370:	683b      	ldr	r3, [r7, #0]
 8001372:	2b00      	cmp	r3, #0
 8001374:	d117      	bne.n	80013a6 <CRYP_AES_Encrypt+0xee>
            {
              /* Disable the CRYP peripheral clock */
              __HAL_CRYP_DISABLE(hcryp);
 8001376:	687b      	ldr	r3, [r7, #4]
 8001378:	681b      	ldr	r3, [r3, #0]
 800137a:	681a      	ldr	r2, [r3, #0]
 800137c:	687b      	ldr	r3, [r7, #4]
 800137e:	681b      	ldr	r3, [r3, #0]
 8001380:	f022 0201 	bic.w	r2, r2, #1
 8001384:	601a      	str	r2, [r3, #0]

              /* Change state */
              hcryp->ErrorCode |= HAL_CRYP_ERROR_TIMEOUT;
 8001386:	687b      	ldr	r3, [r7, #4]
 8001388:	6ddb      	ldr	r3, [r3, #92]	; 0x5c
 800138a:	f043 0210 	orr.w	r2, r3, #16
 800138e:	687b      	ldr	r3, [r7, #4]
 8001390:	65da      	str	r2, [r3, #92]	; 0x5c
              hcryp->State = HAL_CRYP_STATE_READY;
 8001392:	687b      	ldr	r3, [r7, #4]
 8001394:	2201      	movs	r2, #1
 8001396:	f883 2059 	strb.w	r2, [r3, #89]	; 0x59
              __HAL_UNLOCK(hcryp);
 800139a:	687b      	ldr	r3, [r7, #4]
 800139c:	2200      	movs	r2, #0
 800139e:	f883 2058 	strb.w	r2, [r3, #88]	; 0x58
              return HAL_ERROR;
 80013a2:	2301      	movs	r3, #1
 80013a4:	e071      	b.n	800148a <CRYP_AES_Encrypt+0x1d2>
        while (HAL_IS_BIT_CLR(hcryp->Instance->SR, CRYP_FLAG_KEYVALID))
 80013a6:	687b      	ldr	r3, [r7, #4]
 80013a8:	681b      	ldr	r3, [r3, #0]
 80013aa:	685b      	ldr	r3, [r3, #4]
 80013ac:	f003 0380 	and.w	r3, r3, #128	; 0x80
 80013b0:	2b00      	cmp	r3, #0
 80013b2:	d0d1      	beq.n	8001358 <CRYP_AES_Encrypt+0xa0>
            }
          }
        }
      }
      if (hcryp->Init.Algorithm != CRYP_AES_ECB)
 80013b4:	687b      	ldr	r3, [r7, #4]
 80013b6:	695b      	ldr	r3, [r3, #20]
 80013b8:	2b00      	cmp	r3, #0
 80013ba:	d002      	beq.n	80013c2 <CRYP_AES_Encrypt+0x10a>
      {
        /* Set the Initialization Vector */
        CRYP_SetIV(hcryp);
 80013bc:	6878      	ldr	r0, [r7, #4]
 80013be:	f000 fafc 	bl	80019ba <CRYP_SetIV>
      }
    }
    /* key & IV configuration for CBC and CTR in interleave mode */
    if (hcryp->Init.KeyIVConfigSkip == CRYP_IVCONFIG_ONCE)
 80013c2:	687b      	ldr	r3, [r7, #4]
 80013c4:	6adb      	ldr	r3, [r3, #44]	; 0x2c
 80013c6:	2b04      	cmp	r3, #4
 80013c8:	d117      	bne.n	80013fa <CRYP_AES_Encrypt+0x142>
    {
      /* Set the Key */
      CRYP_SetKey(hcryp, hcryp->Init.KeySize);
 80013ca:	687b      	ldr	r3, [r7, #4]
 80013cc:	689b      	ldr	r3, [r3, #8]
 80013ce:	4619      	mov	r1, r3
 80013d0:	6878      	ldr	r0, [r7, #4]
 80013d2:	f000 fa91 	bl	80018f8 <CRYP_SetKey>
      if (hcryp->Init.Algorithm != CRYP_AES_ECB)
 80013d6:	687b      	ldr	r3, [r7, #4]
 80013d8:	695b      	ldr	r3, [r3, #20]
 80013da:	2b00      	cmp	r3, #0
 80013dc:	d00d      	beq.n	80013fa <CRYP_AES_Encrypt+0x142>
      {
        /* Set the Initialization Vector*/
        CRYP_SetIV(hcryp);
 80013de:	6878      	ldr	r0, [r7, #4]
 80013e0:	f000 faeb 	bl	80019ba <CRYP_SetIV>
 80013e4:	e009      	b.n	80013fa <CRYP_AES_Encrypt+0x142>
    }
  } /* If (dokeyivconfig == 1U) */
  else
  {
    /* interleave mode Key configuration  */
    if (hcryp->Init.KeyIVConfigSkip == CRYP_IVCONFIG_ONCE)
 80013e6:	687b      	ldr	r3, [r7, #4]
 80013e8:	6adb      	ldr	r3, [r3, #44]	; 0x2c
 80013ea:	2b04      	cmp	r3, #4
 80013ec:	d105      	bne.n	80013fa <CRYP_AES_Encrypt+0x142>
    {
      /* Set the Key */
      CRYP_SetKey(hcryp, hcryp->Init.KeySize);
 80013ee:	687b      	ldr	r3, [r7, #4]
 80013f0:	689b      	ldr	r3, [r3, #8]
 80013f2:	4619      	mov	r1, r3
 80013f4:	6878      	ldr	r0, [r7, #4]
 80013f6:	f000 fa7f 	bl	80018f8 <CRYP_SetKey>
    }
  }
  /* Peripheral Key configuration to not do, IV to configure for CBC */
  if (hcryp->Init.KeyIVConfigSkip == CRYP_KEYNOCONFIG)
 80013fa:	687b      	ldr	r3, [r7, #4]
 80013fc:	6adb      	ldr	r3, [r3, #44]	; 0x2c
 80013fe:	2b02      	cmp	r3, #2
 8001400:	d106      	bne.n	8001410 <CRYP_AES_Encrypt+0x158>
  {
    if (hcryp->Init.Algorithm != CRYP_AES_ECB)
 8001402:	687b      	ldr	r3, [r7, #4]
 8001404:	695b      	ldr	r3, [r3, #20]
 8001406:	2b00      	cmp	r3, #0
 8001408:	d002      	beq.n	8001410 <CRYP_AES_Encrypt+0x158>
    {
      /* Set the Initialization Vector*/
      CRYP_SetIV(hcryp);
 800140a:	6878      	ldr	r0, [r7, #4]
 800140c:	f000 fad5 	bl	80019ba <CRYP_SetIV>
    }
  }

  /* Set the phase */
  hcryp->Phase = CRYP_PHASE_PROCESS;
 8001410:	687b      	ldr	r3, [r7, #4]
 8001412:	2202      	movs	r2, #2
 8001414:	64da      	str	r2, [r3, #76]	; 0x4c

  /* Enable CRYP */
  __HAL_CRYP_ENABLE(hcryp);
 8001416:	687b      	ldr	r3, [r7, #4]
 8001418:	681b      	ldr	r3, [r3, #0]
 800141a:	681a      	ldr	r2, [r3, #0]
 800141c:	687b      	ldr	r3, [r7, #4]
 800141e:	681b      	ldr	r3, [r3, #0]
 8001420:	f042 0201 	orr.w	r2, r2, #1
 8001424:	601a      	str	r2, [r3, #0]

  incount = hcryp->CrypInCount;
 8001426:	687b      	ldr	r3, [r7, #4]
 8001428:	f8b3 3046 	ldrh.w	r3, [r3, #70]	; 0x46
 800142c:	82fb      	strh	r3, [r7, #22]
  outcount = hcryp->CrypOutCount;
 800142e:	687b      	ldr	r3, [r7, #4]
 8001430:	f8b3 3048 	ldrh.w	r3, [r3, #72]	; 0x48
 8001434:	82bb      	strh	r3, [r7, #20]
  while ((incount < (hcryp->Size / 4U)) && (outcount < (hcryp->Size / 4U)))
 8001436:	e00b      	b.n	8001450 <CRYP_AES_Encrypt+0x198>
  {
    /* Write plain data and get cipher data */
    CRYP_AES_ProcessData(hcryp, Timeout);
 8001438:	6839      	ldr	r1, [r7, #0]
 800143a:	6878      	ldr	r0, [r7, #4]
 800143c:	f000 f9ac 	bl	8001798 <CRYP_AES_ProcessData>
    incount = hcryp->CrypInCount;
 8001440:	687b      	ldr	r3, [r7, #4]
 8001442:	f8b3 3046 	ldrh.w	r3, [r3, #70]	; 0x46
 8001446:	82fb      	strh	r3, [r7, #22]
    outcount = hcryp->CrypOutCount;
 8001448:	687b      	ldr	r3, [r7, #4]
 800144a:	f8b3 3048 	ldrh.w	r3, [r3, #72]	; 0x48
 800144e:	82bb      	strh	r3, [r7, #20]
  while ((incount < (hcryp->Size / 4U)) && (outcount < (hcryp->Size / 4U)))
 8001450:	687b      	ldr	r3, [r7, #4]
 8001452:	f8b3 304a 	ldrh.w	r3, [r3, #74]	; 0x4a
 8001456:	089b      	lsrs	r3, r3, #2
 8001458:	b29b      	uxth	r3, r3
 800145a:	8afa      	ldrh	r2, [r7, #22]
 800145c:	429a      	cmp	r2, r3
 800145e:	d207      	bcs.n	8001470 <CRYP_AES_Encrypt+0x1b8>
 8001460:	687b      	ldr	r3, [r7, #4]
 8001462:	f8b3 304a 	ldrh.w	r3, [r3, #74]	; 0x4a
 8001466:	089b      	lsrs	r3, r3, #2
 8001468:	b29b      	uxth	r3, r3
 800146a:	8aba      	ldrh	r2, [r7, #20]
 800146c:	429a      	cmp	r2, r3
 800146e:	d3e3      	bcc.n	8001438 <CRYP_AES_Encrypt+0x180>
  }

  /* Disable CRYP */
  __HAL_CRYP_DISABLE(hcryp);
 8001470:	687b      	ldr	r3, [r7, #4]
 8001472:	681b      	ldr	r3, [r3, #0]
 8001474:	681a      	ldr	r2, [r3, #0]
 8001476:	687b      	ldr	r3, [r7, #4]
 8001478:	681b      	ldr	r3, [r3, #0]
 800147a:	f022 0201 	bic.w	r2, r2, #1
 800147e:	601a      	str	r2, [r3, #0]

  /* Change the CRYP state */
  hcryp->State = HAL_CRYP_STATE_READY;
 8001480:	687b      	ldr	r3, [r7, #4]
 8001482:	2201      	movs	r2, #1
 8001484:	f883 2059 	strb.w	r2, [r3, #89]	; 0x59

  return HAL_OK;
 8001488:	2300      	movs	r3, #0
}
 800148a:	4618      	mov	r0, r3
 800148c:	3718      	adds	r7, #24
 800148e:	46bd      	mov	sp, r7
 8001490:	bd80      	pop	{r7, pc}
 8001492:	bf00      	nop
 8001494:	420c0000 	.word	0x420c0000

08001498 <CRYP_AES_Decrypt>:
  * @param  hcryp pointer to a CRYP_HandleTypeDef structure
  * @param  Timeout Specify Timeout value
  * @retval HAL status
  */
static HAL_StatusTypeDef CRYP_AES_Decrypt(CRYP_HandleTypeDef *hcryp, uint32_t Timeout)
{
 8001498:	b580      	push	{r7, lr}
 800149a:	b084      	sub	sp, #16
 800149c:	af00      	add	r7, sp, #0
 800149e:	6078      	str	r0, [r7, #4]
 80014a0:	6039      	str	r1, [r7, #0]
  uint16_t incount;  /* Temporary CrypInCount Value */
  uint16_t outcount;  /* Temporary CrypOutCount Value */
  uint32_t dokeyivconfig = 1U; /* By default, carry out peripheral Key and IV configuration */
 80014a2:	2301      	movs	r3, #1
 80014a4:	60bb      	str	r3, [r7, #8]

  if ((hcryp->Init.KeyIVConfigSkip == CRYP_KEYIVCONFIG_ONCE) || (hcryp->Init.KeyIVConfigSkip == CRYP_IVCONFIG_ONCE))
 80014a6:	687b      	ldr	r3, [r7, #4]
 80014a8:	6adb      	ldr	r3, [r3, #44]	; 0x2c
 80014aa:	2b01      	cmp	r3, #1
 80014ac:	d003      	beq.n	80014b6 <CRYP_AES_Decrypt+0x1e>
 80014ae:	687b      	ldr	r3, [r7, #4]
 80014b0:	6adb      	ldr	r3, [r3, #44]	; 0x2c
 80014b2:	2b04      	cmp	r3, #4
 80014b4:	d109      	bne.n	80014ca <CRYP_AES_Decrypt+0x32>
  {
    if (hcryp->KeyIVConfig == 1U)
 80014b6:	687b      	ldr	r3, [r7, #4]
 80014b8:	6e1b      	ldr	r3, [r3, #96]	; 0x60
 80014ba:	2b01      	cmp	r3, #1
 80014bc:	d102      	bne.n	80014c4 <CRYP_AES_Decrypt+0x2c>
    {
      /* If the Key and IV configuration has to be done only once
         and if it has already been done, skip it */
      dokeyivconfig = 0U;
 80014be:	2300      	movs	r3, #0
 80014c0:	60bb      	str	r3, [r7, #8]
 80014c2:	e002      	b.n	80014ca <CRYP_AES_Decrypt+0x32>
    else
    {
      /* If the Key and IV configuration has to be done only once
         and if it has not been done already, do it and set KeyIVConfig
         to keep track it won't have to be done again next time */
      hcryp->KeyIVConfig = 1U;
 80014c4:	687b      	ldr	r3, [r7, #4]
 80014c6:	2201      	movs	r2, #1
 80014c8:	661a      	str	r2, [r3, #96]	; 0x60
    }
  }

  if (dokeyivconfig == 1U)
 80014ca:	68bb      	ldr	r3, [r7, #8]
 80014cc:	2b01      	cmp	r3, #1
 80014ce:	f040 80ce 	bne.w	800166e <CRYP_AES_Decrypt+0x1d6>
  {
    if (hcryp->Instance == AES)
 80014d2:	687b      	ldr	r3, [r7, #4]
 80014d4:	681b      	ldr	r3, [r3, #0]
 80014d6:	4a8b      	ldr	r2, [pc, #556]	; (8001704 <CRYP_AES_Decrypt+0x26c>)
 80014d8:	4293      	cmp	r3, r2
 80014da:	d17b      	bne.n	80015d4 <CRYP_AES_Decrypt+0x13c>
    {
      /*  Key preparation for ECB/CBC */
      if (hcryp->Init.Algorithm != CRYP_AES_CTR)   /*ECB or CBC*/
 80014dc:	687b      	ldr	r3, [r7, #4]
 80014de:	695b      	ldr	r3, [r3, #20]
 80014e0:	2b40      	cmp	r3, #64	; 0x40
 80014e2:	d05e      	beq.n	80015a2 <CRYP_AES_Decrypt+0x10a>
      {
        /* key preparation for decryption, operating mode 2*/
        MODIFY_REG(hcryp->Instance->CR, AES_CR_KMOD, CRYP_KEYMODE_NORMAL);
 80014e4:	687b      	ldr	r3, [r7, #4]
 80014e6:	681b      	ldr	r3, [r3, #0]
 80014e8:	681a      	ldr	r2, [r3, #0]
 80014ea:	687b      	ldr	r3, [r7, #4]
 80014ec:	681b      	ldr	r3, [r3, #0]
 80014ee:	f022 7240 	bic.w	r2, r2, #50331648	; 0x3000000
 80014f2:	601a      	str	r2, [r3, #0]
        MODIFY_REG(hcryp->Instance->CR, AES_CR_MODE, CRYP_OPERATINGMODE_KEYDERIVATION);
 80014f4:	687b      	ldr	r3, [r7, #4]
 80014f6:	681b      	ldr	r3, [r3, #0]
 80014f8:	681b      	ldr	r3, [r3, #0]
 80014fa:	f023 0218 	bic.w	r2, r3, #24
 80014fe:	687b      	ldr	r3, [r7, #4]
 8001500:	681b      	ldr	r3, [r3, #0]
 8001502:	f042 0208 	orr.w	r2, r2, #8
 8001506:	601a      	str	r2, [r3, #0]

        /* Set the Key */
        if ((hcryp->Init.KeyIVConfigSkip == CRYP_KEYIVCONFIG_ONCE) || \
 8001508:	687b      	ldr	r3, [r7, #4]
 800150a:	6adb      	ldr	r3, [r3, #44]	; 0x2c
 800150c:	2b01      	cmp	r3, #1
 800150e:	d003      	beq.n	8001518 <CRYP_AES_Decrypt+0x80>
            (hcryp->Init.KeyIVConfigSkip == CRYP_KEYIVCONFIG_ALWAYS))
 8001510:	687b      	ldr	r3, [r7, #4]
 8001512:	6adb      	ldr	r3, [r3, #44]	; 0x2c
        if ((hcryp->Init.KeyIVConfigSkip == CRYP_KEYIVCONFIG_ONCE) || \
 8001514:	2b00      	cmp	r3, #0
 8001516:	d114      	bne.n	8001542 <CRYP_AES_Decrypt+0xaa>
        {
          if (hcryp->Init.KeyMode != CRYP_KEYMODE_SHARED)
 8001518:	687b      	ldr	r3, [r7, #4]
 800151a:	6b1b      	ldr	r3, [r3, #48]	; 0x30
 800151c:	f1b3 7f00 	cmp.w	r3, #33554432	; 0x2000000
 8001520:	d006      	beq.n	8001530 <CRYP_AES_Decrypt+0x98>
          {
            CRYP_SetKey(hcryp, hcryp->Init.KeySize);
 8001522:	687b      	ldr	r3, [r7, #4]
 8001524:	689b      	ldr	r3, [r3, #8]
 8001526:	4619      	mov	r1, r3
 8001528:	6878      	ldr	r0, [r7, #4]
 800152a:	f000 f9e5 	bl	80018f8 <CRYP_SetKey>
          if (hcryp->Init.KeyMode != CRYP_KEYMODE_SHARED)
 800152e:	e012      	b.n	8001556 <CRYP_AES_Decrypt+0xbe>
          }
          else /*after sharing the key, AES should set KMOD[1:0] to 00.*/
          {
            hcryp->Instance->CR &=  ~CRYP_KEYMODE_SHARED;
 8001530:	687b      	ldr	r3, [r7, #4]
 8001532:	681b      	ldr	r3, [r3, #0]
 8001534:	681a      	ldr	r2, [r3, #0]
 8001536:	687b      	ldr	r3, [r7, #4]
 8001538:	681b      	ldr	r3, [r3, #0]
 800153a:	f022 7200 	bic.w	r2, r2, #33554432	; 0x2000000
 800153e:	601a      	str	r2, [r3, #0]
          if (hcryp->Init.KeyMode != CRYP_KEYMODE_SHARED)
 8001540:	e009      	b.n	8001556 <CRYP_AES_Decrypt+0xbe>
          }
        }

        /* interleave mode Key configuration  */
        else if (hcryp->Init.KeyIVConfigSkip == CRYP_IVCONFIG_ONCE)
 8001542:	687b      	ldr	r3, [r7, #4]
 8001544:	6adb      	ldr	r3, [r3, #44]	; 0x2c
 8001546:	2b04      	cmp	r3, #4
 8001548:	d105      	bne.n	8001556 <CRYP_AES_Decrypt+0xbe>
        {
          /* Set the Key */
          CRYP_SetKey(hcryp, hcryp->Init.KeySize);
 800154a:	687b      	ldr	r3, [r7, #4]
 800154c:	689b      	ldr	r3, [r3, #8]
 800154e:	4619      	mov	r1, r3
 8001550:	6878      	ldr	r0, [r7, #4]
 8001552:	f000 f9d1 	bl	80018f8 <CRYP_SetKey>
        {
          /* Nothing to do */
        }

        /* Enable CRYP */
        __HAL_CRYP_ENABLE(hcryp);
 8001556:	687b      	ldr	r3, [r7, #4]
 8001558:	681b      	ldr	r3, [r3, #0]
 800155a:	681a      	ldr	r2, [r3, #0]
 800155c:	687b      	ldr	r3, [r7, #4]
 800155e:	681b      	ldr	r3, [r3, #0]
 8001560:	f042 0201 	orr.w	r2, r2, #1
 8001564:	601a      	str	r2, [r3, #0]

        /* Wait for CCF flag to be raised */
        if (CRYP_WaitOnCCFlag(hcryp, Timeout) != HAL_OK)
 8001566:	6839      	ldr	r1, [r7, #0]
 8001568:	6878      	ldr	r0, [r7, #4]
 800156a:	f000 ff41 	bl	80023f0 <CRYP_WaitOnCCFlag>
 800156e:	4603      	mov	r3, r0
 8001570:	2b00      	cmp	r3, #0
 8001572:	d001      	beq.n	8001578 <CRYP_AES_Decrypt+0xe0>
        {
          return HAL_ERROR;
 8001574:	2301      	movs	r3, #1
 8001576:	e10a      	b.n	800178e <CRYP_AES_Decrypt+0x2f6>
        }
        /* Clear CCF Flag */
        __HAL_CRYP_CLEAR_FLAG(hcryp, CRYP_CLEAR_CCF);
 8001578:	687b      	ldr	r3, [r7, #4]
 800157a:	681b      	ldr	r3, [r3, #0]
 800157c:	f8d3 2308 	ldr.w	r2, [r3, #776]	; 0x308
 8001580:	687b      	ldr	r3, [r7, #4]
 8001582:	681b      	ldr	r3, [r3, #0]
 8001584:	f042 0201 	orr.w	r2, r2, #1
 8001588:	f8c3 2308 	str.w	r2, [r3, #776]	; 0x308

        /* Return to decryption operating mode(Mode 3)*/
        MODIFY_REG(hcryp->Instance->CR, AES_CR_MODE, CRYP_OPERATINGMODE_DECRYPT);
 800158c:	687b      	ldr	r3, [r7, #4]
 800158e:	681b      	ldr	r3, [r3, #0]
 8001590:	681b      	ldr	r3, [r3, #0]
 8001592:	f023 0218 	bic.w	r2, r3, #24
 8001596:	687b      	ldr	r3, [r7, #4]
 8001598:	681b      	ldr	r3, [r3, #0]
 800159a:	f042 0210 	orr.w	r2, r2, #16
 800159e:	601a      	str	r2, [r3, #0]
 80015a0:	e05d      	b.n	800165e <CRYP_AES_Decrypt+0x1c6>
      }
      else  /*Algorithm CTR */
      {
        /* Set the Key */
        if (hcryp->Init.KeyIVConfigSkip != CRYP_KEYNOCONFIG)
 80015a2:	687b      	ldr	r3, [r7, #4]
 80015a4:	6adb      	ldr	r3, [r3, #44]	; 0x2c
 80015a6:	2b02      	cmp	r3, #2
 80015a8:	d059      	beq.n	800165e <CRYP_AES_Decrypt+0x1c6>
        {
          if (hcryp->Init.KeyMode != CRYP_KEYMODE_SHARED)
 80015aa:	687b      	ldr	r3, [r7, #4]
 80015ac:	6b1b      	ldr	r3, [r3, #48]	; 0x30
 80015ae:	f1b3 7f00 	cmp.w	r3, #33554432	; 0x2000000
 80015b2:	d006      	beq.n	80015c2 <CRYP_AES_Decrypt+0x12a>
          {
            CRYP_SetKey(hcryp, hcryp->Init.KeySize);
 80015b4:	687b      	ldr	r3, [r7, #4]
 80015b6:	689b      	ldr	r3, [r3, #8]
 80015b8:	4619      	mov	r1, r3
 80015ba:	6878      	ldr	r0, [r7, #4]
 80015bc:	f000 f99c 	bl	80018f8 <CRYP_SetKey>
 80015c0:	e04d      	b.n	800165e <CRYP_AES_Decrypt+0x1c6>
          }
          else /*after sharing the key, AES should set KMOD[1:0] to 00.*/
          {
            hcryp->Instance->CR &=  ~CRYP_KEYMODE_SHARED;
 80015c2:	687b      	ldr	r3, [r7, #4]
 80015c4:	681b      	ldr	r3, [r3, #0]
 80015c6:	681a      	ldr	r2, [r3, #0]
 80015c8:	687b      	ldr	r3, [r7, #4]
 80015ca:	681b      	ldr	r3, [r3, #0]
 80015cc:	f022 7200 	bic.w	r2, r2, #33554432	; 0x2000000
 80015d0:	601a      	str	r2, [r3, #0]
 80015d2:	e044      	b.n	800165e <CRYP_AES_Decrypt+0x1c6>
        }
      }
    }
    else /*SAES*/
    {
      if (hcryp->Init.Algorithm != CRYP_AES_CTR)   /*ECB or CBC*/
 80015d4:	687b      	ldr	r3, [r7, #4]
 80015d6:	695b      	ldr	r3, [r3, #20]
 80015d8:	2b40      	cmp	r3, #64	; 0x40
 80015da:	d040      	beq.n	800165e <CRYP_AES_Decrypt+0x1c6>
      {
        /* key preparation for decryption, operating mode 2*/
        MODIFY_REG(hcryp->Instance->CR, AES_CR_MODE, CRYP_OPERATINGMODE_KEYDERIVATION);
 80015dc:	687b      	ldr	r3, [r7, #4]
 80015de:	681b      	ldr	r3, [r3, #0]
 80015e0:	681b      	ldr	r3, [r3, #0]
 80015e2:	f023 0218 	bic.w	r2, r3, #24
 80015e6:	687b      	ldr	r3, [r7, #4]
 80015e8:	681b      	ldr	r3, [r3, #0]
 80015ea:	f042 0208 	orr.w	r2, r2, #8
 80015ee:	601a      	str	r2, [r3, #0]

        /* we should re-write Key, in the case where we change key after first operation*/
        if ((hcryp->Init.KeySelect == CRYP_KEYSEL_NORMAL) && (hcryp->Init.KeyMode == CRYP_KEYMODE_NORMAL))
 80015f0:	687b      	ldr	r3, [r7, #4]
 80015f2:	6b5b      	ldr	r3, [r3, #52]	; 0x34
 80015f4:	2b00      	cmp	r3, #0
 80015f6:	d10d      	bne.n	8001614 <CRYP_AES_Decrypt+0x17c>
 80015f8:	687b      	ldr	r3, [r7, #4]
 80015fa:	6b1b      	ldr	r3, [r3, #48]	; 0x30
 80015fc:	2b00      	cmp	r3, #0
 80015fe:	d109      	bne.n	8001614 <CRYP_AES_Decrypt+0x17c>
        {
          if (hcryp->Init.KeyIVConfigSkip != CRYP_KEYNOCONFIG)
 8001600:	687b      	ldr	r3, [r7, #4]
 8001602:	6adb      	ldr	r3, [r3, #44]	; 0x2c
 8001604:	2b02      	cmp	r3, #2
 8001606:	d005      	beq.n	8001614 <CRYP_AES_Decrypt+0x17c>
          {
            CRYP_SetKey(hcryp, hcryp->Init.KeySize);
 8001608:	687b      	ldr	r3, [r7, #4]
 800160a:	689b      	ldr	r3, [r3, #8]
 800160c:	4619      	mov	r1, r3
 800160e:	6878      	ldr	r0, [r7, #4]
 8001610:	f000 f972 	bl	80018f8 <CRYP_SetKey>
          }
        }

        /* Enable SAES */
        __HAL_CRYP_ENABLE(hcryp);
 8001614:	687b      	ldr	r3, [r7, #4]
 8001616:	681b      	ldr	r3, [r3, #0]
 8001618:	681a      	ldr	r2, [r3, #0]
 800161a:	687b      	ldr	r3, [r7, #4]
 800161c:	681b      	ldr	r3, [r3, #0]
 800161e:	f042 0201 	orr.w	r2, r2, #1
 8001622:	601a      	str	r2, [r3, #0]

        /* Wait for CCF flag to be raised */
        if (CRYP_WaitOnCCFlag(hcryp, Timeout) != HAL_OK)
 8001624:	6839      	ldr	r1, [r7, #0]
 8001626:	6878      	ldr	r0, [r7, #4]
 8001628:	f000 fee2 	bl	80023f0 <CRYP_WaitOnCCFlag>
 800162c:	4603      	mov	r3, r0
 800162e:	2b00      	cmp	r3, #0
 8001630:	d001      	beq.n	8001636 <CRYP_AES_Decrypt+0x19e>
        {
          return HAL_ERROR;
 8001632:	2301      	movs	r3, #1
 8001634:	e0ab      	b.n	800178e <CRYP_AES_Decrypt+0x2f6>
        }
        /* Clear CCF Flag */
        __HAL_CRYP_CLEAR_FLAG(hcryp, CRYP_CLEAR_CCF);
 8001636:	687b      	ldr	r3, [r7, #4]
 8001638:	681b      	ldr	r3, [r3, #0]
 800163a:	f8d3 2308 	ldr.w	r2, [r3, #776]	; 0x308
 800163e:	687b      	ldr	r3, [r7, #4]
 8001640:	681b      	ldr	r3, [r3, #0]
 8001642:	f042 0201 	orr.w	r2, r2, #1
 8001646:	f8c3 2308 	str.w	r2, [r3, #776]	; 0x308

        /*  End of Key preparation for ECB/CBC */
        /* Return to decryption operating mode(Mode 3)*/
        MODIFY_REG(hcryp->Instance->CR, AES_CR_MODE, CRYP_OPERATINGMODE_DECRYPT);
 800164a:	687b      	ldr	r3, [r7, #4]
 800164c:	681b      	ldr	r3, [r3, #0]
 800164e:	681b      	ldr	r3, [r3, #0]
 8001650:	f023 0218 	bic.w	r2, r3, #24
 8001654:	687b      	ldr	r3, [r7, #4]
 8001656:	681b      	ldr	r3, [r3, #0]
 8001658:	f042 0210 	orr.w	r2, r2, #16
 800165c:	601a      	str	r2, [r3, #0]
      }
    }
    /* Set IV */
    if (hcryp->Init.Algorithm != CRYP_AES_ECB)
 800165e:	687b      	ldr	r3, [r7, #4]
 8001660:	695b      	ldr	r3, [r3, #20]
 8001662:	2b00      	cmp	r3, #0
 8001664:	d056      	beq.n	8001714 <CRYP_AES_Decrypt+0x27c>
    {
      /* Set the Initialization Vector*/
      CRYP_SetIV(hcryp);
 8001666:	6878      	ldr	r0, [r7, #4]
 8001668:	f000 f9a7 	bl	80019ba <CRYP_SetIV>
 800166c:	e052      	b.n	8001714 <CRYP_AES_Decrypt+0x27c>
  } /* if (dokeyivconfig == 1U) */

  else /* if (dokeyivconfig == 0U) */
  {
    /* interleave mode Key configuration  */
    if (hcryp->Init.KeyIVConfigSkip == CRYP_IVCONFIG_ONCE)
 800166e:	687b      	ldr	r3, [r7, #4]
 8001670:	6adb      	ldr	r3, [r3, #44]	; 0x2c
 8001672:	2b04      	cmp	r3, #4
 8001674:	d14e      	bne.n	8001714 <CRYP_AES_Decrypt+0x27c>
    {
      if (hcryp->Instance == AES)
 8001676:	687b      	ldr	r3, [r7, #4]
 8001678:	681b      	ldr	r3, [r3, #0]
 800167a:	4a22      	ldr	r2, [pc, #136]	; (8001704 <CRYP_AES_Decrypt+0x26c>)
 800167c:	4293      	cmp	r3, r2
 800167e:	d149      	bne.n	8001714 <CRYP_AES_Decrypt+0x27c>
      {
        /*  Key preparation for ECB/CBC */
        if (hcryp->Init.Algorithm != CRYP_AES_CTR)   /*ECB or CBC*/
 8001680:	687b      	ldr	r3, [r7, #4]
 8001682:	695b      	ldr	r3, [r3, #20]
 8001684:	2b40      	cmp	r3, #64	; 0x40
 8001686:	d03f      	beq.n	8001708 <CRYP_AES_Decrypt+0x270>
        {
          /* key preparation for decryption, operating mode 2*/
          MODIFY_REG(hcryp->Instance->CR, AES_CR_KMOD, CRYP_KEYMODE_NORMAL);
 8001688:	687b      	ldr	r3, [r7, #4]
 800168a:	681b      	ldr	r3, [r3, #0]
 800168c:	681a      	ldr	r2, [r3, #0]
 800168e:	687b      	ldr	r3, [r7, #4]
 8001690:	681b      	ldr	r3, [r3, #0]
 8001692:	f022 7240 	bic.w	r2, r2, #50331648	; 0x3000000
 8001696:	601a      	str	r2, [r3, #0]
          MODIFY_REG(hcryp->Instance->CR, AES_CR_MODE, CRYP_OPERATINGMODE_KEYDERIVATION);
 8001698:	687b      	ldr	r3, [r7, #4]
 800169a:	681b      	ldr	r3, [r3, #0]
 800169c:	681b      	ldr	r3, [r3, #0]
 800169e:	f023 0218 	bic.w	r2, r3, #24
 80016a2:	687b      	ldr	r3, [r7, #4]
 80016a4:	681b      	ldr	r3, [r3, #0]
 80016a6:	f042 0208 	orr.w	r2, r2, #8
 80016aa:	601a      	str	r2, [r3, #0]

          /* Set the Key */
          CRYP_SetKey(hcryp, hcryp->Init.KeySize);
 80016ac:	687b      	ldr	r3, [r7, #4]
 80016ae:	689b      	ldr	r3, [r3, #8]
 80016b0:	4619      	mov	r1, r3
 80016b2:	6878      	ldr	r0, [r7, #4]
 80016b4:	f000 f920 	bl	80018f8 <CRYP_SetKey>

          /* Enable CRYP */
          __HAL_CRYP_ENABLE(hcryp);
 80016b8:	687b      	ldr	r3, [r7, #4]
 80016ba:	681b      	ldr	r3, [r3, #0]
 80016bc:	681a      	ldr	r2, [r3, #0]
 80016be:	687b      	ldr	r3, [r7, #4]
 80016c0:	681b      	ldr	r3, [r3, #0]
 80016c2:	f042 0201 	orr.w	r2, r2, #1
 80016c6:	601a      	str	r2, [r3, #0]

          /* Wait for CCF flag to be raised */
          if (CRYP_WaitOnCCFlag(hcryp, Timeout) != HAL_OK)
 80016c8:	6839      	ldr	r1, [r7, #0]
 80016ca:	6878      	ldr	r0, [r7, #4]
 80016cc:	f000 fe90 	bl	80023f0 <CRYP_WaitOnCCFlag>
 80016d0:	4603      	mov	r3, r0
 80016d2:	2b00      	cmp	r3, #0
 80016d4:	d001      	beq.n	80016da <CRYP_AES_Decrypt+0x242>
          {
            return HAL_ERROR;
 80016d6:	2301      	movs	r3, #1
 80016d8:	e059      	b.n	800178e <CRYP_AES_Decrypt+0x2f6>
          }
          /* Clear CCF Flag */
          __HAL_CRYP_CLEAR_FLAG(hcryp, CRYP_CLEAR_CCF);
 80016da:	687b      	ldr	r3, [r7, #4]
 80016dc:	681b      	ldr	r3, [r3, #0]
 80016de:	f8d3 2308 	ldr.w	r2, [r3, #776]	; 0x308
 80016e2:	687b      	ldr	r3, [r7, #4]
 80016e4:	681b      	ldr	r3, [r3, #0]
 80016e6:	f042 0201 	orr.w	r2, r2, #1
 80016ea:	f8c3 2308 	str.w	r2, [r3, #776]	; 0x308

          /* Return to decryption operating mode(Mode 3)*/
          MODIFY_REG(hcryp->Instance->CR, AES_CR_MODE, CRYP_OPERATINGMODE_DECRYPT);
 80016ee:	687b      	ldr	r3, [r7, #4]
 80016f0:	681b      	ldr	r3, [r3, #0]
 80016f2:	681b      	ldr	r3, [r3, #0]
 80016f4:	f023 0218 	bic.w	r2, r3, #24
 80016f8:	687b      	ldr	r3, [r7, #4]
 80016fa:	681b      	ldr	r3, [r3, #0]
 80016fc:	f042 0210 	orr.w	r2, r2, #16
 8001700:	601a      	str	r2, [r3, #0]
 8001702:	e007      	b.n	8001714 <CRYP_AES_Decrypt+0x27c>
 8001704:	420c0000 	.word	0x420c0000
        }
        else  /*Algorithm CTR */
        {
          /* Set the Key */
          CRYP_SetKey(hcryp, hcryp->Init.KeySize);
 8001708:	687b      	ldr	r3, [r7, #4]
 800170a:	689b      	ldr	r3, [r3, #8]
 800170c:	4619      	mov	r1, r3
 800170e:	6878      	ldr	r0, [r7, #4]
 8001710:	f000 f8f2 	bl	80018f8 <CRYP_SetKey>
      }
    }

  }
  /* Set the phase */
  hcryp->Phase = CRYP_PHASE_PROCESS;
 8001714:	687b      	ldr	r3, [r7, #4]
 8001716:	2202      	movs	r2, #2
 8001718:	64da      	str	r2, [r3, #76]	; 0x4c

  /* Enable CRYP */
  __HAL_CRYP_ENABLE(hcryp);
 800171a:	687b      	ldr	r3, [r7, #4]
 800171c:	681b      	ldr	r3, [r3, #0]
 800171e:	681a      	ldr	r2, [r3, #0]
 8001720:	687b      	ldr	r3, [r7, #4]
 8001722:	681b      	ldr	r3, [r3, #0]
 8001724:	f042 0201 	orr.w	r2, r2, #1
 8001728:	601a      	str	r2, [r3, #0]

  incount = hcryp->CrypInCount;
 800172a:	687b      	ldr	r3, [r7, #4]
 800172c:	f8b3 3046 	ldrh.w	r3, [r3, #70]	; 0x46
 8001730:	81fb      	strh	r3, [r7, #14]
  outcount = hcryp->CrypOutCount;
 8001732:	687b      	ldr	r3, [r7, #4]
 8001734:	f8b3 3048 	ldrh.w	r3, [r3, #72]	; 0x48
 8001738:	81bb      	strh	r3, [r7, #12]
  while ((incount < (hcryp->Size / 4U)) && (outcount < (hcryp->Size / 4U)))
 800173a:	e00b      	b.n	8001754 <CRYP_AES_Decrypt+0x2bc>
  {
    /* Write plain data and get cipher data */
    CRYP_AES_ProcessData(hcryp, Timeout);
 800173c:	6839      	ldr	r1, [r7, #0]
 800173e:	6878      	ldr	r0, [r7, #4]
 8001740:	f000 f82a 	bl	8001798 <CRYP_AES_ProcessData>
    incount = hcryp->CrypInCount;
 8001744:	687b      	ldr	r3, [r7, #4]
 8001746:	f8b3 3046 	ldrh.w	r3, [r3, #70]	; 0x46
 800174a:	81fb      	strh	r3, [r7, #14]
    outcount = hcryp->CrypOutCount;
 800174c:	687b      	ldr	r3, [r7, #4]
 800174e:	f8b3 3048 	ldrh.w	r3, [r3, #72]	; 0x48
 8001752:	81bb      	strh	r3, [r7, #12]
  while ((incount < (hcryp->Size / 4U)) && (outcount < (hcryp->Size / 4U)))
 8001754:	687b      	ldr	r3, [r7, #4]
 8001756:	f8b3 304a 	ldrh.w	r3, [r3, #74]	; 0x4a
 800175a:	089b      	lsrs	r3, r3, #2
 800175c:	b29b      	uxth	r3, r3
 800175e:	89fa      	ldrh	r2, [r7, #14]
 8001760:	429a      	cmp	r2, r3
 8001762:	d207      	bcs.n	8001774 <CRYP_AES_Decrypt+0x2dc>
 8001764:	687b      	ldr	r3, [r7, #4]
 8001766:	f8b3 304a 	ldrh.w	r3, [r3, #74]	; 0x4a
 800176a:	089b      	lsrs	r3, r3, #2
 800176c:	b29b      	uxth	r3, r3
 800176e:	89ba      	ldrh	r2, [r7, #12]
 8001770:	429a      	cmp	r2, r3
 8001772:	d3e3      	bcc.n	800173c <CRYP_AES_Decrypt+0x2a4>
  }
  /* Disable CRYP */
  __HAL_CRYP_DISABLE(hcryp);
 8001774:	687b      	ldr	r3, [r7, #4]
 8001776:	681b      	ldr	r3, [r3, #0]
 8001778:	681a      	ldr	r2, [r3, #0]
 800177a:	687b      	ldr	r3, [r7, #4]
 800177c:	681b      	ldr	r3, [r3, #0]
 800177e:	f022 0201 	bic.w	r2, r2, #1
 8001782:	601a      	str	r2, [r3, #0]

  /* Change the CRYP state */
  hcryp->State = HAL_CRYP_STATE_READY;
 8001784:	687b      	ldr	r3, [r7, #4]
 8001786:	2201      	movs	r2, #1
 8001788:	f883 2059 	strb.w	r2, [r3, #89]	; 0x59

  return HAL_OK;
 800178c:	2300      	movs	r3, #0
}
 800178e:	4618      	mov	r0, r3
 8001790:	3710      	adds	r7, #16
 8001792:	46bd      	mov	sp, r7
 8001794:	bd80      	pop	{r7, pc}
 8001796:	bf00      	nop

08001798 <CRYP_AES_ProcessData>:
  *         the configuration information for CRYP module
  * @param  Timeout Specify Timeout value
  * @retval None
  */
static void CRYP_AES_ProcessData(CRYP_HandleTypeDef *hcryp, uint32_t Timeout)
{
 8001798:	b580      	push	{r7, lr}
 800179a:	b088      	sub	sp, #32
 800179c:	af00      	add	r7, sp, #0
 800179e:	6078      	str	r0, [r7, #4]
 80017a0:	6039      	str	r1, [r7, #0]

  uint32_t temp[4];  /* Temporary CrypOutBuff */
  uint32_t i;

  /* Write the input block in the IN FIFO */
  hcryp->Instance->DINR  = *(uint32_t *)(hcryp->pCrypInBuffPtr + hcryp->CrypInCount);
 80017a2:	687b      	ldr	r3, [r7, #4]
 80017a4:	6bda      	ldr	r2, [r3, #60]	; 0x3c
 80017a6:	687b      	ldr	r3, [r7, #4]
 80017a8:	f8b3 3046 	ldrh.w	r3, [r3, #70]	; 0x46
 80017ac:	b29b      	uxth	r3, r3
 80017ae:	009b      	lsls	r3, r3, #2
 80017b0:	441a      	add	r2, r3
 80017b2:	687b      	ldr	r3, [r7, #4]
 80017b4:	681b      	ldr	r3, [r3, #0]
 80017b6:	6812      	ldr	r2, [r2, #0]
 80017b8:	609a      	str	r2, [r3, #8]
  hcryp->CrypInCount++;
 80017ba:	687b      	ldr	r3, [r7, #4]
 80017bc:	f8b3 3046 	ldrh.w	r3, [r3, #70]	; 0x46
 80017c0:	b29b      	uxth	r3, r3
 80017c2:	3301      	adds	r3, #1
 80017c4:	b29a      	uxth	r2, r3
 80017c6:	687b      	ldr	r3, [r7, #4]
 80017c8:	f8a3 2046 	strh.w	r2, [r3, #70]	; 0x46
  hcryp->Instance->DINR  = *(uint32_t *)(hcryp->pCrypInBuffPtr + hcryp->CrypInCount);
 80017cc:	687b      	ldr	r3, [r7, #4]
 80017ce:	6bda      	ldr	r2, [r3, #60]	; 0x3c
 80017d0:	687b      	ldr	r3, [r7, #4]
 80017d2:	f8b3 3046 	ldrh.w	r3, [r3, #70]	; 0x46
 80017d6:	b29b      	uxth	r3, r3
 80017d8:	009b      	lsls	r3, r3, #2
 80017da:	441a      	add	r2, r3
 80017dc:	687b      	ldr	r3, [r7, #4]
 80017de:	681b      	ldr	r3, [r3, #0]
 80017e0:	6812      	ldr	r2, [r2, #0]
 80017e2:	609a      	str	r2, [r3, #8]
  hcryp->CrypInCount++;
 80017e4:	687b      	ldr	r3, [r7, #4]
 80017e6:	f8b3 3046 	ldrh.w	r3, [r3, #70]	; 0x46
 80017ea:	b29b      	uxth	r3, r3
 80017ec:	3301      	adds	r3, #1
 80017ee:	b29a      	uxth	r2, r3
 80017f0:	687b      	ldr	r3, [r7, #4]
 80017f2:	f8a3 2046 	strh.w	r2, [r3, #70]	; 0x46
  hcryp->Instance->DINR  = *(uint32_t *)(hcryp->pCrypInBuffPtr + hcryp->CrypInCount);
 80017f6:	687b      	ldr	r3, [r7, #4]
 80017f8:	6bda      	ldr	r2, [r3, #60]	; 0x3c
 80017fa:	687b      	ldr	r3, [r7, #4]
 80017fc:	f8b3 3046 	ldrh.w	r3, [r3, #70]	; 0x46
 8001800:	b29b      	uxth	r3, r3
 8001802:	009b      	lsls	r3, r3, #2
 8001804:	441a      	add	r2, r3
 8001806:	687b      	ldr	r3, [r7, #4]
 8001808:	681b      	ldr	r3, [r3, #0]
 800180a:	6812      	ldr	r2, [r2, #0]
 800180c:	609a      	str	r2, [r3, #8]
  hcryp->CrypInCount++;
 800180e:	687b      	ldr	r3, [r7, #4]
 8001810:	f8b3 3046 	ldrh.w	r3, [r3, #70]	; 0x46
 8001814:	b29b      	uxth	r3, r3
 8001816:	3301      	adds	r3, #1
 8001818:	b29a      	uxth	r2, r3
 800181a:	687b      	ldr	r3, [r7, #4]
 800181c:	f8a3 2046 	strh.w	r2, [r3, #70]	; 0x46
  hcryp->Instance->DINR  = *(uint32_t *)(hcryp->pCrypInBuffPtr + hcryp->CrypInCount);
 8001820:	687b      	ldr	r3, [r7, #4]
 8001822:	6bda      	ldr	r2, [r3, #60]	; 0x3c
 8001824:	687b      	ldr	r3, [r7, #4]
 8001826:	f8b3 3046 	ldrh.w	r3, [r3, #70]	; 0x46
 800182a:	b29b      	uxth	r3, r3
 800182c:	009b      	lsls	r3, r3, #2
 800182e:	441a      	add	r2, r3
 8001830:	687b      	ldr	r3, [r7, #4]
 8001832:	681b      	ldr	r3, [r3, #0]
 8001834:	6812      	ldr	r2, [r2, #0]
 8001836:	609a      	str	r2, [r3, #8]
  hcryp->CrypInCount++;
 8001838:	687b      	ldr	r3, [r7, #4]
 800183a:	f8b3 3046 	ldrh.w	r3, [r3, #70]	; 0x46
 800183e:	b29b      	uxth	r3, r3
 8001840:	3301      	adds	r3, #1
 8001842:	b29a      	uxth	r2, r3
 8001844:	687b      	ldr	r3, [r7, #4]
 8001846:	f8a3 2046 	strh.w	r2, [r3, #70]	; 0x46

  /* Wait for CCF flag to be raised */
  if (CRYP_WaitOnCCFlag(hcryp, Timeout) != HAL_OK)
 800184a:	6839      	ldr	r1, [r7, #0]
 800184c:	6878      	ldr	r0, [r7, #4]
 800184e:	f000 fdcf 	bl	80023f0 <CRYP_WaitOnCCFlag>
 8001852:	4603      	mov	r3, r0
 8001854:	2b00      	cmp	r3, #0
 8001856:	d002      	beq.n	800185e <CRYP_AES_ProcessData+0xc6>
    /*Call registered error callback*/
#if (USE_HAL_CRYP_REGISTER_CALLBACKS == 1U)
    hcryp->ErrorCallback(hcryp);
#else
    /*Call legacy weak error callback*/
    HAL_CRYP_ErrorCallback(hcryp);
 8001858:	6878      	ldr	r0, [r7, #4]
 800185a:	f7ff fd23 	bl	80012a4 <HAL_CRYP_ErrorCallback>
#endif /* USE_HAL_CRYP_REGISTER_CALLBACKS */
  }

  /* Clear CCF Flag */
  __HAL_CRYP_CLEAR_FLAG(hcryp, CRYP_CLEAR_CCF);
 800185e:	687b      	ldr	r3, [r7, #4]
 8001860:	681b      	ldr	r3, [r3, #0]
 8001862:	f8d3 2308 	ldr.w	r2, [r3, #776]	; 0x308
 8001866:	687b      	ldr	r3, [r7, #4]
 8001868:	681b      	ldr	r3, [r3, #0]
 800186a:	f042 0201 	orr.w	r2, r2, #1
 800186e:	f8c3 2308 	str.w	r2, [r3, #776]	; 0x308

  /* Read the output block from the output FIFO and put them in temporary buffer then
     get CrypOutBuff from temporary buffer*/
  for (i = 0U; i < 4U; i++)
 8001872:	2300      	movs	r3, #0
 8001874:	61fb      	str	r3, [r7, #28]
 8001876:	e00b      	b.n	8001890 <CRYP_AES_ProcessData+0xf8>
  {
    temp[i] = hcryp->Instance->DOUTR;
 8001878:	687b      	ldr	r3, [r7, #4]
 800187a:	681b      	ldr	r3, [r3, #0]
 800187c:	68da      	ldr	r2, [r3, #12]
 800187e:	69fb      	ldr	r3, [r7, #28]
 8001880:	009b      	lsls	r3, r3, #2
 8001882:	3320      	adds	r3, #32
 8001884:	443b      	add	r3, r7
 8001886:	f843 2c14 	str.w	r2, [r3, #-20]
  for (i = 0U; i < 4U; i++)
 800188a:	69fb      	ldr	r3, [r7, #28]
 800188c:	3301      	adds	r3, #1
 800188e:	61fb      	str	r3, [r7, #28]
 8001890:	69fb      	ldr	r3, [r7, #28]
 8001892:	2b03      	cmp	r3, #3
 8001894:	d9f0      	bls.n	8001878 <CRYP_AES_ProcessData+0xe0>
  }
  i = 0U;
 8001896:	2300      	movs	r3, #0
 8001898:	61fb      	str	r3, [r7, #28]
  while ((hcryp->CrypOutCount < ((hcryp->Size + 3U) / 4U)) && (i < 4U))
 800189a:	e01a      	b.n	80018d2 <CRYP_AES_ProcessData+0x13a>
  {
    *(uint32_t *)(hcryp->pCrypOutBuffPtr + hcryp->CrypOutCount) = temp[i];
 800189c:	687b      	ldr	r3, [r7, #4]
 800189e:	6c1a      	ldr	r2, [r3, #64]	; 0x40
 80018a0:	687b      	ldr	r3, [r7, #4]
 80018a2:	f8b3 3048 	ldrh.w	r3, [r3, #72]	; 0x48
 80018a6:	b29b      	uxth	r3, r3
 80018a8:	009b      	lsls	r3, r3, #2
 80018aa:	441a      	add	r2, r3
 80018ac:	69fb      	ldr	r3, [r7, #28]
 80018ae:	009b      	lsls	r3, r3, #2
 80018b0:	3320      	adds	r3, #32
 80018b2:	443b      	add	r3, r7
 80018b4:	f853 3c14 	ldr.w	r3, [r3, #-20]
 80018b8:	6013      	str	r3, [r2, #0]
    hcryp->CrypOutCount++;
 80018ba:	687b      	ldr	r3, [r7, #4]
 80018bc:	f8b3 3048 	ldrh.w	r3, [r3, #72]	; 0x48
 80018c0:	b29b      	uxth	r3, r3
 80018c2:	3301      	adds	r3, #1
 80018c4:	b29a      	uxth	r2, r3
 80018c6:	687b      	ldr	r3, [r7, #4]
 80018c8:	f8a3 2048 	strh.w	r2, [r3, #72]	; 0x48
    i++;
 80018cc:	69fb      	ldr	r3, [r7, #28]
 80018ce:	3301      	adds	r3, #1
 80018d0:	61fb      	str	r3, [r7, #28]
  while ((hcryp->CrypOutCount < ((hcryp->Size + 3U) / 4U)) && (i < 4U))
 80018d2:	687b      	ldr	r3, [r7, #4]
 80018d4:	f8b3 3048 	ldrh.w	r3, [r3, #72]	; 0x48
 80018d8:	b29b      	uxth	r3, r3
 80018da:	461a      	mov	r2, r3
 80018dc:	687b      	ldr	r3, [r7, #4]
 80018de:	f8b3 304a 	ldrh.w	r3, [r3, #74]	; 0x4a
 80018e2:	3303      	adds	r3, #3
 80018e4:	089b      	lsrs	r3, r3, #2
 80018e6:	429a      	cmp	r2, r3
 80018e8:	d202      	bcs.n	80018f0 <CRYP_AES_ProcessData+0x158>
 80018ea:	69fb      	ldr	r3, [r7, #28]
 80018ec:	2b03      	cmp	r3, #3
 80018ee:	d9d5      	bls.n	800189c <CRYP_AES_ProcessData+0x104>
  }
}
 80018f0:	bf00      	nop
 80018f2:	3720      	adds	r7, #32
 80018f4:	46bd      	mov	sp, r7
 80018f6:	bd80      	pop	{r7, pc}

080018f8 <CRYP_SetKey>:
  * @param  KeySize Size of Key
  * @note   If pKey is NULL, the Key registers are not written.
  * @retval None
  */
static void CRYP_SetKey(CRYP_HandleTypeDef *hcryp, uint32_t KeySize)
{
 80018f8:	b480      	push	{r7}
 80018fa:	b083      	sub	sp, #12
 80018fc:	af00      	add	r7, sp, #0
 80018fe:	6078      	str	r0, [r7, #4]
 8001900:	6039      	str	r1, [r7, #0]
  if (hcryp->Init.pKey != NULL)
 8001902:	687b      	ldr	r3, [r7, #4]
 8001904:	68db      	ldr	r3, [r3, #12]
 8001906:	2b00      	cmp	r3, #0
 8001908:	d051      	beq.n	80019ae <CRYP_SetKey+0xb6>
  {
    switch (KeySize)
 800190a:	683b      	ldr	r3, [r7, #0]
 800190c:	2b00      	cmp	r3, #0
 800190e:	d034      	beq.n	800197a <CRYP_SetKey+0x82>
 8001910:	683b      	ldr	r3, [r7, #0]
 8001912:	f5b3 2f80 	cmp.w	r3, #262144	; 0x40000
 8001916:	d149      	bne.n	80019ac <CRYP_SetKey+0xb4>
    {
      case CRYP_KEYSIZE_256B:
        hcryp->Instance->KEYR7 = *(uint32_t *)(hcryp->Init.pKey);
 8001918:	687b      	ldr	r3, [r7, #4]
 800191a:	68da      	ldr	r2, [r3, #12]
 800191c:	687b      	ldr	r3, [r7, #4]
 800191e:	681b      	ldr	r3, [r3, #0]
 8001920:	6812      	ldr	r2, [r2, #0]
 8001922:	63da      	str	r2, [r3, #60]	; 0x3c
        hcryp->Instance->KEYR6 = *(uint32_t *)(hcryp->Init.pKey + 1U);
 8001924:	687b      	ldr	r3, [r7, #4]
 8001926:	68da      	ldr	r2, [r3, #12]
 8001928:	687b      	ldr	r3, [r7, #4]
 800192a:	681b      	ldr	r3, [r3, #0]
 800192c:	6852      	ldr	r2, [r2, #4]
 800192e:	639a      	str	r2, [r3, #56]	; 0x38
        hcryp->Instance->KEYR5 = *(uint32_t *)(hcryp->Init.pKey + 2U);
 8001930:	687b      	ldr	r3, [r7, #4]
 8001932:	68da      	ldr	r2, [r3, #12]
 8001934:	687b      	ldr	r3, [r7, #4]
 8001936:	681b      	ldr	r3, [r3, #0]
 8001938:	6892      	ldr	r2, [r2, #8]
 800193a:	635a      	str	r2, [r3, #52]	; 0x34
        hcryp->Instance->KEYR4 = *(uint32_t *)(hcryp->Init.pKey + 3U);
 800193c:	687b      	ldr	r3, [r7, #4]
 800193e:	68da      	ldr	r2, [r3, #12]
 8001940:	687b      	ldr	r3, [r7, #4]
 8001942:	681b      	ldr	r3, [r3, #0]
 8001944:	68d2      	ldr	r2, [r2, #12]
 8001946:	631a      	str	r2, [r3, #48]	; 0x30
        hcryp->Instance->KEYR3 = *(uint32_t *)(hcryp->Init.pKey + 4U);
 8001948:	687b      	ldr	r3, [r7, #4]
 800194a:	68da      	ldr	r2, [r3, #12]
 800194c:	687b      	ldr	r3, [r7, #4]
 800194e:	681b      	ldr	r3, [r3, #0]
 8001950:	6912      	ldr	r2, [r2, #16]
 8001952:	61da      	str	r2, [r3, #28]
        hcryp->Instance->KEYR2 = *(uint32_t *)(hcryp->Init.pKey + 5U);
 8001954:	687b      	ldr	r3, [r7, #4]
 8001956:	68da      	ldr	r2, [r3, #12]
 8001958:	687b      	ldr	r3, [r7, #4]
 800195a:	681b      	ldr	r3, [r3, #0]
 800195c:	6952      	ldr	r2, [r2, #20]
 800195e:	619a      	str	r2, [r3, #24]
        hcryp->Instance->KEYR1 = *(uint32_t *)(hcryp->Init.pKey + 6U);
 8001960:	687b      	ldr	r3, [r7, #4]
 8001962:	68da      	ldr	r2, [r3, #12]
 8001964:	687b      	ldr	r3, [r7, #4]
 8001966:	681b      	ldr	r3, [r3, #0]
 8001968:	6992      	ldr	r2, [r2, #24]
 800196a:	615a      	str	r2, [r3, #20]
        hcryp->Instance->KEYR0 = *(uint32_t *)(hcryp->Init.pKey + 7U);
 800196c:	687b      	ldr	r3, [r7, #4]
 800196e:	68da      	ldr	r2, [r3, #12]
 8001970:	687b      	ldr	r3, [r7, #4]
 8001972:	681b      	ldr	r3, [r3, #0]
 8001974:	69d2      	ldr	r2, [r2, #28]
 8001976:	611a      	str	r2, [r3, #16]
        break;
 8001978:	e019      	b.n	80019ae <CRYP_SetKey+0xb6>
      case CRYP_KEYSIZE_128B:
        hcryp->Instance->KEYR3 = *(uint32_t *)(hcryp->Init.pKey);
 800197a:	687b      	ldr	r3, [r7, #4]
 800197c:	68da      	ldr	r2, [r3, #12]
 800197e:	687b      	ldr	r3, [r7, #4]
 8001980:	681b      	ldr	r3, [r3, #0]
 8001982:	6812      	ldr	r2, [r2, #0]
 8001984:	61da      	str	r2, [r3, #28]
        hcryp->Instance->KEYR2 = *(uint32_t *)(hcryp->Init.pKey + 1U);
 8001986:	687b      	ldr	r3, [r7, #4]
 8001988:	68da      	ldr	r2, [r3, #12]
 800198a:	687b      	ldr	r3, [r7, #4]
 800198c:	681b      	ldr	r3, [r3, #0]
 800198e:	6852      	ldr	r2, [r2, #4]
 8001990:	619a      	str	r2, [r3, #24]
        hcryp->Instance->KEYR1 = *(uint32_t *)(hcryp->Init.pKey + 2U);
 8001992:	687b      	ldr	r3, [r7, #4]
 8001994:	68da      	ldr	r2, [r3, #12]
 8001996:	687b      	ldr	r3, [r7, #4]
 8001998:	681b      	ldr	r3, [r3, #0]
 800199a:	6892      	ldr	r2, [r2, #8]
 800199c:	615a      	str	r2, [r3, #20]
        hcryp->Instance->KEYR0 = *(uint32_t *)(hcryp->Init.pKey + 3U);
 800199e:	687b      	ldr	r3, [r7, #4]
 80019a0:	68da      	ldr	r2, [r3, #12]
 80019a2:	687b      	ldr	r3, [r7, #4]
 80019a4:	681b      	ldr	r3, [r3, #0]
 80019a6:	68d2      	ldr	r2, [r2, #12]
 80019a8:	611a      	str	r2, [r3, #16]
        break;
 80019aa:	e000      	b.n	80019ae <CRYP_SetKey+0xb6>
      default:
        break;
 80019ac:	bf00      	nop
    }
  }
}
 80019ae:	bf00      	nop
 80019b0:	370c      	adds	r7, #12
 80019b2:	46bd      	mov	sp, r7
 80019b4:	f85d 7b04 	ldr.w	r7, [sp], #4
 80019b8:	4770      	bx	lr

080019ba <CRYP_SetIV>:
  *         the configuration information for CRYP module
  * @note   If IV is NULL, the IV registers are not written.
  * @retval None
  */
static void CRYP_SetIV(CRYP_HandleTypeDef *hcryp)
{
 80019ba:	b480      	push	{r7}
 80019bc:	b083      	sub	sp, #12
 80019be:	af00      	add	r7, sp, #0
 80019c0:	6078      	str	r0, [r7, #4]
  if (hcryp->Init.pInitVect != NULL)
 80019c2:	687b      	ldr	r3, [r7, #4]
 80019c4:	691b      	ldr	r3, [r3, #16]
 80019c6:	2b00      	cmp	r3, #0
 80019c8:	d017      	beq.n	80019fa <CRYP_SetIV+0x40>
  {
    /* Set the Initialization Vector*/
    hcryp->Instance->IVR3 = *(uint32_t *)(hcryp->Init.pInitVect);
 80019ca:	687b      	ldr	r3, [r7, #4]
 80019cc:	691a      	ldr	r2, [r3, #16]
 80019ce:	687b      	ldr	r3, [r7, #4]
 80019d0:	681b      	ldr	r3, [r3, #0]
 80019d2:	6812      	ldr	r2, [r2, #0]
 80019d4:	62da      	str	r2, [r3, #44]	; 0x2c
    hcryp->Instance->IVR2 = *(uint32_t *)(hcryp->Init.pInitVect + 1U);
 80019d6:	687b      	ldr	r3, [r7, #4]
 80019d8:	691a      	ldr	r2, [r3, #16]
 80019da:	687b      	ldr	r3, [r7, #4]
 80019dc:	681b      	ldr	r3, [r3, #0]
 80019de:	6852      	ldr	r2, [r2, #4]
 80019e0:	629a      	str	r2, [r3, #40]	; 0x28
    hcryp->Instance->IVR1 = *(uint32_t *)(hcryp->Init.pInitVect + 2U);
 80019e2:	687b      	ldr	r3, [r7, #4]
 80019e4:	691a      	ldr	r2, [r3, #16]
 80019e6:	687b      	ldr	r3, [r7, #4]
 80019e8:	681b      	ldr	r3, [r3, #0]
 80019ea:	6892      	ldr	r2, [r2, #8]
 80019ec:	625a      	str	r2, [r3, #36]	; 0x24
    hcryp->Instance->IVR0 = *(uint32_t *)(hcryp->Init.pInitVect + 3U);
 80019ee:	687b      	ldr	r3, [r7, #4]
 80019f0:	691a      	ldr	r2, [r3, #16]
 80019f2:	687b      	ldr	r3, [r7, #4]
 80019f4:	681b      	ldr	r3, [r3, #0]
 80019f6:	68d2      	ldr	r2, [r2, #12]
 80019f8:	621a      	str	r2, [r3, #32]
  }
}
 80019fa:	bf00      	nop
 80019fc:	370c      	adds	r7, #12
 80019fe:	46bd      	mov	sp, r7
 8001a00:	f85d 7b04 	ldr.w	r7, [sp], #4
 8001a04:	4770      	bx	lr

08001a06 <CRYP_AESGCM_Process>:
  *         the configuration information for CRYP module
  * @param  Timeout Timeout duration
  * @retval HAL status
  */
static HAL_StatusTypeDef CRYP_AESGCM_Process(CRYP_HandleTypeDef *hcryp, uint32_t Timeout)
{
 8001a06:	b580      	push	{r7, lr}
 8001a08:	b08e      	sub	sp, #56	; 0x38
 8001a0a:	af00      	add	r7, sp, #0
 8001a0c:	6078      	str	r0, [r7, #4]
 8001a0e:	6039      	str	r1, [r7, #0]
  uint32_t tickstart;
  uint32_t wordsize = ((uint32_t)hcryp->Size / 4U);
 8001a10:	687b      	ldr	r3, [r7, #4]
 8001a12:	f8b3 304a 	ldrh.w	r3, [r3, #74]	; 0x4a
 8001a16:	089b      	lsrs	r3, r3, #2
 8001a18:	b29b      	uxth	r3, r3
 8001a1a:	637b      	str	r3, [r7, #52]	; 0x34
  uint32_t temp[4];  /* Temporary CrypOutBuff */
  uint32_t index;
  uint32_t lastwordsize;
  uint32_t incount;  /* Temporary CrypInCount Value */
  uint32_t outcount;  /* Temporary CrypOutCount Value */
  uint32_t dokeyivconfig = 1U; /* By default, carry out peripheral Key and IV configuration */
 8001a1c:	2301      	movs	r3, #1
 8001a1e:	623b      	str	r3, [r7, #32]

  if (hcryp->Init.KeyIVConfigSkip == CRYP_KEYIVCONFIG_ONCE)
 8001a20:	687b      	ldr	r3, [r7, #4]
 8001a22:	6adb      	ldr	r3, [r3, #44]	; 0x2c
 8001a24:	2b01      	cmp	r3, #1
 8001a26:	d118      	bne.n	8001a5a <CRYP_AESGCM_Process+0x54>
  {
    if (hcryp->KeyIVConfig == 1U)
 8001a28:	687b      	ldr	r3, [r7, #4]
 8001a2a:	6e1b      	ldr	r3, [r3, #96]	; 0x60
 8001a2c:	2b01      	cmp	r3, #1
 8001a2e:	d10a      	bne.n	8001a46 <CRYP_AESGCM_Process+0x40>
    {
      /* If the Key and IV configuration has to be done only once
         and if it has already been done, skip it */
      dokeyivconfig = 0U;
 8001a30:	2300      	movs	r3, #0
 8001a32:	623b      	str	r3, [r7, #32]
      hcryp->SizesSum += hcryp->Size; /* Compute message total payload length */
 8001a34:	687b      	ldr	r3, [r7, #4]
 8001a36:	6e5b      	ldr	r3, [r3, #100]	; 0x64
 8001a38:	687a      	ldr	r2, [r7, #4]
 8001a3a:	f8b2 204a 	ldrh.w	r2, [r2, #74]	; 0x4a
 8001a3e:	441a      	add	r2, r3
 8001a40:	687b      	ldr	r3, [r7, #4]
 8001a42:	665a      	str	r2, [r3, #100]	; 0x64
 8001a44:	e00f      	b.n	8001a66 <CRYP_AESGCM_Process+0x60>
    else
    {
      /* If the Key and IV configuration has to be done only once
         and if it has not been done already, do it and set KeyIVConfig
         to keep track it won't have to be done again next time */
      hcryp->KeyIVConfig = 1U;
 8001a46:	687b      	ldr	r3, [r7, #4]
 8001a48:	2201      	movs	r2, #1
 8001a4a:	661a      	str	r2, [r3, #96]	; 0x60
      hcryp->SizesSum = hcryp->Size; /* Merely store payload length */
 8001a4c:	687b      	ldr	r3, [r7, #4]
 8001a4e:	f8b3 304a 	ldrh.w	r3, [r3, #74]	; 0x4a
 8001a52:	461a      	mov	r2, r3
 8001a54:	687b      	ldr	r3, [r7, #4]
 8001a56:	665a      	str	r2, [r3, #100]	; 0x64
 8001a58:	e005      	b.n	8001a66 <CRYP_AESGCM_Process+0x60>
    }
  }
  else
  {
    hcryp->SizesSum = hcryp->Size;
 8001a5a:	687b      	ldr	r3, [r7, #4]
 8001a5c:	f8b3 304a 	ldrh.w	r3, [r3, #74]	; 0x4a
 8001a60:	461a      	mov	r2, r3
 8001a62:	687b      	ldr	r3, [r7, #4]
 8001a64:	665a      	str	r2, [r3, #100]	; 0x64
  }

  if (dokeyivconfig == 1U)
 8001a66:	6a3b      	ldr	r3, [r7, #32]
 8001a68:	2b01      	cmp	r3, #1
 8001a6a:	d15b      	bne.n	8001b24 <CRYP_AESGCM_Process+0x11e>
  {

    /*  Reset CrypHeaderCount */
    hcryp->CrypHeaderCount = 0U;
 8001a6c:	687b      	ldr	r3, [r7, #4]
 8001a6e:	2200      	movs	r2, #0
 8001a70:	f8a3 2044 	strh.w	r2, [r3, #68]	; 0x44

    /****************************** Init phase **********************************/

    CRYP_SET_PHASE(hcryp, CRYP_PHASE_INIT);
 8001a74:	687b      	ldr	r3, [r7, #4]
 8001a76:	681b      	ldr	r3, [r3, #0]
 8001a78:	681a      	ldr	r2, [r3, #0]
 8001a7a:	687b      	ldr	r3, [r7, #4]
 8001a7c:	681b      	ldr	r3, [r3, #0]
 8001a7e:	f422 42c0 	bic.w	r2, r2, #24576	; 0x6000
 8001a82:	601a      	str	r2, [r3, #0]
    /* Set the Key */
    if (hcryp->Init.KeyMode != CRYP_KEYMODE_SHARED)
 8001a84:	687b      	ldr	r3, [r7, #4]
 8001a86:	6b1b      	ldr	r3, [r3, #48]	; 0x30
 8001a88:	f1b3 7f00 	cmp.w	r3, #33554432	; 0x2000000
 8001a8c:	d006      	beq.n	8001a9c <CRYP_AESGCM_Process+0x96>
    {
      CRYP_SetKey(hcryp, hcryp->Init.KeySize);
 8001a8e:	687b      	ldr	r3, [r7, #4]
 8001a90:	689b      	ldr	r3, [r3, #8]
 8001a92:	4619      	mov	r1, r3
 8001a94:	6878      	ldr	r0, [r7, #4]
 8001a96:	f7ff ff2f 	bl	80018f8 <CRYP_SetKey>
 8001a9a:	e007      	b.n	8001aac <CRYP_AESGCM_Process+0xa6>
    }
    else /*after sharing the key, AES should set KMOD[1:0] to 00.*/
    {
      hcryp->Instance->CR &=  ~CRYP_KEYMODE_SHARED;
 8001a9c:	687b      	ldr	r3, [r7, #4]
 8001a9e:	681b      	ldr	r3, [r3, #0]
 8001aa0:	681a      	ldr	r2, [r3, #0]
 8001aa2:	687b      	ldr	r3, [r7, #4]
 8001aa4:	681b      	ldr	r3, [r3, #0]
 8001aa6:	f022 7200 	bic.w	r2, r2, #33554432	; 0x2000000
 8001aaa:	601a      	str	r2, [r3, #0]
    }
    /* Set the initialization vector and the counter : Initial Counter Block (ICB)*/
    CRYP_SetIV(hcryp);
 8001aac:	6878      	ldr	r0, [r7, #4]
 8001aae:	f7ff ff84 	bl	80019ba <CRYP_SetIV>

    /* Enable the CRYP peripheral */
    __HAL_CRYP_ENABLE(hcryp);
 8001ab2:	687b      	ldr	r3, [r7, #4]
 8001ab4:	681b      	ldr	r3, [r3, #0]
 8001ab6:	681a      	ldr	r2, [r3, #0]
 8001ab8:	687b      	ldr	r3, [r7, #4]
 8001aba:	681b      	ldr	r3, [r3, #0]
 8001abc:	f042 0201 	orr.w	r2, r2, #1
 8001ac0:	601a      	str	r2, [r3, #0]

    /* just wait for hash computation */
    if (CRYP_WaitOnCCFlag(hcryp, Timeout) != HAL_OK)
 8001ac2:	6839      	ldr	r1, [r7, #0]
 8001ac4:	6878      	ldr	r0, [r7, #4]
 8001ac6:	f000 fc93 	bl	80023f0 <CRYP_WaitOnCCFlag>
 8001aca:	4603      	mov	r3, r0
 8001acc:	2b00      	cmp	r3, #0
 8001ace:	d001      	beq.n	8001ad4 <CRYP_AESGCM_Process+0xce>
    {
      return HAL_ERROR;
 8001ad0:	2301      	movs	r3, #1
 8001ad2:	e129      	b.n	8001d28 <CRYP_AESGCM_Process+0x322>
    }
    /* Clear CCF flag */
    __HAL_CRYP_CLEAR_FLAG(hcryp, CRYP_CLEAR_CCF);
 8001ad4:	687b      	ldr	r3, [r7, #4]
 8001ad6:	681b      	ldr	r3, [r3, #0]
 8001ad8:	f8d3 2308 	ldr.w	r2, [r3, #776]	; 0x308
 8001adc:	687b      	ldr	r3, [r7, #4]
 8001ade:	681b      	ldr	r3, [r3, #0]
 8001ae0:	f042 0201 	orr.w	r2, r2, #1
 8001ae4:	f8c3 2308 	str.w	r2, [r3, #776]	; 0x308

    /************************ Header phase *************************************/

    if (CRYP_GCMCCM_SetHeaderPhase(hcryp,  Timeout) != HAL_OK)
 8001ae8:	6839      	ldr	r1, [r7, #0]
 8001aea:	6878      	ldr	r0, [r7, #4]
 8001aec:	f000 faca 	bl	8002084 <CRYP_GCMCCM_SetHeaderPhase>
 8001af0:	4603      	mov	r3, r0
 8001af2:	2b00      	cmp	r3, #0
 8001af4:	d001      	beq.n	8001afa <CRYP_AESGCM_Process+0xf4>
    {
      return HAL_ERROR;
 8001af6:	2301      	movs	r3, #1
 8001af8:	e116      	b.n	8001d28 <CRYP_AESGCM_Process+0x322>
    }

    /*************************Payload phase ************************************/

    /* Set the phase */
    hcryp->Phase = CRYP_PHASE_PROCESS;
 8001afa:	687b      	ldr	r3, [r7, #4]
 8001afc:	2202      	movs	r2, #2
 8001afe:	64da      	str	r2, [r3, #76]	; 0x4c

    /* Select payload phase once the header phase is performed */
    CRYP_SET_PHASE(hcryp, CRYP_PHASE_PAYLOAD);
 8001b00:	687b      	ldr	r3, [r7, #4]
 8001b02:	681b      	ldr	r3, [r3, #0]
 8001b04:	681b      	ldr	r3, [r3, #0]
 8001b06:	f423 42c0 	bic.w	r2, r3, #24576	; 0x6000
 8001b0a:	687b      	ldr	r3, [r7, #4]
 8001b0c:	681b      	ldr	r3, [r3, #0]
 8001b0e:	f442 4280 	orr.w	r2, r2, #16384	; 0x4000
 8001b12:	601a      	str	r2, [r3, #0]

    /* Set to 0 the number of non-valid bytes using NPBLB register*/
    MODIFY_REG(hcryp->Instance->CR, AES_CR_NPBLB, 0U);
 8001b14:	687b      	ldr	r3, [r7, #4]
 8001b16:	681b      	ldr	r3, [r3, #0]
 8001b18:	681a      	ldr	r2, [r3, #0]
 8001b1a:	687b      	ldr	r3, [r7, #4]
 8001b1c:	681b      	ldr	r3, [r3, #0]
 8001b1e:	f422 0270 	bic.w	r2, r2, #15728640	; 0xf00000
 8001b22:	601a      	str	r2, [r3, #0]

  } /* if (dokeyivconfig == 1U) */

  if ((hcryp->Size % 16U) != 0U)
 8001b24:	687b      	ldr	r3, [r7, #4]
 8001b26:	f8b3 304a 	ldrh.w	r3, [r3, #74]	; 0x4a
 8001b2a:	f003 030f 	and.w	r3, r3, #15
 8001b2e:	b29b      	uxth	r3, r3
 8001b30:	2b00      	cmp	r3, #0
 8001b32:	d003      	beq.n	8001b3c <CRYP_AESGCM_Process+0x136>
  {
    /* recalculate  wordsize */
    wordsize = ((wordsize / 4U) * 4U);
 8001b34:	6b7b      	ldr	r3, [r7, #52]	; 0x34
 8001b36:	f023 0303 	bic.w	r3, r3, #3
 8001b3a:	637b      	str	r3, [r7, #52]	; 0x34
  }

  /* Get tick */
  tickstart = HAL_GetTick();
 8001b3c:	f7fe ff44 	bl	80009c8 <HAL_GetTick>
 8001b40:	61f8      	str	r0, [r7, #28]

  /* Write input data and get output Data */
  incount = hcryp->CrypInCount;
 8001b42:	687b      	ldr	r3, [r7, #4]
 8001b44:	f8b3 3046 	ldrh.w	r3, [r3, #70]	; 0x46
 8001b48:	b29b      	uxth	r3, r3
 8001b4a:	62bb      	str	r3, [r7, #40]	; 0x28
  outcount = hcryp->CrypOutCount;
 8001b4c:	687b      	ldr	r3, [r7, #4]
 8001b4e:	f8b3 3048 	ldrh.w	r3, [r3, #72]	; 0x48
 8001b52:	b29b      	uxth	r3, r3
 8001b54:	627b      	str	r3, [r7, #36]	; 0x24
  while ((incount < wordsize) && (outcount < wordsize))
 8001b56:	e034      	b.n	8001bc2 <CRYP_AESGCM_Process+0x1bc>
  {
    /* Write plain data and get cipher data */
    CRYP_AES_ProcessData(hcryp, Timeout);
 8001b58:	6839      	ldr	r1, [r7, #0]
 8001b5a:	6878      	ldr	r0, [r7, #4]
 8001b5c:	f7ff fe1c 	bl	8001798 <CRYP_AES_ProcessData>

    /* Check for the Timeout */
    if (Timeout != HAL_MAX_DELAY)
 8001b60:	683b      	ldr	r3, [r7, #0]
 8001b62:	f1b3 3fff 	cmp.w	r3, #4294967295	; 0xffffffff
 8001b66:	d022      	beq.n	8001bae <CRYP_AESGCM_Process+0x1a8>
    {
      if (((HAL_GetTick() - tickstart) > Timeout) || (Timeout == 0U))
 8001b68:	f7fe ff2e 	bl	80009c8 <HAL_GetTick>
 8001b6c:	4602      	mov	r2, r0
 8001b6e:	69fb      	ldr	r3, [r7, #28]
 8001b70:	1ad3      	subs	r3, r2, r3
 8001b72:	683a      	ldr	r2, [r7, #0]
 8001b74:	429a      	cmp	r2, r3
 8001b76:	d302      	bcc.n	8001b7e <CRYP_AESGCM_Process+0x178>
 8001b78:	683b      	ldr	r3, [r7, #0]
 8001b7a:	2b00      	cmp	r3, #0
 8001b7c:	d117      	bne.n	8001bae <CRYP_AESGCM_Process+0x1a8>
      {
        /* Disable the CRYP peripheral clock */
        __HAL_CRYP_DISABLE(hcryp);
 8001b7e:	687b      	ldr	r3, [r7, #4]
 8001b80:	681b      	ldr	r3, [r3, #0]
 8001b82:	681a      	ldr	r2, [r3, #0]
 8001b84:	687b      	ldr	r3, [r7, #4]
 8001b86:	681b      	ldr	r3, [r3, #0]
 8001b88:	f022 0201 	bic.w	r2, r2, #1
 8001b8c:	601a      	str	r2, [r3, #0]

        /* Change state & error code */
        hcryp->ErrorCode |= HAL_CRYP_ERROR_TIMEOUT;
 8001b8e:	687b      	ldr	r3, [r7, #4]
 8001b90:	6ddb      	ldr	r3, [r3, #92]	; 0x5c
 8001b92:	f043 0210 	orr.w	r2, r3, #16
 8001b96:	687b      	ldr	r3, [r7, #4]
 8001b98:	65da      	str	r2, [r3, #92]	; 0x5c
        hcryp->State = HAL_CRYP_STATE_READY;
 8001b9a:	687b      	ldr	r3, [r7, #4]
 8001b9c:	2201      	movs	r2, #1
 8001b9e:	f883 2059 	strb.w	r2, [r3, #89]	; 0x59
        __HAL_UNLOCK(hcryp);
 8001ba2:	687b      	ldr	r3, [r7, #4]
 8001ba4:	2200      	movs	r2, #0
 8001ba6:	f883 2058 	strb.w	r2, [r3, #88]	; 0x58
        return HAL_ERROR;
 8001baa:	2301      	movs	r3, #1
 8001bac:	e0bc      	b.n	8001d28 <CRYP_AESGCM_Process+0x322>
      }
    }
    incount = hcryp->CrypInCount;
 8001bae:	687b      	ldr	r3, [r7, #4]
 8001bb0:	f8b3 3046 	ldrh.w	r3, [r3, #70]	; 0x46
 8001bb4:	b29b      	uxth	r3, r3
 8001bb6:	62bb      	str	r3, [r7, #40]	; 0x28
    outcount = hcryp->CrypOutCount;
 8001bb8:	687b      	ldr	r3, [r7, #4]
 8001bba:	f8b3 3048 	ldrh.w	r3, [r3, #72]	; 0x48
 8001bbe:	b29b      	uxth	r3, r3
 8001bc0:	627b      	str	r3, [r7, #36]	; 0x24
  while ((incount < wordsize) && (outcount < wordsize))
 8001bc2:	6aba      	ldr	r2, [r7, #40]	; 0x28
 8001bc4:	6b7b      	ldr	r3, [r7, #52]	; 0x34
 8001bc6:	429a      	cmp	r2, r3
 8001bc8:	d203      	bcs.n	8001bd2 <CRYP_AESGCM_Process+0x1cc>
 8001bca:	6a7a      	ldr	r2, [r7, #36]	; 0x24
 8001bcc:	6b7b      	ldr	r3, [r7, #52]	; 0x34
 8001bce:	429a      	cmp	r2, r3
 8001bd0:	d3c2      	bcc.n	8001b58 <CRYP_AESGCM_Process+0x152>
  }

  if ((hcryp->Size % 16U) != 0U)
 8001bd2:	687b      	ldr	r3, [r7, #4]
 8001bd4:	f8b3 304a 	ldrh.w	r3, [r3, #74]	; 0x4a
 8001bd8:	f003 030f 	and.w	r3, r3, #15
 8001bdc:	b29b      	uxth	r3, r3
 8001bde:	2b00      	cmp	r3, #0
 8001be0:	f000 80a1 	beq.w	8001d26 <CRYP_AESGCM_Process+0x320>
  {
    /* Compute the number of padding bytes in last block of payload */
    npblb = ((((uint32_t)hcryp->Size / 16U) + 1U) * 16U) - ((uint32_t)hcryp->Size);
 8001be4:	687b      	ldr	r3, [r7, #4]
 8001be6:	f8b3 304a 	ldrh.w	r3, [r3, #74]	; 0x4a
 8001bea:	091b      	lsrs	r3, r3, #4
 8001bec:	b29b      	uxth	r3, r3
 8001bee:	3301      	adds	r3, #1
 8001bf0:	011b      	lsls	r3, r3, #4
 8001bf2:	687a      	ldr	r2, [r7, #4]
 8001bf4:	f8b2 204a 	ldrh.w	r2, [r2, #74]	; 0x4a
 8001bf8:	1a9b      	subs	r3, r3, r2
 8001bfa:	61bb      	str	r3, [r7, #24]

    /*  Set Npblb in case of AES GCM payload encryption to get right tag*/
    if ((hcryp->Instance->CR & AES_CR_MODE) == CRYP_OPERATINGMODE_ENCRYPT)
 8001bfc:	687b      	ldr	r3, [r7, #4]
 8001bfe:	681b      	ldr	r3, [r3, #0]
 8001c00:	681b      	ldr	r3, [r3, #0]
 8001c02:	f003 0318 	and.w	r3, r3, #24
 8001c06:	2b00      	cmp	r3, #0
 8001c08:	d10a      	bne.n	8001c20 <CRYP_AESGCM_Process+0x21a>
    {
      /* Set to 0 the number of non-valid bytes using NPBLB register*/
      MODIFY_REG(hcryp->Instance->CR, AES_CR_NPBLB, npblb << 20U);
 8001c0a:	687b      	ldr	r3, [r7, #4]
 8001c0c:	681b      	ldr	r3, [r3, #0]
 8001c0e:	681b      	ldr	r3, [r3, #0]
 8001c10:	f423 0170 	bic.w	r1, r3, #15728640	; 0xf00000
 8001c14:	69bb      	ldr	r3, [r7, #24]
 8001c16:	051a      	lsls	r2, r3, #20
 8001c18:	687b      	ldr	r3, [r7, #4]
 8001c1a:	681b      	ldr	r3, [r3, #0]
 8001c1c:	430a      	orrs	r2, r1
 8001c1e:	601a      	str	r2, [r3, #0]
    }
    /* Number of valid words (lastwordsize) in last block */
    if ((npblb % 4U) == 0U)
 8001c20:	69bb      	ldr	r3, [r7, #24]
 8001c22:	f003 0303 	and.w	r3, r3, #3
 8001c26:	2b00      	cmp	r3, #0
 8001c28:	d105      	bne.n	8001c36 <CRYP_AESGCM_Process+0x230>
    {
      lastwordsize = (16U - npblb) / 4U;
 8001c2a:	69bb      	ldr	r3, [r7, #24]
 8001c2c:	f1c3 0310 	rsb	r3, r3, #16
 8001c30:	089b      	lsrs	r3, r3, #2
 8001c32:	62fb      	str	r3, [r7, #44]	; 0x2c
 8001c34:	e005      	b.n	8001c42 <CRYP_AESGCM_Process+0x23c>
    }
    else
    {
      lastwordsize = ((16U - npblb) / 4U) + 1U;
 8001c36:	69bb      	ldr	r3, [r7, #24]
 8001c38:	f1c3 0310 	rsb	r3, r3, #16
 8001c3c:	089b      	lsrs	r3, r3, #2
 8001c3e:	3301      	adds	r3, #1
 8001c40:	62fb      	str	r3, [r7, #44]	; 0x2c
    }
    /*  last block optionally pad the data with zeros*/
    for (index = 0U; index < lastwordsize; index ++)
 8001c42:	2300      	movs	r3, #0
 8001c44:	633b      	str	r3, [r7, #48]	; 0x30
 8001c46:	e017      	b.n	8001c78 <CRYP_AESGCM_Process+0x272>
    {
      /* Write the last Input block in the IN FIFO */
      hcryp->Instance->DINR  = *(uint32_t *)(hcryp->pCrypInBuffPtr + hcryp->CrypInCount);
 8001c48:	687b      	ldr	r3, [r7, #4]
 8001c4a:	6bda      	ldr	r2, [r3, #60]	; 0x3c
 8001c4c:	687b      	ldr	r3, [r7, #4]
 8001c4e:	f8b3 3046 	ldrh.w	r3, [r3, #70]	; 0x46
 8001c52:	b29b      	uxth	r3, r3
 8001c54:	009b      	lsls	r3, r3, #2
 8001c56:	441a      	add	r2, r3
 8001c58:	687b      	ldr	r3, [r7, #4]
 8001c5a:	681b      	ldr	r3, [r3, #0]
 8001c5c:	6812      	ldr	r2, [r2, #0]
 8001c5e:	609a      	str	r2, [r3, #8]
      hcryp->CrypInCount++;
 8001c60:	687b      	ldr	r3, [r7, #4]
 8001c62:	f8b3 3046 	ldrh.w	r3, [r3, #70]	; 0x46
 8001c66:	b29b      	uxth	r3, r3
 8001c68:	3301      	adds	r3, #1
 8001c6a:	b29a      	uxth	r2, r3
 8001c6c:	687b      	ldr	r3, [r7, #4]
 8001c6e:	f8a3 2046 	strh.w	r2, [r3, #70]	; 0x46
    for (index = 0U; index < lastwordsize; index ++)
 8001c72:	6b3b      	ldr	r3, [r7, #48]	; 0x30
 8001c74:	3301      	adds	r3, #1
 8001c76:	633b      	str	r3, [r7, #48]	; 0x30
 8001c78:	6b3a      	ldr	r2, [r7, #48]	; 0x30
 8001c7a:	6afb      	ldr	r3, [r7, #44]	; 0x2c
 8001c7c:	429a      	cmp	r2, r3
 8001c7e:	d3e3      	bcc.n	8001c48 <CRYP_AESGCM_Process+0x242>
    }
    while (index < 4U)
 8001c80:	e006      	b.n	8001c90 <CRYP_AESGCM_Process+0x28a>
    {
      /* pad the data with zeros to have a complete block */
      hcryp->Instance->DINR  = 0U;
 8001c82:	687b      	ldr	r3, [r7, #4]
 8001c84:	681b      	ldr	r3, [r3, #0]
 8001c86:	2200      	movs	r2, #0
 8001c88:	609a      	str	r2, [r3, #8]
      index++;
 8001c8a:	6b3b      	ldr	r3, [r7, #48]	; 0x30
 8001c8c:	3301      	adds	r3, #1
 8001c8e:	633b      	str	r3, [r7, #48]	; 0x30
    while (index < 4U)
 8001c90:	6b3b      	ldr	r3, [r7, #48]	; 0x30
 8001c92:	2b03      	cmp	r3, #3
 8001c94:	d9f5      	bls.n	8001c82 <CRYP_AESGCM_Process+0x27c>
    }
    /* Wait for CCF flag to be raised */
    if (CRYP_WaitOnCCFlag(hcryp, Timeout) != HAL_OK)
 8001c96:	6839      	ldr	r1, [r7, #0]
 8001c98:	6878      	ldr	r0, [r7, #4]
 8001c9a:	f000 fba9 	bl	80023f0 <CRYP_WaitOnCCFlag>
 8001c9e:	4603      	mov	r3, r0
 8001ca0:	2b00      	cmp	r3, #0
 8001ca2:	d002      	beq.n	8001caa <CRYP_AESGCM_Process+0x2a4>
#if (USE_HAL_CRYP_REGISTER_CALLBACKS == 1U)
      /*Call registered error callback*/
      hcryp->ErrorCallback(hcryp);
#else
      /*Call legacy weak error callback*/
      HAL_CRYP_ErrorCallback(hcryp);
 8001ca4:	6878      	ldr	r0, [r7, #4]
 8001ca6:	f7ff fafd 	bl	80012a4 <HAL_CRYP_ErrorCallback>
#endif /* USE_HAL_CRYP_REGISTER_CALLBACKS */
    }

    /* Clear CCF Flag */
    __HAL_CRYP_CLEAR_FLAG(hcryp, CRYP_CLEAR_CCF);
 8001caa:	687b      	ldr	r3, [r7, #4]
 8001cac:	681b      	ldr	r3, [r3, #0]
 8001cae:	f8d3 2308 	ldr.w	r2, [r3, #776]	; 0x308
 8001cb2:	687b      	ldr	r3, [r7, #4]
 8001cb4:	681b      	ldr	r3, [r3, #0]
 8001cb6:	f042 0201 	orr.w	r2, r2, #1
 8001cba:	f8c3 2308 	str.w	r2, [r3, #776]	; 0x308

    /*Read the output block from the output FIFO */
    for (index = 0U; index < 4U; index++)
 8001cbe:	2300      	movs	r3, #0
 8001cc0:	633b      	str	r3, [r7, #48]	; 0x30
 8001cc2:	e00b      	b.n	8001cdc <CRYP_AESGCM_Process+0x2d6>
    {
      /* Read the output block from the output FIFO and put them in temporary buffer then
         get CrypOutBuff from temporary buffer */
      temp[index] = hcryp->Instance->DOUTR;
 8001cc4:	687b      	ldr	r3, [r7, #4]
 8001cc6:	681b      	ldr	r3, [r3, #0]
 8001cc8:	68da      	ldr	r2, [r3, #12]
 8001cca:	6b3b      	ldr	r3, [r7, #48]	; 0x30
 8001ccc:	009b      	lsls	r3, r3, #2
 8001cce:	3338      	adds	r3, #56	; 0x38
 8001cd0:	443b      	add	r3, r7
 8001cd2:	f843 2c30 	str.w	r2, [r3, #-48]
    for (index = 0U; index < 4U; index++)
 8001cd6:	6b3b      	ldr	r3, [r7, #48]	; 0x30
 8001cd8:	3301      	adds	r3, #1
 8001cda:	633b      	str	r3, [r7, #48]	; 0x30
 8001cdc:	6b3b      	ldr	r3, [r7, #48]	; 0x30
 8001cde:	2b03      	cmp	r3, #3
 8001ce0:	d9f0      	bls.n	8001cc4 <CRYP_AESGCM_Process+0x2be>
    }
    for (index = 0U; index < lastwordsize; index++)
 8001ce2:	2300      	movs	r3, #0
 8001ce4:	633b      	str	r3, [r7, #48]	; 0x30
 8001ce6:	e01a      	b.n	8001d1e <CRYP_AESGCM_Process+0x318>
    {
      *(uint32_t *)(hcryp->pCrypOutBuffPtr + (hcryp->CrypOutCount)) = temp[index];
 8001ce8:	687b      	ldr	r3, [r7, #4]
 8001cea:	6c1a      	ldr	r2, [r3, #64]	; 0x40
 8001cec:	687b      	ldr	r3, [r7, #4]
 8001cee:	f8b3 3048 	ldrh.w	r3, [r3, #72]	; 0x48
 8001cf2:	b29b      	uxth	r3, r3
 8001cf4:	009b      	lsls	r3, r3, #2
 8001cf6:	441a      	add	r2, r3
 8001cf8:	6b3b      	ldr	r3, [r7, #48]	; 0x30
 8001cfa:	009b      	lsls	r3, r3, #2
 8001cfc:	3338      	adds	r3, #56	; 0x38
 8001cfe:	443b      	add	r3, r7
 8001d00:	f853 3c30 	ldr.w	r3, [r3, #-48]
 8001d04:	6013      	str	r3, [r2, #0]
      hcryp->CrypOutCount++;
 8001d06:	687b      	ldr	r3, [r7, #4]
 8001d08:	f8b3 3048 	ldrh.w	r3, [r3, #72]	; 0x48
 8001d0c:	b29b      	uxth	r3, r3
 8001d0e:	3301      	adds	r3, #1
 8001d10:	b29a      	uxth	r2, r3
 8001d12:	687b      	ldr	r3, [r7, #4]
 8001d14:	f8a3 2048 	strh.w	r2, [r3, #72]	; 0x48
    for (index = 0U; index < lastwordsize; index++)
 8001d18:	6b3b      	ldr	r3, [r7, #48]	; 0x30
 8001d1a:	3301      	adds	r3, #1
 8001d1c:	633b      	str	r3, [r7, #48]	; 0x30
 8001d1e:	6b3a      	ldr	r2, [r7, #48]	; 0x30
 8001d20:	6afb      	ldr	r3, [r7, #44]	; 0x2c
 8001d22:	429a      	cmp	r2, r3
 8001d24:	d3e0      	bcc.n	8001ce8 <CRYP_AESGCM_Process+0x2e2>
    }
  }

  return HAL_OK;
 8001d26:	2300      	movs	r3, #0
}
 8001d28:	4618      	mov	r0, r3
 8001d2a:	3738      	adds	r7, #56	; 0x38
 8001d2c:	46bd      	mov	sp, r7
 8001d2e:	bd80      	pop	{r7, pc}

08001d30 <CRYP_AESCCM_Process>:
  *         the configuration information for CRYP module
  * @param  Timeout Timeout duration
  * @retval HAL status
  */
static HAL_StatusTypeDef CRYP_AESCCM_Process(CRYP_HandleTypeDef *hcryp, uint32_t Timeout)
{
 8001d30:	b580      	push	{r7, lr}
 8001d32:	b08e      	sub	sp, #56	; 0x38
 8001d34:	af00      	add	r7, sp, #0
 8001d36:	6078      	str	r0, [r7, #4]
 8001d38:	6039      	str	r1, [r7, #0]
  uint32_t tickstart;
  uint32_t wordsize = ((uint32_t)hcryp->Size / 4U);
 8001d3a:	687b      	ldr	r3, [r7, #4]
 8001d3c:	f8b3 304a 	ldrh.w	r3, [r3, #74]	; 0x4a
 8001d40:	089b      	lsrs	r3, r3, #2
 8001d42:	b29b      	uxth	r3, r3
 8001d44:	637b      	str	r3, [r7, #52]	; 0x34
  uint32_t npblb;
  uint32_t lastwordsize;
  uint32_t temp[4];  /* Temporary CrypOutBuff */
  uint32_t incount;  /* Temporary CrypInCount Value */
  uint32_t outcount;  /* Temporary CrypOutCount Value */
  uint32_t dokeyivconfig = 1U; /* By default, carry out peripheral Key and IV configuration */
 8001d46:	2301      	movs	r3, #1
 8001d48:	623b      	str	r3, [r7, #32]

  if (hcryp->Init.KeyIVConfigSkip == CRYP_KEYIVCONFIG_ONCE)
 8001d4a:	687b      	ldr	r3, [r7, #4]
 8001d4c:	6adb      	ldr	r3, [r3, #44]	; 0x2c
 8001d4e:	2b01      	cmp	r3, #1
 8001d50:	d118      	bne.n	8001d84 <CRYP_AESCCM_Process+0x54>
  {
    if (hcryp->KeyIVConfig == 1U)
 8001d52:	687b      	ldr	r3, [r7, #4]
 8001d54:	6e1b      	ldr	r3, [r3, #96]	; 0x60
 8001d56:	2b01      	cmp	r3, #1
 8001d58:	d10a      	bne.n	8001d70 <CRYP_AESCCM_Process+0x40>
    {
      /* If the Key and IV configuration has to be done only once
         and if it has already been done, skip it */
      dokeyivconfig = 0U;
 8001d5a:	2300      	movs	r3, #0
 8001d5c:	623b      	str	r3, [r7, #32]
      hcryp->SizesSum += hcryp->Size; /* Compute message total payload length */
 8001d5e:	687b      	ldr	r3, [r7, #4]
 8001d60:	6e5b      	ldr	r3, [r3, #100]	; 0x64
 8001d62:	687a      	ldr	r2, [r7, #4]
 8001d64:	f8b2 204a 	ldrh.w	r2, [r2, #74]	; 0x4a
 8001d68:	441a      	add	r2, r3
 8001d6a:	687b      	ldr	r3, [r7, #4]
 8001d6c:	665a      	str	r2, [r3, #100]	; 0x64
 8001d6e:	e00f      	b.n	8001d90 <CRYP_AESCCM_Process+0x60>
    else
    {
      /* If the Key and IV configuration has to be done only once
         and if it has not been done already, do it and set KeyIVConfig
         to keep track it won't have to be done again next time */
      hcryp->KeyIVConfig = 1U;
 8001d70:	687b      	ldr	r3, [r7, #4]
 8001d72:	2201      	movs	r2, #1
 8001d74:	661a      	str	r2, [r3, #96]	; 0x60
      hcryp->SizesSum = hcryp->Size; /* Merely store payload length */
 8001d76:	687b      	ldr	r3, [r7, #4]
 8001d78:	f8b3 304a 	ldrh.w	r3, [r3, #74]	; 0x4a
 8001d7c:	461a      	mov	r2, r3
 8001d7e:	687b      	ldr	r3, [r7, #4]
 8001d80:	665a      	str	r2, [r3, #100]	; 0x64
 8001d82:	e005      	b.n	8001d90 <CRYP_AESCCM_Process+0x60>
    }
  }
  else
  {
    hcryp->SizesSum = hcryp->Size;
 8001d84:	687b      	ldr	r3, [r7, #4]
 8001d86:	f8b3 304a 	ldrh.w	r3, [r3, #74]	; 0x4a
 8001d8a:	461a      	mov	r2, r3
 8001d8c:	687b      	ldr	r3, [r7, #4]
 8001d8e:	665a      	str	r2, [r3, #100]	; 0x64
  }

  if (dokeyivconfig == 1U)
 8001d90:	6a3b      	ldr	r3, [r7, #32]
 8001d92:	2b01      	cmp	r3, #1
 8001d94:	d170      	bne.n	8001e78 <CRYP_AESCCM_Process+0x148>
  {
    /*  Reset CrypHeaderCount */
    hcryp->CrypHeaderCount = 0U;
 8001d96:	687b      	ldr	r3, [r7, #4]
 8001d98:	2200      	movs	r2, #0
 8001d9a:	f8a3 2044 	strh.w	r2, [r3, #68]	; 0x44

    /********************** Init phase ******************************************/

    CRYP_SET_PHASE(hcryp, CRYP_PHASE_INIT);
 8001d9e:	687b      	ldr	r3, [r7, #4]
 8001da0:	681b      	ldr	r3, [r3, #0]
 8001da2:	681a      	ldr	r2, [r3, #0]
 8001da4:	687b      	ldr	r3, [r7, #4]
 8001da6:	681b      	ldr	r3, [r3, #0]
 8001da8:	f422 42c0 	bic.w	r2, r2, #24576	; 0x6000
 8001dac:	601a      	str	r2, [r3, #0]
    /* Set the Key */
    if (hcryp->Init.KeyMode != CRYP_KEYMODE_SHARED)
 8001dae:	687b      	ldr	r3, [r7, #4]
 8001db0:	6b1b      	ldr	r3, [r3, #48]	; 0x30
 8001db2:	f1b3 7f00 	cmp.w	r3, #33554432	; 0x2000000
 8001db6:	d006      	beq.n	8001dc6 <CRYP_AESCCM_Process+0x96>
    {
      CRYP_SetKey(hcryp, hcryp->Init.KeySize);
 8001db8:	687b      	ldr	r3, [r7, #4]
 8001dba:	689b      	ldr	r3, [r3, #8]
 8001dbc:	4619      	mov	r1, r3
 8001dbe:	6878      	ldr	r0, [r7, #4]
 8001dc0:	f7ff fd9a 	bl	80018f8 <CRYP_SetKey>
 8001dc4:	e007      	b.n	8001dd6 <CRYP_AESCCM_Process+0xa6>
    }
    else /*after sharing the key, AES should set KMOD[1:0] to 00.*/
    {
      hcryp->Instance->CR &=  ~CRYP_KEYMODE_SHARED;
 8001dc6:	687b      	ldr	r3, [r7, #4]
 8001dc8:	681b      	ldr	r3, [r3, #0]
 8001dca:	681a      	ldr	r2, [r3, #0]
 8001dcc:	687b      	ldr	r3, [r7, #4]
 8001dce:	681b      	ldr	r3, [r3, #0]
 8001dd0:	f022 7200 	bic.w	r2, r2, #33554432	; 0x2000000
 8001dd4:	601a      	str	r2, [r3, #0]
    }
    /* Set the initialization vector (IV) with B0 */
    hcryp->Instance->IVR3 = *(uint32_t *)(hcryp->Init.B0);
 8001dd6:	687b      	ldr	r3, [r7, #4]
 8001dd8:	6a1a      	ldr	r2, [r3, #32]
 8001dda:	687b      	ldr	r3, [r7, #4]
 8001ddc:	681b      	ldr	r3, [r3, #0]
 8001dde:	6812      	ldr	r2, [r2, #0]
 8001de0:	62da      	str	r2, [r3, #44]	; 0x2c
    hcryp->Instance->IVR2 = *(uint32_t *)(hcryp->Init.B0 + 1U);
 8001de2:	687b      	ldr	r3, [r7, #4]
 8001de4:	6a1a      	ldr	r2, [r3, #32]
 8001de6:	687b      	ldr	r3, [r7, #4]
 8001de8:	681b      	ldr	r3, [r3, #0]
 8001dea:	6852      	ldr	r2, [r2, #4]
 8001dec:	629a      	str	r2, [r3, #40]	; 0x28
    hcryp->Instance->IVR1 = *(uint32_t *)(hcryp->Init.B0 + 2U);
 8001dee:	687b      	ldr	r3, [r7, #4]
 8001df0:	6a1a      	ldr	r2, [r3, #32]
 8001df2:	687b      	ldr	r3, [r7, #4]
 8001df4:	681b      	ldr	r3, [r3, #0]
 8001df6:	6892      	ldr	r2, [r2, #8]
 8001df8:	625a      	str	r2, [r3, #36]	; 0x24
    hcryp->Instance->IVR0 = *(uint32_t *)(hcryp->Init.B0 + 3U);
 8001dfa:	687b      	ldr	r3, [r7, #4]
 8001dfc:	6a1a      	ldr	r2, [r3, #32]
 8001dfe:	687b      	ldr	r3, [r7, #4]
 8001e00:	681b      	ldr	r3, [r3, #0]
 8001e02:	68d2      	ldr	r2, [r2, #12]
 8001e04:	621a      	str	r2, [r3, #32]

    /* Enable the CRYP peripheral */
    __HAL_CRYP_ENABLE(hcryp);
 8001e06:	687b      	ldr	r3, [r7, #4]
 8001e08:	681b      	ldr	r3, [r3, #0]
 8001e0a:	681a      	ldr	r2, [r3, #0]
 8001e0c:	687b      	ldr	r3, [r7, #4]
 8001e0e:	681b      	ldr	r3, [r3, #0]
 8001e10:	f042 0201 	orr.w	r2, r2, #1
 8001e14:	601a      	str	r2, [r3, #0]

    /* just wait for hash computation */
    if (CRYP_WaitOnCCFlag(hcryp, Timeout) != HAL_OK)
 8001e16:	6839      	ldr	r1, [r7, #0]
 8001e18:	6878      	ldr	r0, [r7, #4]
 8001e1a:	f000 fae9 	bl	80023f0 <CRYP_WaitOnCCFlag>
 8001e1e:	4603      	mov	r3, r0
 8001e20:	2b00      	cmp	r3, #0
 8001e22:	d001      	beq.n	8001e28 <CRYP_AESCCM_Process+0xf8>
    {
      return HAL_ERROR;
 8001e24:	2301      	movs	r3, #1
 8001e26:	e128      	b.n	800207a <CRYP_AESCCM_Process+0x34a>
    }
    /* Clear CCF flag */
    __HAL_CRYP_CLEAR_FLAG(hcryp, CRYP_CLEAR_CCF);
 8001e28:	687b      	ldr	r3, [r7, #4]
 8001e2a:	681b      	ldr	r3, [r3, #0]
 8001e2c:	f8d3 2308 	ldr.w	r2, [r3, #776]	; 0x308
 8001e30:	687b      	ldr	r3, [r7, #4]
 8001e32:	681b      	ldr	r3, [r3, #0]
 8001e34:	f042 0201 	orr.w	r2, r2, #1
 8001e38:	f8c3 2308 	str.w	r2, [r3, #776]	; 0x308

    /************************ Header phase *************************************/
    /* Header block(B1) : associated data length expressed in bytes concatenated
    with Associated Data (A)*/
    if (CRYP_GCMCCM_SetHeaderPhase(hcryp,  Timeout) != HAL_OK)
 8001e3c:	6839      	ldr	r1, [r7, #0]
 8001e3e:	6878      	ldr	r0, [r7, #4]
 8001e40:	f000 f920 	bl	8002084 <CRYP_GCMCCM_SetHeaderPhase>
 8001e44:	4603      	mov	r3, r0
 8001e46:	2b00      	cmp	r3, #0
 8001e48:	d001      	beq.n	8001e4e <CRYP_AESCCM_Process+0x11e>
    {
      return HAL_ERROR;
 8001e4a:	2301      	movs	r3, #1
 8001e4c:	e115      	b.n	800207a <CRYP_AESCCM_Process+0x34a>
    }

    /*************************Payload phase ************************************/

    /* Set the phase */
    hcryp->Phase = CRYP_PHASE_PROCESS;
 8001e4e:	687b      	ldr	r3, [r7, #4]
 8001e50:	2202      	movs	r2, #2
 8001e52:	64da      	str	r2, [r3, #76]	; 0x4c

    /* Select payload phase once the header phase is performed */
    MODIFY_REG(hcryp->Instance->CR, AES_CR_GCMPH, CRYP_PHASE_PAYLOAD);
 8001e54:	687b      	ldr	r3, [r7, #4]
 8001e56:	681b      	ldr	r3, [r3, #0]
 8001e58:	681b      	ldr	r3, [r3, #0]
 8001e5a:	f423 42c0 	bic.w	r2, r3, #24576	; 0x6000
 8001e5e:	687b      	ldr	r3, [r7, #4]
 8001e60:	681b      	ldr	r3, [r3, #0]
 8001e62:	f442 4280 	orr.w	r2, r2, #16384	; 0x4000
 8001e66:	601a      	str	r2, [r3, #0]

    /* Set to 0 the number of non-valid bytes using NPBLB register*/
    MODIFY_REG(hcryp->Instance->CR, AES_CR_NPBLB, 0U);
 8001e68:	687b      	ldr	r3, [r7, #4]
 8001e6a:	681b      	ldr	r3, [r3, #0]
 8001e6c:	681a      	ldr	r2, [r3, #0]
 8001e6e:	687b      	ldr	r3, [r7, #4]
 8001e70:	681b      	ldr	r3, [r3, #0]
 8001e72:	f422 0270 	bic.w	r2, r2, #15728640	; 0xf00000
 8001e76:	601a      	str	r2, [r3, #0]

  } /* if (dokeyivconfig == 1U) */

  if ((hcryp->Size % 16U) != 0U)
 8001e78:	687b      	ldr	r3, [r7, #4]
 8001e7a:	f8b3 304a 	ldrh.w	r3, [r3, #74]	; 0x4a
 8001e7e:	f003 030f 	and.w	r3, r3, #15
 8001e82:	b29b      	uxth	r3, r3
 8001e84:	2b00      	cmp	r3, #0
 8001e86:	d003      	beq.n	8001e90 <CRYP_AESCCM_Process+0x160>
  {
    /* recalculate  wordsize */
    wordsize = ((wordsize / 4U) * 4U);
 8001e88:	6b7b      	ldr	r3, [r7, #52]	; 0x34
 8001e8a:	f023 0303 	bic.w	r3, r3, #3
 8001e8e:	637b      	str	r3, [r7, #52]	; 0x34
  }
  /* Get tick */
  tickstart = HAL_GetTick();
 8001e90:	f7fe fd9a 	bl	80009c8 <HAL_GetTick>
 8001e94:	61f8      	str	r0, [r7, #28]

  /* Write input data and get output data */
  incount = hcryp->CrypInCount;
 8001e96:	687b      	ldr	r3, [r7, #4]
 8001e98:	f8b3 3046 	ldrh.w	r3, [r3, #70]	; 0x46
 8001e9c:	b29b      	uxth	r3, r3
 8001e9e:	62bb      	str	r3, [r7, #40]	; 0x28
  outcount = hcryp->CrypOutCount;
 8001ea0:	687b      	ldr	r3, [r7, #4]
 8001ea2:	f8b3 3048 	ldrh.w	r3, [r3, #72]	; 0x48
 8001ea6:	b29b      	uxth	r3, r3
 8001ea8:	627b      	str	r3, [r7, #36]	; 0x24
  while ((incount < wordsize) && (outcount < wordsize))
 8001eaa:	e034      	b.n	8001f16 <CRYP_AESCCM_Process+0x1e6>
  {
    /* Write plain data and get cipher data */
    CRYP_AES_ProcessData(hcryp, Timeout);
 8001eac:	6839      	ldr	r1, [r7, #0]
 8001eae:	6878      	ldr	r0, [r7, #4]
 8001eb0:	f7ff fc72 	bl	8001798 <CRYP_AES_ProcessData>

    /* Check for the Timeout */
    if (Timeout != HAL_MAX_DELAY)
 8001eb4:	683b      	ldr	r3, [r7, #0]
 8001eb6:	f1b3 3fff 	cmp.w	r3, #4294967295	; 0xffffffff
 8001eba:	d022      	beq.n	8001f02 <CRYP_AESCCM_Process+0x1d2>
    {
      if (((HAL_GetTick() - tickstart) > Timeout) || (Timeout == 0U))
 8001ebc:	f7fe fd84 	bl	80009c8 <HAL_GetTick>
 8001ec0:	4602      	mov	r2, r0
 8001ec2:	69fb      	ldr	r3, [r7, #28]
 8001ec4:	1ad3      	subs	r3, r2, r3
 8001ec6:	683a      	ldr	r2, [r7, #0]
 8001ec8:	429a      	cmp	r2, r3
 8001eca:	d302      	bcc.n	8001ed2 <CRYP_AESCCM_Process+0x1a2>
 8001ecc:	683b      	ldr	r3, [r7, #0]
 8001ece:	2b00      	cmp	r3, #0
 8001ed0:	d117      	bne.n	8001f02 <CRYP_AESCCM_Process+0x1d2>
      {
        /* Disable the CRYP peripheral clock */
        __HAL_CRYP_DISABLE(hcryp);
 8001ed2:	687b      	ldr	r3, [r7, #4]
 8001ed4:	681b      	ldr	r3, [r3, #0]
 8001ed6:	681a      	ldr	r2, [r3, #0]
 8001ed8:	687b      	ldr	r3, [r7, #4]
 8001eda:	681b      	ldr	r3, [r3, #0]
 8001edc:	f022 0201 	bic.w	r2, r2, #1
 8001ee0:	601a      	str	r2, [r3, #0]

        /* Change state */
        hcryp->ErrorCode |= HAL_CRYP_ERROR_TIMEOUT;
 8001ee2:	687b      	ldr	r3, [r7, #4]
 8001ee4:	6ddb      	ldr	r3, [r3, #92]	; 0x5c
 8001ee6:	f043 0210 	orr.w	r2, r3, #16
 8001eea:	687b      	ldr	r3, [r7, #4]
 8001eec:	65da      	str	r2, [r3, #92]	; 0x5c
        hcryp->State = HAL_CRYP_STATE_READY;
 8001eee:	687b      	ldr	r3, [r7, #4]
 8001ef0:	2201      	movs	r2, #1
 8001ef2:	f883 2059 	strb.w	r2, [r3, #89]	; 0x59
        __HAL_UNLOCK(hcryp);
 8001ef6:	687b      	ldr	r3, [r7, #4]
 8001ef8:	2200      	movs	r2, #0
 8001efa:	f883 2058 	strb.w	r2, [r3, #88]	; 0x58
        return HAL_ERROR;
 8001efe:	2301      	movs	r3, #1
 8001f00:	e0bb      	b.n	800207a <CRYP_AESCCM_Process+0x34a>
      }
    }
    incount = hcryp->CrypInCount;
 8001f02:	687b      	ldr	r3, [r7, #4]
 8001f04:	f8b3 3046 	ldrh.w	r3, [r3, #70]	; 0x46
 8001f08:	b29b      	uxth	r3, r3
 8001f0a:	62bb      	str	r3, [r7, #40]	; 0x28
    outcount = hcryp->CrypOutCount;
 8001f0c:	687b      	ldr	r3, [r7, #4]
 8001f0e:	f8b3 3048 	ldrh.w	r3, [r3, #72]	; 0x48
 8001f12:	b29b      	uxth	r3, r3
 8001f14:	627b      	str	r3, [r7, #36]	; 0x24
  while ((incount < wordsize) && (outcount < wordsize))
 8001f16:	6aba      	ldr	r2, [r7, #40]	; 0x28
 8001f18:	6b7b      	ldr	r3, [r7, #52]	; 0x34
 8001f1a:	429a      	cmp	r2, r3
 8001f1c:	d203      	bcs.n	8001f26 <CRYP_AESCCM_Process+0x1f6>
 8001f1e:	6a7a      	ldr	r2, [r7, #36]	; 0x24
 8001f20:	6b7b      	ldr	r3, [r7, #52]	; 0x34
 8001f22:	429a      	cmp	r2, r3
 8001f24:	d3c2      	bcc.n	8001eac <CRYP_AESCCM_Process+0x17c>
  }

  if ((hcryp->Size % 16U) != 0U)
 8001f26:	687b      	ldr	r3, [r7, #4]
 8001f28:	f8b3 304a 	ldrh.w	r3, [r3, #74]	; 0x4a
 8001f2c:	f003 030f 	and.w	r3, r3, #15
 8001f30:	b29b      	uxth	r3, r3
 8001f32:	2b00      	cmp	r3, #0
 8001f34:	f000 80a0 	beq.w	8002078 <CRYP_AESCCM_Process+0x348>
  {
    /* Compute the number of padding bytes in last block of payload */
    npblb = ((((uint32_t)hcryp->Size / 16U) + 1U) * 16U) - ((uint32_t)hcryp->Size);
 8001f38:	687b      	ldr	r3, [r7, #4]
 8001f3a:	f8b3 304a 	ldrh.w	r3, [r3, #74]	; 0x4a
 8001f3e:	091b      	lsrs	r3, r3, #4
 8001f40:	b29b      	uxth	r3, r3
 8001f42:	3301      	adds	r3, #1
 8001f44:	011b      	lsls	r3, r3, #4
 8001f46:	687a      	ldr	r2, [r7, #4]
 8001f48:	f8b2 204a 	ldrh.w	r2, [r2, #74]	; 0x4a
 8001f4c:	1a9b      	subs	r3, r3, r2
 8001f4e:	61bb      	str	r3, [r7, #24]

    if ((hcryp->Instance->CR & AES_CR_MODE) == CRYP_OPERATINGMODE_DECRYPT)
 8001f50:	687b      	ldr	r3, [r7, #4]
 8001f52:	681b      	ldr	r3, [r3, #0]
 8001f54:	681b      	ldr	r3, [r3, #0]
 8001f56:	f003 0318 	and.w	r3, r3, #24
 8001f5a:	2b10      	cmp	r3, #16
 8001f5c:	d10a      	bne.n	8001f74 <CRYP_AESCCM_Process+0x244>
    {
      /* Set Npblb in case of AES CCM payload decryption to get right tag  */
      MODIFY_REG(hcryp->Instance->CR, AES_CR_NPBLB, npblb << 20);
 8001f5e:	687b      	ldr	r3, [r7, #4]
 8001f60:	681b      	ldr	r3, [r3, #0]
 8001f62:	681b      	ldr	r3, [r3, #0]
 8001f64:	f423 0170 	bic.w	r1, r3, #15728640	; 0xf00000
 8001f68:	69bb      	ldr	r3, [r7, #24]
 8001f6a:	051a      	lsls	r2, r3, #20
 8001f6c:	687b      	ldr	r3, [r7, #4]
 8001f6e:	681b      	ldr	r3, [r3, #0]
 8001f70:	430a      	orrs	r2, r1
 8001f72:	601a      	str	r2, [r3, #0]

    }
    /* Number of valid words (lastwordsize) in last block */
    if ((npblb % 4U) == 0U)
 8001f74:	69bb      	ldr	r3, [r7, #24]
 8001f76:	f003 0303 	and.w	r3, r3, #3
 8001f7a:	2b00      	cmp	r3, #0
 8001f7c:	d105      	bne.n	8001f8a <CRYP_AESCCM_Process+0x25a>
    {
      lastwordsize = (16U - npblb) / 4U;
 8001f7e:	69bb      	ldr	r3, [r7, #24]
 8001f80:	f1c3 0310 	rsb	r3, r3, #16
 8001f84:	089b      	lsrs	r3, r3, #2
 8001f86:	62fb      	str	r3, [r7, #44]	; 0x2c
 8001f88:	e005      	b.n	8001f96 <CRYP_AESCCM_Process+0x266>
    }
    else
    {
      lastwordsize = ((16U - npblb) / 4U) + 1U;
 8001f8a:	69bb      	ldr	r3, [r7, #24]
 8001f8c:	f1c3 0310 	rsb	r3, r3, #16
 8001f90:	089b      	lsrs	r3, r3, #2
 8001f92:	3301      	adds	r3, #1
 8001f94:	62fb      	str	r3, [r7, #44]	; 0x2c
    }

    /* Write the last input block in the IN FIFO */
    for (loopcounter = 0U; loopcounter < lastwordsize; loopcounter ++)
 8001f96:	2300      	movs	r3, #0
 8001f98:	633b      	str	r3, [r7, #48]	; 0x30
 8001f9a:	e017      	b.n	8001fcc <CRYP_AESCCM_Process+0x29c>
    {
      hcryp->Instance->DINR  = *(uint32_t *)(hcryp->pCrypInBuffPtr + hcryp->CrypInCount);
 8001f9c:	687b      	ldr	r3, [r7, #4]
 8001f9e:	6bda      	ldr	r2, [r3, #60]	; 0x3c
 8001fa0:	687b      	ldr	r3, [r7, #4]
 8001fa2:	f8b3 3046 	ldrh.w	r3, [r3, #70]	; 0x46
 8001fa6:	b29b      	uxth	r3, r3
 8001fa8:	009b      	lsls	r3, r3, #2
 8001faa:	441a      	add	r2, r3
 8001fac:	687b      	ldr	r3, [r7, #4]
 8001fae:	681b      	ldr	r3, [r3, #0]
 8001fb0:	6812      	ldr	r2, [r2, #0]
 8001fb2:	609a      	str	r2, [r3, #8]
      hcryp->CrypInCount++;
 8001fb4:	687b      	ldr	r3, [r7, #4]
 8001fb6:	f8b3 3046 	ldrh.w	r3, [r3, #70]	; 0x46
 8001fba:	b29b      	uxth	r3, r3
 8001fbc:	3301      	adds	r3, #1
 8001fbe:	b29a      	uxth	r2, r3
 8001fc0:	687b      	ldr	r3, [r7, #4]
 8001fc2:	f8a3 2046 	strh.w	r2, [r3, #70]	; 0x46
    for (loopcounter = 0U; loopcounter < lastwordsize; loopcounter ++)
 8001fc6:	6b3b      	ldr	r3, [r7, #48]	; 0x30
 8001fc8:	3301      	adds	r3, #1
 8001fca:	633b      	str	r3, [r7, #48]	; 0x30
 8001fcc:	6b3a      	ldr	r2, [r7, #48]	; 0x30
 8001fce:	6afb      	ldr	r3, [r7, #44]	; 0x2c
 8001fd0:	429a      	cmp	r2, r3
 8001fd2:	d3e3      	bcc.n	8001f9c <CRYP_AESCCM_Process+0x26c>
    }

    /* Pad the data with zeros to have a complete block */
    while (loopcounter < 4U)
 8001fd4:	e006      	b.n	8001fe4 <CRYP_AESCCM_Process+0x2b4>
    {
      hcryp->Instance->DINR  = 0U;
 8001fd6:	687b      	ldr	r3, [r7, #4]
 8001fd8:	681b      	ldr	r3, [r3, #0]
 8001fda:	2200      	movs	r2, #0
 8001fdc:	609a      	str	r2, [r3, #8]
      loopcounter++;
 8001fde:	6b3b      	ldr	r3, [r7, #48]	; 0x30
 8001fe0:	3301      	adds	r3, #1
 8001fe2:	633b      	str	r3, [r7, #48]	; 0x30
    while (loopcounter < 4U)
 8001fe4:	6b3b      	ldr	r3, [r7, #48]	; 0x30
 8001fe6:	2b03      	cmp	r3, #3
 8001fe8:	d9f5      	bls.n	8001fd6 <CRYP_AESCCM_Process+0x2a6>
    }
    /* just wait for hash computation */
    if (CRYP_WaitOnCCFlag(hcryp, Timeout) != HAL_OK)
 8001fea:	6839      	ldr	r1, [r7, #0]
 8001fec:	6878      	ldr	r0, [r7, #4]
 8001fee:	f000 f9ff 	bl	80023f0 <CRYP_WaitOnCCFlag>
 8001ff2:	4603      	mov	r3, r0
 8001ff4:	2b00      	cmp	r3, #0
 8001ff6:	d001      	beq.n	8001ffc <CRYP_AESCCM_Process+0x2cc>
    {
      return HAL_ERROR;
 8001ff8:	2301      	movs	r3, #1
 8001ffa:	e03e      	b.n	800207a <CRYP_AESCCM_Process+0x34a>
    }
    /* Clear CCF flag */
    __HAL_CRYP_CLEAR_FLAG(hcryp, CRYP_CLEAR_CCF);
 8001ffc:	687b      	ldr	r3, [r7, #4]
 8001ffe:	681b      	ldr	r3, [r3, #0]
 8002000:	f8d3 2308 	ldr.w	r2, [r3, #776]	; 0x308
 8002004:	687b      	ldr	r3, [r7, #4]
 8002006:	681b      	ldr	r3, [r3, #0]
 8002008:	f042 0201 	orr.w	r2, r2, #1
 800200c:	f8c3 2308 	str.w	r2, [r3, #776]	; 0x308

    for (loopcounter = 0U; loopcounter < 4U; loopcounter++)
 8002010:	2300      	movs	r3, #0
 8002012:	633b      	str	r3, [r7, #48]	; 0x30
 8002014:	e00b      	b.n	800202e <CRYP_AESCCM_Process+0x2fe>
    {
      /* Read the output block from the output FIFO and put them in temporary buffer then
         get CrypOutBuff from temporary buffer */
      temp[loopcounter] = hcryp->Instance->DOUTR;
 8002016:	687b      	ldr	r3, [r7, #4]
 8002018:	681b      	ldr	r3, [r3, #0]
 800201a:	68da      	ldr	r2, [r3, #12]
 800201c:	6b3b      	ldr	r3, [r7, #48]	; 0x30
 800201e:	009b      	lsls	r3, r3, #2
 8002020:	3338      	adds	r3, #56	; 0x38
 8002022:	443b      	add	r3, r7
 8002024:	f843 2c30 	str.w	r2, [r3, #-48]
    for (loopcounter = 0U; loopcounter < 4U; loopcounter++)
 8002028:	6b3b      	ldr	r3, [r7, #48]	; 0x30
 800202a:	3301      	adds	r3, #1
 800202c:	633b      	str	r3, [r7, #48]	; 0x30
 800202e:	6b3b      	ldr	r3, [r7, #48]	; 0x30
 8002030:	2b03      	cmp	r3, #3
 8002032:	d9f0      	bls.n	8002016 <CRYP_AESCCM_Process+0x2e6>
    }
    for (loopcounter = 0U; loopcounter < lastwordsize; loopcounter++)
 8002034:	2300      	movs	r3, #0
 8002036:	633b      	str	r3, [r7, #48]	; 0x30
 8002038:	e01a      	b.n	8002070 <CRYP_AESCCM_Process+0x340>
    {
      *(uint32_t *)(hcryp->pCrypOutBuffPtr + hcryp->CrypOutCount) = temp[loopcounter];
 800203a:	687b      	ldr	r3, [r7, #4]
 800203c:	6c1a      	ldr	r2, [r3, #64]	; 0x40
 800203e:	687b      	ldr	r3, [r7, #4]
 8002040:	f8b3 3048 	ldrh.w	r3, [r3, #72]	; 0x48
 8002044:	b29b      	uxth	r3, r3
 8002046:	009b      	lsls	r3, r3, #2
 8002048:	441a      	add	r2, r3
 800204a:	6b3b      	ldr	r3, [r7, #48]	; 0x30
 800204c:	009b      	lsls	r3, r3, #2
 800204e:	3338      	adds	r3, #56	; 0x38
 8002050:	443b      	add	r3, r7
 8002052:	f853 3c30 	ldr.w	r3, [r3, #-48]
 8002056:	6013      	str	r3, [r2, #0]
      hcryp->CrypOutCount++;
 8002058:	687b      	ldr	r3, [r7, #4]
 800205a:	f8b3 3048 	ldrh.w	r3, [r3, #72]	; 0x48
 800205e:	b29b      	uxth	r3, r3
 8002060:	3301      	adds	r3, #1
 8002062:	b29a      	uxth	r2, r3
 8002064:	687b      	ldr	r3, [r7, #4]
 8002066:	f8a3 2048 	strh.w	r2, [r3, #72]	; 0x48
    for (loopcounter = 0U; loopcounter < lastwordsize; loopcounter++)
 800206a:	6b3b      	ldr	r3, [r7, #48]	; 0x30
 800206c:	3301      	adds	r3, #1
 800206e:	633b      	str	r3, [r7, #48]	; 0x30
 8002070:	6b3a      	ldr	r2, [r7, #48]	; 0x30
 8002072:	6afb      	ldr	r3, [r7, #44]	; 0x2c
 8002074:	429a      	cmp	r2, r3
 8002076:	d3e0      	bcc.n	800203a <CRYP_AESCCM_Process+0x30a>
    }
  }

  return HAL_OK;
 8002078:	2300      	movs	r3, #0
}
 800207a:	4618      	mov	r0, r3
 800207c:	3738      	adds	r7, #56	; 0x38
 800207e:	46bd      	mov	sp, r7
 8002080:	bd80      	pop	{r7, pc}
	...

08002084 <CRYP_GCMCCM_SetHeaderPhase>:
  *         the configuration information for CRYP module(Header & HeaderSize)
  * @param  Timeout Timeout value
  * @retval state
  */
static HAL_StatusTypeDef CRYP_GCMCCM_SetHeaderPhase(CRYP_HandleTypeDef *hcryp, uint32_t Timeout)
{
 8002084:	b5b0      	push	{r4, r5, r7, lr}
 8002086:	b092      	sub	sp, #72	; 0x48
 8002088:	af00      	add	r7, sp, #0
 800208a:	6078      	str	r0, [r7, #4]
 800208c:	6039      	str	r1, [r7, #0]
  uint32_t loopcounter;
  uint32_t size_in_bytes;
  uint32_t tmp;
  const uint32_t mask[12] = {0x0U, 0xFF000000U, 0xFFFF0000U, 0xFFFFFF00U,  /* 32-bit data type */
 800208e:	4b8e      	ldr	r3, [pc, #568]	; (80022c8 <CRYP_GCMCCM_SetHeaderPhase+0x244>)
 8002090:	f107 040c 	add.w	r4, r7, #12
 8002094:	461d      	mov	r5, r3
 8002096:	cd0f      	ldmia	r5!, {r0, r1, r2, r3}
 8002098:	c40f      	stmia	r4!, {r0, r1, r2, r3}
 800209a:	cd0f      	ldmia	r5!, {r0, r1, r2, r3}
 800209c:	c40f      	stmia	r4!, {r0, r1, r2, r3}
 800209e:	e895 000f 	ldmia.w	r5, {r0, r1, r2, r3}
 80020a2:	e884 000f 	stmia.w	r4, {r0, r1, r2, r3}
                             0x0U, 0x0000FF00U, 0x0000FFFFU, 0xFF00FFFFU,  /* 16-bit data type */
                             0x0U, 0x000000FFU, 0x0000FFFFU, 0x00FFFFFFU
                            }; /*  8-bit data type */

  /***************************** Header phase for GCM/GMAC or CCM *********************************/
  if (hcryp->Init.HeaderWidthUnit == CRYP_HEADERWIDTHUNIT_WORD)
 80020a6:	687b      	ldr	r3, [r7, #4]
 80020a8:	6a9b      	ldr	r3, [r3, #40]	; 0x28
 80020aa:	2b00      	cmp	r3, #0
 80020ac:	d104      	bne.n	80020b8 <CRYP_GCMCCM_SetHeaderPhase+0x34>
  {
    size_in_bytes = hcryp->Init.HeaderSize * 4U;
 80020ae:	687b      	ldr	r3, [r7, #4]
 80020b0:	69db      	ldr	r3, [r3, #28]
 80020b2:	009b      	lsls	r3, r3, #2
 80020b4:	643b      	str	r3, [r7, #64]	; 0x40
 80020b6:	e002      	b.n	80020be <CRYP_GCMCCM_SetHeaderPhase+0x3a>
  }
  else
  {
    size_in_bytes = hcryp->Init.HeaderSize;
 80020b8:	687b      	ldr	r3, [r7, #4]
 80020ba:	69db      	ldr	r3, [r3, #28]
 80020bc:	643b      	str	r3, [r7, #64]	; 0x40
  }

  if ((size_in_bytes != 0U))
 80020be:	6c3b      	ldr	r3, [r7, #64]	; 0x40
 80020c0:	2b00      	cmp	r3, #0
 80020c2:	f000 8172 	beq.w	80023aa <CRYP_GCMCCM_SetHeaderPhase+0x326>
  {
    /* Select header phase */
    CRYP_SET_PHASE(hcryp, CRYP_PHASE_HEADER);
 80020c6:	687b      	ldr	r3, [r7, #4]
 80020c8:	681b      	ldr	r3, [r3, #0]
 80020ca:	681b      	ldr	r3, [r3, #0]
 80020cc:	f423 42c0 	bic.w	r2, r3, #24576	; 0x6000
 80020d0:	687b      	ldr	r3, [r7, #4]
 80020d2:	681b      	ldr	r3, [r3, #0]
 80020d4:	f442 5200 	orr.w	r2, r2, #8192	; 0x2000
 80020d8:	601a      	str	r2, [r3, #0]

    /* Enable the CRYP peripheral */
    __HAL_CRYP_ENABLE(hcryp);
 80020da:	687b      	ldr	r3, [r7, #4]
 80020dc:	681b      	ldr	r3, [r3, #0]
 80020de:	681a      	ldr	r2, [r3, #0]
 80020e0:	687b      	ldr	r3, [r7, #4]
 80020e2:	681b      	ldr	r3, [r3, #0]
 80020e4:	f042 0201 	orr.w	r2, r2, #1
 80020e8:	601a      	str	r2, [r3, #0]

    /* If size_in_bytes is a multiple of blocks (a multiple of four 32-bits words ) */
    if ((size_in_bytes % 16U) == 0U)
 80020ea:	6c3b      	ldr	r3, [r7, #64]	; 0x40
 80020ec:	f003 030f 	and.w	r3, r3, #15
 80020f0:	2b00      	cmp	r3, #0
 80020f2:	d172      	bne.n	80021da <CRYP_GCMCCM_SetHeaderPhase+0x156>
    {
      /*  No padding */
      for (loopcounter = 0U; (loopcounter < (size_in_bytes / 4U)); loopcounter += 4U)
 80020f4:	2300      	movs	r3, #0
 80020f6:	647b      	str	r3, [r7, #68]	; 0x44
 80020f8:	e069      	b.n	80021ce <CRYP_GCMCCM_SetHeaderPhase+0x14a>
      {
        /* Write the input block in the data input register */
        hcryp->Instance->DINR = *(uint32_t *)(hcryp->Init.Header + hcryp->CrypHeaderCount);
 80020fa:	687b      	ldr	r3, [r7, #4]
 80020fc:	699a      	ldr	r2, [r3, #24]
 80020fe:	687b      	ldr	r3, [r7, #4]
 8002100:	f8b3 3044 	ldrh.w	r3, [r3, #68]	; 0x44
 8002104:	b29b      	uxth	r3, r3
 8002106:	009b      	lsls	r3, r3, #2
 8002108:	441a      	add	r2, r3
 800210a:	687b      	ldr	r3, [r7, #4]
 800210c:	681b      	ldr	r3, [r3, #0]
 800210e:	6812      	ldr	r2, [r2, #0]
 8002110:	609a      	str	r2, [r3, #8]
        hcryp->CrypHeaderCount++;
 8002112:	687b      	ldr	r3, [r7, #4]
 8002114:	f8b3 3044 	ldrh.w	r3, [r3, #68]	; 0x44
 8002118:	b29b      	uxth	r3, r3
 800211a:	3301      	adds	r3, #1
 800211c:	b29a      	uxth	r2, r3
 800211e:	687b      	ldr	r3, [r7, #4]
 8002120:	f8a3 2044 	strh.w	r2, [r3, #68]	; 0x44
        hcryp->Instance->DINR = *(uint32_t *)(hcryp->Init.Header + hcryp->CrypHeaderCount);
 8002124:	687b      	ldr	r3, [r7, #4]
 8002126:	699a      	ldr	r2, [r3, #24]
 8002128:	687b      	ldr	r3, [r7, #4]
 800212a:	f8b3 3044 	ldrh.w	r3, [r3, #68]	; 0x44
 800212e:	b29b      	uxth	r3, r3
 8002130:	009b      	lsls	r3, r3, #2
 8002132:	441a      	add	r2, r3
 8002134:	687b      	ldr	r3, [r7, #4]
 8002136:	681b      	ldr	r3, [r3, #0]
 8002138:	6812      	ldr	r2, [r2, #0]
 800213a:	609a      	str	r2, [r3, #8]
        hcryp->CrypHeaderCount++;
 800213c:	687b      	ldr	r3, [r7, #4]
 800213e:	f8b3 3044 	ldrh.w	r3, [r3, #68]	; 0x44
 8002142:	b29b      	uxth	r3, r3
 8002144:	3301      	adds	r3, #1
 8002146:	b29a      	uxth	r2, r3
 8002148:	687b      	ldr	r3, [r7, #4]
 800214a:	f8a3 2044 	strh.w	r2, [r3, #68]	; 0x44
        hcryp->Instance->DINR  = *(uint32_t *)(hcryp->Init.Header + hcryp->CrypHeaderCount);
 800214e:	687b      	ldr	r3, [r7, #4]
 8002150:	699a      	ldr	r2, [r3, #24]
 8002152:	687b      	ldr	r3, [r7, #4]
 8002154:	f8b3 3044 	ldrh.w	r3, [r3, #68]	; 0x44
 8002158:	b29b      	uxth	r3, r3
 800215a:	009b      	lsls	r3, r3, #2
 800215c:	441a      	add	r2, r3
 800215e:	687b      	ldr	r3, [r7, #4]
 8002160:	681b      	ldr	r3, [r3, #0]
 8002162:	6812      	ldr	r2, [r2, #0]
 8002164:	609a      	str	r2, [r3, #8]
        hcryp->CrypHeaderCount++;
 8002166:	687b      	ldr	r3, [r7, #4]
 8002168:	f8b3 3044 	ldrh.w	r3, [r3, #68]	; 0x44
 800216c:	b29b      	uxth	r3, r3
 800216e:	3301      	adds	r3, #1
 8002170:	b29a      	uxth	r2, r3
 8002172:	687b      	ldr	r3, [r7, #4]
 8002174:	f8a3 2044 	strh.w	r2, [r3, #68]	; 0x44
        hcryp->Instance->DINR = *(uint32_t *)(hcryp->Init.Header + hcryp->CrypHeaderCount);
 8002178:	687b      	ldr	r3, [r7, #4]
 800217a:	699a      	ldr	r2, [r3, #24]
 800217c:	687b      	ldr	r3, [r7, #4]
 800217e:	f8b3 3044 	ldrh.w	r3, [r3, #68]	; 0x44
 8002182:	b29b      	uxth	r3, r3
 8002184:	009b      	lsls	r3, r3, #2
 8002186:	441a      	add	r2, r3
 8002188:	687b      	ldr	r3, [r7, #4]
 800218a:	681b      	ldr	r3, [r3, #0]
 800218c:	6812      	ldr	r2, [r2, #0]
 800218e:	609a      	str	r2, [r3, #8]
        hcryp->CrypHeaderCount++;
 8002190:	687b      	ldr	r3, [r7, #4]
 8002192:	f8b3 3044 	ldrh.w	r3, [r3, #68]	; 0x44
 8002196:	b29b      	uxth	r3, r3
 8002198:	3301      	adds	r3, #1
 800219a:	b29a      	uxth	r2, r3
 800219c:	687b      	ldr	r3, [r7, #4]
 800219e:	f8a3 2044 	strh.w	r2, [r3, #68]	; 0x44

        if (CRYP_WaitOnCCFlag(hcryp, Timeout) != HAL_OK)
 80021a2:	6839      	ldr	r1, [r7, #0]
 80021a4:	6878      	ldr	r0, [r7, #4]
 80021a6:	f000 f923 	bl	80023f0 <CRYP_WaitOnCCFlag>
 80021aa:	4603      	mov	r3, r0
 80021ac:	2b00      	cmp	r3, #0
 80021ae:	d001      	beq.n	80021b4 <CRYP_GCMCCM_SetHeaderPhase+0x130>
        {
          return HAL_ERROR;
 80021b0:	2301      	movs	r3, #1
 80021b2:	e118      	b.n	80023e6 <CRYP_GCMCCM_SetHeaderPhase+0x362>
        }
        /* Clear CCF flag */
        __HAL_CRYP_CLEAR_FLAG(hcryp, CRYP_CLEAR_CCF);
 80021b4:	687b      	ldr	r3, [r7, #4]
 80021b6:	681b      	ldr	r3, [r3, #0]
 80021b8:	f8d3 2308 	ldr.w	r2, [r3, #776]	; 0x308
 80021bc:	687b      	ldr	r3, [r7, #4]
 80021be:	681b      	ldr	r3, [r3, #0]
 80021c0:	f042 0201 	orr.w	r2, r2, #1
 80021c4:	f8c3 2308 	str.w	r2, [r3, #776]	; 0x308
      for (loopcounter = 0U; (loopcounter < (size_in_bytes / 4U)); loopcounter += 4U)
 80021c8:	6c7b      	ldr	r3, [r7, #68]	; 0x44
 80021ca:	3304      	adds	r3, #4
 80021cc:	647b      	str	r3, [r7, #68]	; 0x44
 80021ce:	6c3b      	ldr	r3, [r7, #64]	; 0x40
 80021d0:	089b      	lsrs	r3, r3, #2
 80021d2:	6c7a      	ldr	r2, [r7, #68]	; 0x44
 80021d4:	429a      	cmp	r2, r3
 80021d6:	d390      	bcc.n	80020fa <CRYP_GCMCCM_SetHeaderPhase+0x76>
 80021d8:	e104      	b.n	80023e4 <CRYP_GCMCCM_SetHeaderPhase+0x360>
      }
    }
    else
    {
      /* Write header block in the IN FIFO without last block */
      for (loopcounter = 0U; (loopcounter < ((size_in_bytes / 16U) * 4U)); loopcounter += 4U)
 80021da:	2300      	movs	r3, #0
 80021dc:	647b      	str	r3, [r7, #68]	; 0x44
 80021de:	e069      	b.n	80022b4 <CRYP_GCMCCM_SetHeaderPhase+0x230>
      {
        /* Write the input block in the data input register */
        hcryp->Instance->DINR = *(uint32_t *)(hcryp->Init.Header + hcryp->CrypHeaderCount);
 80021e0:	687b      	ldr	r3, [r7, #4]
 80021e2:	699a      	ldr	r2, [r3, #24]
 80021e4:	687b      	ldr	r3, [r7, #4]
 80021e6:	f8b3 3044 	ldrh.w	r3, [r3, #68]	; 0x44
 80021ea:	b29b      	uxth	r3, r3
 80021ec:	009b      	lsls	r3, r3, #2
 80021ee:	441a      	add	r2, r3
 80021f0:	687b      	ldr	r3, [r7, #4]
 80021f2:	681b      	ldr	r3, [r3, #0]
 80021f4:	6812      	ldr	r2, [r2, #0]
 80021f6:	609a      	str	r2, [r3, #8]
        hcryp->CrypHeaderCount++;
 80021f8:	687b      	ldr	r3, [r7, #4]
 80021fa:	f8b3 3044 	ldrh.w	r3, [r3, #68]	; 0x44
 80021fe:	b29b      	uxth	r3, r3
 8002200:	3301      	adds	r3, #1
 8002202:	b29a      	uxth	r2, r3
 8002204:	687b      	ldr	r3, [r7, #4]
 8002206:	f8a3 2044 	strh.w	r2, [r3, #68]	; 0x44
        hcryp->Instance->DINR = *(uint32_t *)(hcryp->Init.Header + hcryp->CrypHeaderCount);
 800220a:	687b      	ldr	r3, [r7, #4]
 800220c:	699a      	ldr	r2, [r3, #24]
 800220e:	687b      	ldr	r3, [r7, #4]
 8002210:	f8b3 3044 	ldrh.w	r3, [r3, #68]	; 0x44
 8002214:	b29b      	uxth	r3, r3
 8002216:	009b      	lsls	r3, r3, #2
 8002218:	441a      	add	r2, r3
 800221a:	687b      	ldr	r3, [r7, #4]
 800221c:	681b      	ldr	r3, [r3, #0]
 800221e:	6812      	ldr	r2, [r2, #0]
 8002220:	609a      	str	r2, [r3, #8]
        hcryp->CrypHeaderCount++;
 8002222:	687b      	ldr	r3, [r7, #4]
 8002224:	f8b3 3044 	ldrh.w	r3, [r3, #68]	; 0x44
 8002228:	b29b      	uxth	r3, r3
 800222a:	3301      	adds	r3, #1
 800222c:	b29a      	uxth	r2, r3
 800222e:	687b      	ldr	r3, [r7, #4]
 8002230:	f8a3 2044 	strh.w	r2, [r3, #68]	; 0x44
        hcryp->Instance->DINR  = *(uint32_t *)(hcryp->Init.Header + hcryp->CrypHeaderCount);
 8002234:	687b      	ldr	r3, [r7, #4]
 8002236:	699a      	ldr	r2, [r3, #24]
 8002238:	687b      	ldr	r3, [r7, #4]
 800223a:	f8b3 3044 	ldrh.w	r3, [r3, #68]	; 0x44
 800223e:	b29b      	uxth	r3, r3
 8002240:	009b      	lsls	r3, r3, #2
 8002242:	441a      	add	r2, r3
 8002244:	687b      	ldr	r3, [r7, #4]
 8002246:	681b      	ldr	r3, [r3, #0]
 8002248:	6812      	ldr	r2, [r2, #0]
 800224a:	609a      	str	r2, [r3, #8]
        hcryp->CrypHeaderCount++;
 800224c:	687b      	ldr	r3, [r7, #4]
 800224e:	f8b3 3044 	ldrh.w	r3, [r3, #68]	; 0x44
 8002252:	b29b      	uxth	r3, r3
 8002254:	3301      	adds	r3, #1
 8002256:	b29a      	uxth	r2, r3
 8002258:	687b      	ldr	r3, [r7, #4]
 800225a:	f8a3 2044 	strh.w	r2, [r3, #68]	; 0x44
        hcryp->Instance->DINR = *(uint32_t *)(hcryp->Init.Header + hcryp->CrypHeaderCount);
 800225e:	687b      	ldr	r3, [r7, #4]
 8002260:	699a      	ldr	r2, [r3, #24]
 8002262:	687b      	ldr	r3, [r7, #4]
 8002264:	f8b3 3044 	ldrh.w	r3, [r3, #68]	; 0x44
 8002268:	b29b      	uxth	r3, r3
 800226a:	009b      	lsls	r3, r3, #2
 800226c:	441a      	add	r2, r3
 800226e:	687b      	ldr	r3, [r7, #4]
 8002270:	681b      	ldr	r3, [r3, #0]
 8002272:	6812      	ldr	r2, [r2, #0]
 8002274:	609a      	str	r2, [r3, #8]
        hcryp->CrypHeaderCount++;
 8002276:	687b      	ldr	r3, [r7, #4]
 8002278:	f8b3 3044 	ldrh.w	r3, [r3, #68]	; 0x44
 800227c:	b29b      	uxth	r3, r3
 800227e:	3301      	adds	r3, #1
 8002280:	b29a      	uxth	r2, r3
 8002282:	687b      	ldr	r3, [r7, #4]
 8002284:	f8a3 2044 	strh.w	r2, [r3, #68]	; 0x44

        if (CRYP_WaitOnCCFlag(hcryp, Timeout) != HAL_OK)
 8002288:	6839      	ldr	r1, [r7, #0]
 800228a:	6878      	ldr	r0, [r7, #4]
 800228c:	f000 f8b0 	bl	80023f0 <CRYP_WaitOnCCFlag>
 8002290:	4603      	mov	r3, r0
 8002292:	2b00      	cmp	r3, #0
 8002294:	d001      	beq.n	800229a <CRYP_GCMCCM_SetHeaderPhase+0x216>
        {
          return HAL_ERROR;
 8002296:	2301      	movs	r3, #1
 8002298:	e0a5      	b.n	80023e6 <CRYP_GCMCCM_SetHeaderPhase+0x362>
        }
        /* Clear CCF flag */
        __HAL_CRYP_CLEAR_FLAG(hcryp, CRYP_CLEAR_CCF);
 800229a:	687b      	ldr	r3, [r7, #4]
 800229c:	681b      	ldr	r3, [r3, #0]
 800229e:	f8d3 2308 	ldr.w	r2, [r3, #776]	; 0x308
 80022a2:	687b      	ldr	r3, [r7, #4]
 80022a4:	681b      	ldr	r3, [r3, #0]
 80022a6:	f042 0201 	orr.w	r2, r2, #1
 80022aa:	f8c3 2308 	str.w	r2, [r3, #776]	; 0x308
      for (loopcounter = 0U; (loopcounter < ((size_in_bytes / 16U) * 4U)); loopcounter += 4U)
 80022ae:	6c7b      	ldr	r3, [r7, #68]	; 0x44
 80022b0:	3304      	adds	r3, #4
 80022b2:	647b      	str	r3, [r7, #68]	; 0x44
 80022b4:	6c3b      	ldr	r3, [r7, #64]	; 0x40
 80022b6:	091b      	lsrs	r3, r3, #4
 80022b8:	009b      	lsls	r3, r3, #2
 80022ba:	6c7a      	ldr	r2, [r7, #68]	; 0x44
 80022bc:	429a      	cmp	r2, r3
 80022be:	d38f      	bcc.n	80021e0 <CRYP_GCMCCM_SetHeaderPhase+0x15c>
      }
      /* Write last complete words */
      for (loopcounter = 0U; (loopcounter < ((size_in_bytes / 4U) % 4U)); loopcounter++)
 80022c0:	2300      	movs	r3, #0
 80022c2:	647b      	str	r3, [r7, #68]	; 0x44
 80022c4:	e01a      	b.n	80022fc <CRYP_GCMCCM_SetHeaderPhase+0x278>
 80022c6:	bf00      	nop
 80022c8:	08004f3c 	.word	0x08004f3c
      {
        hcryp->Instance->DINR = *(uint32_t *)(hcryp->Init.Header + hcryp->CrypHeaderCount);
 80022cc:	687b      	ldr	r3, [r7, #4]
 80022ce:	699a      	ldr	r2, [r3, #24]
 80022d0:	687b      	ldr	r3, [r7, #4]
 80022d2:	f8b3 3044 	ldrh.w	r3, [r3, #68]	; 0x44
 80022d6:	b29b      	uxth	r3, r3
 80022d8:	009b      	lsls	r3, r3, #2
 80022da:	441a      	add	r2, r3
 80022dc:	687b      	ldr	r3, [r7, #4]
 80022de:	681b      	ldr	r3, [r3, #0]
 80022e0:	6812      	ldr	r2, [r2, #0]
 80022e2:	609a      	str	r2, [r3, #8]
        hcryp->CrypHeaderCount++;
 80022e4:	687b      	ldr	r3, [r7, #4]
 80022e6:	f8b3 3044 	ldrh.w	r3, [r3, #68]	; 0x44
 80022ea:	b29b      	uxth	r3, r3
 80022ec:	3301      	adds	r3, #1
 80022ee:	b29a      	uxth	r2, r3
 80022f0:	687b      	ldr	r3, [r7, #4]
 80022f2:	f8a3 2044 	strh.w	r2, [r3, #68]	; 0x44
      for (loopcounter = 0U; (loopcounter < ((size_in_bytes / 4U) % 4U)); loopcounter++)
 80022f6:	6c7b      	ldr	r3, [r7, #68]	; 0x44
 80022f8:	3301      	adds	r3, #1
 80022fa:	647b      	str	r3, [r7, #68]	; 0x44
 80022fc:	6c3b      	ldr	r3, [r7, #64]	; 0x40
 80022fe:	089b      	lsrs	r3, r3, #2
 8002300:	f003 0303 	and.w	r3, r3, #3
 8002304:	6c7a      	ldr	r2, [r7, #68]	; 0x44
 8002306:	429a      	cmp	r2, r3
 8002308:	d3e0      	bcc.n	80022cc <CRYP_GCMCCM_SetHeaderPhase+0x248>
      }
      /* If the header size is a multiple of words */
      if ((size_in_bytes % 4U) == 0U)
 800230a:	6c3b      	ldr	r3, [r7, #64]	; 0x40
 800230c:	f003 0303 	and.w	r3, r3, #3
 8002310:	2b00      	cmp	r3, #0
 8002312:	d10b      	bne.n	800232c <CRYP_GCMCCM_SetHeaderPhase+0x2a8>
      {
        /* Pad the data with zeros to have a complete block */
        while (loopcounter < 4U)
 8002314:	e006      	b.n	8002324 <CRYP_GCMCCM_SetHeaderPhase+0x2a0>
        {
          hcryp->Instance->DINR = 0x0U;
 8002316:	687b      	ldr	r3, [r7, #4]
 8002318:	681b      	ldr	r3, [r3, #0]
 800231a:	2200      	movs	r2, #0
 800231c:	609a      	str	r2, [r3, #8]
          loopcounter++;
 800231e:	6c7b      	ldr	r3, [r7, #68]	; 0x44
 8002320:	3301      	adds	r3, #1
 8002322:	647b      	str	r3, [r7, #68]	; 0x44
        while (loopcounter < 4U)
 8002324:	6c7b      	ldr	r3, [r7, #68]	; 0x44
 8002326:	2b03      	cmp	r3, #3
 8002328:	d9f5      	bls.n	8002316 <CRYP_GCMCCM_SetHeaderPhase+0x292>
 800232a:	e02a      	b.n	8002382 <CRYP_GCMCCM_SetHeaderPhase+0x2fe>
        }
      }
      else
      {
        /* Enter last bytes, padded with zeros */
        tmp =  *(uint32_t *)(hcryp->Init.Header + hcryp->CrypHeaderCount);
 800232c:	687b      	ldr	r3, [r7, #4]
 800232e:	699a      	ldr	r2, [r3, #24]
 8002330:	687b      	ldr	r3, [r7, #4]
 8002332:	f8b3 3044 	ldrh.w	r3, [r3, #68]	; 0x44
 8002336:	b29b      	uxth	r3, r3
 8002338:	009b      	lsls	r3, r3, #2
 800233a:	4413      	add	r3, r2
 800233c:	681b      	ldr	r3, [r3, #0]
 800233e:	63fb      	str	r3, [r7, #60]	; 0x3c
        tmp &= mask[(hcryp->Init.DataType * 2U) + (size_in_bytes % 4U)];
 8002340:	687b      	ldr	r3, [r7, #4]
 8002342:	685b      	ldr	r3, [r3, #4]
 8002344:	005a      	lsls	r2, r3, #1
 8002346:	6c3b      	ldr	r3, [r7, #64]	; 0x40
 8002348:	f003 0303 	and.w	r3, r3, #3
 800234c:	4413      	add	r3, r2
 800234e:	009b      	lsls	r3, r3, #2
 8002350:	3348      	adds	r3, #72	; 0x48
 8002352:	443b      	add	r3, r7
 8002354:	f853 3c3c 	ldr.w	r3, [r3, #-60]
 8002358:	6bfa      	ldr	r2, [r7, #60]	; 0x3c
 800235a:	4013      	ands	r3, r2
 800235c:	63fb      	str	r3, [r7, #60]	; 0x3c
        hcryp->Instance->DINR = tmp;
 800235e:	687b      	ldr	r3, [r7, #4]
 8002360:	681b      	ldr	r3, [r3, #0]
 8002362:	6bfa      	ldr	r2, [r7, #60]	; 0x3c
 8002364:	609a      	str	r2, [r3, #8]
        loopcounter++;
 8002366:	6c7b      	ldr	r3, [r7, #68]	; 0x44
 8002368:	3301      	adds	r3, #1
 800236a:	647b      	str	r3, [r7, #68]	; 0x44
        /* Pad the data with zeros to have a complete block */
        while (loopcounter < 4U)
 800236c:	e006      	b.n	800237c <CRYP_GCMCCM_SetHeaderPhase+0x2f8>
        {
          hcryp->Instance->DINR = 0x0U;
 800236e:	687b      	ldr	r3, [r7, #4]
 8002370:	681b      	ldr	r3, [r3, #0]
 8002372:	2200      	movs	r2, #0
 8002374:	609a      	str	r2, [r3, #8]
          loopcounter++;
 8002376:	6c7b      	ldr	r3, [r7, #68]	; 0x44
 8002378:	3301      	adds	r3, #1
 800237a:	647b      	str	r3, [r7, #68]	; 0x44
        while (loopcounter < 4U)
 800237c:	6c7b      	ldr	r3, [r7, #68]	; 0x44
 800237e:	2b03      	cmp	r3, #3
 8002380:	d9f5      	bls.n	800236e <CRYP_GCMCCM_SetHeaderPhase+0x2ea>
        }
      }

      if (CRYP_WaitOnCCFlag(hcryp, Timeout) != HAL_OK)
 8002382:	6839      	ldr	r1, [r7, #0]
 8002384:	6878      	ldr	r0, [r7, #4]
 8002386:	f000 f833 	bl	80023f0 <CRYP_WaitOnCCFlag>
 800238a:	4603      	mov	r3, r0
 800238c:	2b00      	cmp	r3, #0
 800238e:	d001      	beq.n	8002394 <CRYP_GCMCCM_SetHeaderPhase+0x310>
      {
        return HAL_ERROR;
 8002390:	2301      	movs	r3, #1
 8002392:	e028      	b.n	80023e6 <CRYP_GCMCCM_SetHeaderPhase+0x362>
      }
      /* Clear CCF flag */
      __HAL_CRYP_CLEAR_FLAG(hcryp, CRYP_CLEAR_CCF);
 8002394:	687b      	ldr	r3, [r7, #4]
 8002396:	681b      	ldr	r3, [r3, #0]
 8002398:	f8d3 2308 	ldr.w	r2, [r3, #776]	; 0x308
 800239c:	687b      	ldr	r3, [r7, #4]
 800239e:	681b      	ldr	r3, [r3, #0]
 80023a0:	f042 0201 	orr.w	r2, r2, #1
 80023a4:	f8c3 2308 	str.w	r2, [r3, #776]	; 0x308
 80023a8:	e01c      	b.n	80023e4 <CRYP_GCMCCM_SetHeaderPhase+0x360>
    }
  }
  else
  {
    /*Workaround 1: only AES, before re-enabling the peripheral, datatype can be configured.*/
    MODIFY_REG(hcryp->Instance->CR, AES_CR_DATATYPE, hcryp->Init.DataType);
 80023aa:	687b      	ldr	r3, [r7, #4]
 80023ac:	681b      	ldr	r3, [r3, #0]
 80023ae:	681b      	ldr	r3, [r3, #0]
 80023b0:	f023 0106 	bic.w	r1, r3, #6
 80023b4:	687b      	ldr	r3, [r7, #4]
 80023b6:	685a      	ldr	r2, [r3, #4]
 80023b8:	687b      	ldr	r3, [r7, #4]
 80023ba:	681b      	ldr	r3, [r3, #0]
 80023bc:	430a      	orrs	r2, r1
 80023be:	601a      	str	r2, [r3, #0]

    /* Select header phase */
    CRYP_SET_PHASE(hcryp, CRYP_PHASE_HEADER);
 80023c0:	687b      	ldr	r3, [r7, #4]
 80023c2:	681b      	ldr	r3, [r3, #0]
 80023c4:	681b      	ldr	r3, [r3, #0]
 80023c6:	f423 42c0 	bic.w	r2, r3, #24576	; 0x6000
 80023ca:	687b      	ldr	r3, [r7, #4]
 80023cc:	681b      	ldr	r3, [r3, #0]
 80023ce:	f442 5200 	orr.w	r2, r2, #8192	; 0x2000
 80023d2:	601a      	str	r2, [r3, #0]

    /* Enable the CRYP peripheral */
    __HAL_CRYP_ENABLE(hcryp);
 80023d4:	687b      	ldr	r3, [r7, #4]
 80023d6:	681b      	ldr	r3, [r3, #0]
 80023d8:	681a      	ldr	r2, [r3, #0]
 80023da:	687b      	ldr	r3, [r7, #4]
 80023dc:	681b      	ldr	r3, [r3, #0]
 80023de:	f042 0201 	orr.w	r2, r2, #1
 80023e2:	601a      	str	r2, [r3, #0]
  }

  return HAL_OK;
 80023e4:	2300      	movs	r3, #0
}
 80023e6:	4618      	mov	r0, r3
 80023e8:	3748      	adds	r7, #72	; 0x48
 80023ea:	46bd      	mov	sp, r7
 80023ec:	bdb0      	pop	{r4, r5, r7, pc}
 80023ee:	bf00      	nop

080023f0 <CRYP_WaitOnCCFlag>:
  * @param  Timeout Timeout duration.
  * @note   This function can only be used in thread mode.
  * @retval HAL status
  */
static HAL_StatusTypeDef CRYP_WaitOnCCFlag(CRYP_HandleTypeDef *hcryp, uint32_t Timeout)
{
 80023f0:	b580      	push	{r7, lr}
 80023f2:	b084      	sub	sp, #16
 80023f4:	af00      	add	r7, sp, #0
 80023f6:	6078      	str	r0, [r7, #4]
 80023f8:	6039      	str	r1, [r7, #0]
  uint32_t tickstart;

  /* Get timeout */
  tickstart = HAL_GetTick();
 80023fa:	f7fe fae5 	bl	80009c8 <HAL_GetTick>
 80023fe:	60f8      	str	r0, [r7, #12]

  while (HAL_IS_BIT_CLR(hcryp->Instance->ISR, AES_ISR_CCF))
 8002400:	e026      	b.n	8002450 <CRYP_WaitOnCCFlag+0x60>
  {
    /* Check for the Timeout */
    if (Timeout != HAL_MAX_DELAY)
 8002402:	683b      	ldr	r3, [r7, #0]
 8002404:	f1b3 3fff 	cmp.w	r3, #4294967295	; 0xffffffff
 8002408:	d022      	beq.n	8002450 <CRYP_WaitOnCCFlag+0x60>
    {
      if (((HAL_GetTick() - tickstart) > Timeout) || (Timeout == 0U))
 800240a:	f7fe fadd 	bl	80009c8 <HAL_GetTick>
 800240e:	4602      	mov	r2, r0
 8002410:	68fb      	ldr	r3, [r7, #12]
 8002412:	1ad3      	subs	r3, r2, r3
 8002414:	683a      	ldr	r2, [r7, #0]
 8002416:	429a      	cmp	r2, r3
 8002418:	d302      	bcc.n	8002420 <CRYP_WaitOnCCFlag+0x30>
 800241a:	683b      	ldr	r3, [r7, #0]
 800241c:	2b00      	cmp	r3, #0
 800241e:	d117      	bne.n	8002450 <CRYP_WaitOnCCFlag+0x60>
      {
        __HAL_CRYP_DISABLE(hcryp);
 8002420:	687b      	ldr	r3, [r7, #4]
 8002422:	681b      	ldr	r3, [r3, #0]
 8002424:	681a      	ldr	r2, [r3, #0]
 8002426:	687b      	ldr	r3, [r7, #4]
 8002428:	681b      	ldr	r3, [r3, #0]
 800242a:	f022 0201 	bic.w	r2, r2, #1
 800242e:	601a      	str	r2, [r3, #0]
        hcryp->ErrorCode |= HAL_CRYP_ERROR_TIMEOUT;
 8002430:	687b      	ldr	r3, [r7, #4]
 8002432:	6ddb      	ldr	r3, [r3, #92]	; 0x5c
 8002434:	f043 0210 	orr.w	r2, r3, #16
 8002438:	687b      	ldr	r3, [r7, #4]
 800243a:	65da      	str	r2, [r3, #92]	; 0x5c
        hcryp->State = HAL_CRYP_STATE_READY;
 800243c:	687b      	ldr	r3, [r7, #4]
 800243e:	2201      	movs	r2, #1
 8002440:	f883 2059 	strb.w	r2, [r3, #89]	; 0x59
        __HAL_UNLOCK(hcryp);
 8002444:	687b      	ldr	r3, [r7, #4]
 8002446:	2200      	movs	r2, #0
 8002448:	f883 2058 	strb.w	r2, [r3, #88]	; 0x58
        return HAL_ERROR;
 800244c:	2301      	movs	r3, #1
 800244e:	e008      	b.n	8002462 <CRYP_WaitOnCCFlag+0x72>
  while (HAL_IS_BIT_CLR(hcryp->Instance->ISR, AES_ISR_CCF))
 8002450:	687b      	ldr	r3, [r7, #4]
 8002452:	681b      	ldr	r3, [r3, #0]
 8002454:	f8d3 3304 	ldr.w	r3, [r3, #772]	; 0x304
 8002458:	f003 0301 	and.w	r3, r3, #1
 800245c:	2b00      	cmp	r3, #0
 800245e:	d0d0      	beq.n	8002402 <CRYP_WaitOnCCFlag+0x12>
      }
    }
  }
  return HAL_OK;
 8002460:	2300      	movs	r3, #0
}
 8002462:	4618      	mov	r0, r3
 8002464:	3710      	adds	r7, #16
 8002466:	46bd      	mov	sp, r7
 8002468:	bd80      	pop	{r7, pc}
	...

0800246c <HAL_GPIO_Init>:
  * @param  pGPIO_Init: pointer to a GPIO_InitTypeDef structure that contains
  *         the configuration information for the specified GPIO peripheral.
  * @retval None
  */
void HAL_GPIO_Init(GPIO_TypeDef  *GPIOx, const GPIO_InitTypeDef *pGPIO_Init)
{
 800246c:	b480      	push	{r7}
 800246e:	b089      	sub	sp, #36	; 0x24
 8002470:	af00      	add	r7, sp, #0
 8002472:	6078      	str	r0, [r7, #4]
 8002474:	6039      	str	r1, [r7, #0]
  uint32_t tmp;
  uint32_t iocurrent;
  uint32_t pin_position;
  uint32_t position = 0U;
 8002476:	2300      	movs	r3, #0
 8002478:	617b      	str	r3, [r7, #20]
  assert_param(IS_GPIO_ALL_INSTANCE(GPIOx));
  assert_param(IS_GPIO_PIN(pGPIO_Init->Pin));
  assert_param(IS_GPIO_MODE(pGPIO_Init->Mode));

  /* Save GPIO port address */
  p_gpio = GPIOx;
 800247a:	687b      	ldr	r3, [r7, #4]
 800247c:	613b      	str	r3, [r7, #16]

  /* Configure the port pins */
  while (((pGPIO_Init->Pin) >> position) != 0U)
 800247e:	e1ba      	b.n	80027f6 <HAL_GPIO_Init+0x38a>
  {
    /* Get current io position */
    iocurrent = (pGPIO_Init->Pin) & (1UL << position);
 8002480:	683b      	ldr	r3, [r7, #0]
 8002482:	681a      	ldr	r2, [r3, #0]
 8002484:	2101      	movs	r1, #1
 8002486:	697b      	ldr	r3, [r7, #20]
 8002488:	fa01 f303 	lsl.w	r3, r1, r3
 800248c:	4013      	ands	r3, r2
 800248e:	60fb      	str	r3, [r7, #12]

    /* Save Pin Position */
    pin_position = position;
 8002490:	697b      	ldr	r3, [r7, #20]
 8002492:	61bb      	str	r3, [r7, #24]

    if (iocurrent != 0U)
 8002494:	68fb      	ldr	r3, [r7, #12]
 8002496:	2b00      	cmp	r3, #0
 8002498:	f000 81aa 	beq.w	80027f0 <HAL_GPIO_Init+0x384>
    {
      /*--------------------- GPIO Mode Configuration ------------------------*/
      /* In case of Alternate function mode selection */
      if (GPIOx == LPGPIO1)
 800249c:	687b      	ldr	r3, [r7, #4]
 800249e:	4a55      	ldr	r2, [pc, #340]	; (80025f4 <HAL_GPIO_Init+0x188>)
 80024a0:	4293      	cmp	r3, r2
 80024a2:	d15d      	bne.n	8002560 <HAL_GPIO_Init+0xf4>
      {
        /* MODER configuration */
        tmp = GPIOx->MODER;
 80024a4:	687b      	ldr	r3, [r7, #4]
 80024a6:	681b      	ldr	r3, [r3, #0]
 80024a8:	61fb      	str	r3, [r7, #28]
        tmp &= ~(LPGPIO_MODER_MOD0 << position);
 80024aa:	2201      	movs	r2, #1
 80024ac:	697b      	ldr	r3, [r7, #20]
 80024ae:	fa02 f303 	lsl.w	r3, r2, r3
 80024b2:	43db      	mvns	r3, r3
 80024b4:	69fa      	ldr	r2, [r7, #28]
 80024b6:	4013      	ands	r3, r2
 80024b8:	61fb      	str	r3, [r7, #28]
        tmp |= ((pGPIO_Init->Mode & GPIO_MODE_OUTPUT_PP) << position);
 80024ba:	683b      	ldr	r3, [r7, #0]
 80024bc:	685b      	ldr	r3, [r3, #4]
 80024be:	f003 0201 	and.w	r2, r3, #1
 80024c2:	697b      	ldr	r3, [r7, #20]
 80024c4:	fa02 f303 	lsl.w	r3, r2, r3
 80024c8:	69fa      	ldr	r2, [r7, #28]
 80024ca:	4313      	orrs	r3, r2
 80024cc:	61fb      	str	r3, [r7, #28]
        GPIOx->MODER = tmp;
 80024ce:	687b      	ldr	r3, [r7, #4]
 80024d0:	69fa      	ldr	r2, [r7, #28]
 80024d2:	601a      	str	r2, [r3, #0]

        /* Save GPIO Port and pin index */
        p_gpio = LPGPIO_Map[position].GPIO_PORT;
 80024d4:	4a48      	ldr	r2, [pc, #288]	; (80025f8 <HAL_GPIO_Init+0x18c>)
 80024d6:	697b      	ldr	r3, [r7, #20]
 80024d8:	f852 3033 	ldr.w	r3, [r2, r3, lsl #3]
 80024dc:	613b      	str	r3, [r7, #16]
        pin_position = LPGPIO_Map[position].Pin_Pos;
 80024de:	4a46      	ldr	r2, [pc, #280]	; (80025f8 <HAL_GPIO_Init+0x18c>)
 80024e0:	697b      	ldr	r3, [r7, #20]
 80024e2:	00db      	lsls	r3, r3, #3
 80024e4:	4413      	add	r3, r2
 80024e6:	685b      	ldr	r3, [r3, #4]
 80024e8:	61bb      	str	r3, [r7, #24]

        /* Configure Alternate function mapped with the current IO */
        tmp = p_gpio->AFR[(pin_position) >> 3U];
 80024ea:	69bb      	ldr	r3, [r7, #24]
 80024ec:	08da      	lsrs	r2, r3, #3
 80024ee:	693b      	ldr	r3, [r7, #16]
 80024f0:	3208      	adds	r2, #8
 80024f2:	f853 3022 	ldr.w	r3, [r3, r2, lsl #2]
 80024f6:	61fb      	str	r3, [r7, #28]
        tmp &= ~(0x0FUL << (((pin_position) & 0x07U) * 4U));
 80024f8:	69bb      	ldr	r3, [r7, #24]
 80024fa:	f003 0307 	and.w	r3, r3, #7
 80024fe:	009b      	lsls	r3, r3, #2
 8002500:	220f      	movs	r2, #15
 8002502:	fa02 f303 	lsl.w	r3, r2, r3
 8002506:	43db      	mvns	r3, r3
 8002508:	69fa      	ldr	r2, [r7, #28]
 800250a:	4013      	ands	r3, r2
 800250c:	61fb      	str	r3, [r7, #28]
        tmp |= ((GPIO_AF11_LPGPIO1 & 0x0FUL) << (((pin_position) & 0x07U) * 4U));
 800250e:	69bb      	ldr	r3, [r7, #24]
 8002510:	f003 0307 	and.w	r3, r3, #7
 8002514:	009b      	lsls	r3, r3, #2
 8002516:	220b      	movs	r2, #11
 8002518:	fa02 f303 	lsl.w	r3, r2, r3
 800251c:	69fa      	ldr	r2, [r7, #28]
 800251e:	4313      	orrs	r3, r2
 8002520:	61fb      	str	r3, [r7, #28]
        p_gpio->AFR[(pin_position) >> 3U] = tmp;
 8002522:	69bb      	ldr	r3, [r7, #24]
 8002524:	08da      	lsrs	r2, r3, #3
 8002526:	693b      	ldr	r3, [r7, #16]
 8002528:	3208      	adds	r2, #8
 800252a:	69f9      	ldr	r1, [r7, #28]
 800252c:	f843 1022 	str.w	r1, [r3, r2, lsl #2]

        /* Configure IO Direction mode (Alternate) */
        tmp = p_gpio->MODER;
 8002530:	693b      	ldr	r3, [r7, #16]
 8002532:	681b      	ldr	r3, [r3, #0]
 8002534:	61fb      	str	r3, [r7, #28]
        tmp &= ~(GPIO_MODER_MODE0 << (pin_position * 2U));
 8002536:	69bb      	ldr	r3, [r7, #24]
 8002538:	005b      	lsls	r3, r3, #1
 800253a:	2203      	movs	r2, #3
 800253c:	fa02 f303 	lsl.w	r3, r2, r3
 8002540:	43db      	mvns	r3, r3
 8002542:	69fa      	ldr	r2, [r7, #28]
 8002544:	4013      	ands	r3, r2
 8002546:	61fb      	str	r3, [r7, #28]
        tmp |= ((GPIO_MODE_AF_PP & 0x0FUL) << (pin_position * 2U));
 8002548:	69bb      	ldr	r3, [r7, #24]
 800254a:	005b      	lsls	r3, r3, #1
 800254c:	2202      	movs	r2, #2
 800254e:	fa02 f303 	lsl.w	r3, r2, r3
 8002552:	69fa      	ldr	r2, [r7, #28]
 8002554:	4313      	orrs	r3, r2
 8002556:	61fb      	str	r3, [r7, #28]
        p_gpio->MODER = tmp;
 8002558:	693b      	ldr	r3, [r7, #16]
 800255a:	69fa      	ldr	r2, [r7, #28]
 800255c:	601a      	str	r2, [r3, #0]
 800255e:	e067      	b.n	8002630 <HAL_GPIO_Init+0x1c4>
      }
      else if ((pGPIO_Init->Mode == GPIO_MODE_AF_PP) || (pGPIO_Init->Mode == GPIO_MODE_AF_OD))
 8002560:	683b      	ldr	r3, [r7, #0]
 8002562:	685b      	ldr	r3, [r3, #4]
 8002564:	2b02      	cmp	r3, #2
 8002566:	d003      	beq.n	8002570 <HAL_GPIO_Init+0x104>
 8002568:	683b      	ldr	r3, [r7, #0]
 800256a:	685b      	ldr	r3, [r3, #4]
 800256c:	2b12      	cmp	r3, #18
 800256e:	d145      	bne.n	80025fc <HAL_GPIO_Init+0x190>
        assert_param(IS_GPIO_ALL_INSTANCE(GPIOx));
        assert_param(IS_GPIO_AF_INSTANCE(GPIOx));
        assert_param(IS_GPIO_AF(pGPIO_Init->Alternate));

        /* Configure Alternate function mapped with the current IO */
        tmp = GPIOx->AFR[position >> 3U];
 8002570:	697b      	ldr	r3, [r7, #20]
 8002572:	08da      	lsrs	r2, r3, #3
 8002574:	687b      	ldr	r3, [r7, #4]
 8002576:	3208      	adds	r2, #8
 8002578:	f853 3022 	ldr.w	r3, [r3, r2, lsl #2]
 800257c:	61fb      	str	r3, [r7, #28]
        tmp &= ~(0x0FUL << ((position & 0x07U) * 4U));
 800257e:	697b      	ldr	r3, [r7, #20]
 8002580:	f003 0307 	and.w	r3, r3, #7
 8002584:	009b      	lsls	r3, r3, #2
 8002586:	220f      	movs	r2, #15
 8002588:	fa02 f303 	lsl.w	r3, r2, r3
 800258c:	43db      	mvns	r3, r3
 800258e:	69fa      	ldr	r2, [r7, #28]
 8002590:	4013      	ands	r3, r2
 8002592:	61fb      	str	r3, [r7, #28]
        tmp |= ((pGPIO_Init->Alternate & 0x0FUL) << ((position & 0x07U) * 4U));
 8002594:	683b      	ldr	r3, [r7, #0]
 8002596:	691b      	ldr	r3, [r3, #16]
 8002598:	f003 020f 	and.w	r2, r3, #15
 800259c:	697b      	ldr	r3, [r7, #20]
 800259e:	f003 0307 	and.w	r3, r3, #7
 80025a2:	009b      	lsls	r3, r3, #2
 80025a4:	fa02 f303 	lsl.w	r3, r2, r3
 80025a8:	69fa      	ldr	r2, [r7, #28]
 80025aa:	4313      	orrs	r3, r2
 80025ac:	61fb      	str	r3, [r7, #28]
        GPIOx->AFR[position >> 3U] = tmp;
 80025ae:	697b      	ldr	r3, [r7, #20]
 80025b0:	08da      	lsrs	r2, r3, #3
 80025b2:	687b      	ldr	r3, [r7, #4]
 80025b4:	3208      	adds	r2, #8
 80025b6:	69f9      	ldr	r1, [r7, #28]
 80025b8:	f843 1022 	str.w	r1, [r3, r2, lsl #2]

        /* Configure IO Direction mode (Alternate) */
        tmp = p_gpio->MODER;
 80025bc:	693b      	ldr	r3, [r7, #16]
 80025be:	681b      	ldr	r3, [r3, #0]
 80025c0:	61fb      	str	r3, [r7, #28]
        tmp &= ~(GPIO_MODER_MODE0 << (pin_position * 2U));
 80025c2:	69bb      	ldr	r3, [r7, #24]
 80025c4:	005b      	lsls	r3, r3, #1
 80025c6:	2203      	movs	r2, #3
 80025c8:	fa02 f303 	lsl.w	r3, r2, r3
 80025cc:	43db      	mvns	r3, r3
 80025ce:	69fa      	ldr	r2, [r7, #28]
 80025d0:	4013      	ands	r3, r2
 80025d2:	61fb      	str	r3, [r7, #28]
        tmp |= ((pGPIO_Init->Mode & GPIO_MODE) << (pin_position * 2U));
 80025d4:	683b      	ldr	r3, [r7, #0]
 80025d6:	685b      	ldr	r3, [r3, #4]
 80025d8:	f003 0203 	and.w	r2, r3, #3
 80025dc:	69bb      	ldr	r3, [r7, #24]
 80025de:	005b      	lsls	r3, r3, #1
 80025e0:	fa02 f303 	lsl.w	r3, r2, r3
 80025e4:	69fa      	ldr	r2, [r7, #28]
 80025e6:	4313      	orrs	r3, r2
 80025e8:	61fb      	str	r3, [r7, #28]
        p_gpio->MODER = tmp;
 80025ea:	693b      	ldr	r3, [r7, #16]
 80025ec:	69fa      	ldr	r2, [r7, #28]
 80025ee:	601a      	str	r2, [r3, #0]
 80025f0:	e01e      	b.n	8002630 <HAL_GPIO_Init+0x1c4>
 80025f2:	bf00      	nop
 80025f4:	46020000 	.word	0x46020000
 80025f8:	08004fc4 	.word	0x08004fc4
      {
        /* Check the parameters */
        assert_param(IS_GPIO_ALL_INSTANCE(GPIOx));

        /* Configure IO Direction mode (Input, Output, Alternate or Analog) */
        tmp = p_gpio->MODER;
 80025fc:	693b      	ldr	r3, [r7, #16]
 80025fe:	681b      	ldr	r3, [r3, #0]
 8002600:	61fb      	str	r3, [r7, #28]
        tmp &= ~(GPIO_MODER_MODE0 << (pin_position * 2U));
 8002602:	69bb      	ldr	r3, [r7, #24]
 8002604:	005b      	lsls	r3, r3, #1
 8002606:	2203      	movs	r2, #3
 8002608:	fa02 f303 	lsl.w	r3, r2, r3
 800260c:	43db      	mvns	r3, r3
 800260e:	69fa      	ldr	r2, [r7, #28]
 8002610:	4013      	ands	r3, r2
 8002612:	61fb      	str	r3, [r7, #28]
        tmp |= ((pGPIO_Init->Mode & GPIO_MODE) << (pin_position * 2U));
 8002614:	683b      	ldr	r3, [r7, #0]
 8002616:	685b      	ldr	r3, [r3, #4]
 8002618:	f003 0203 	and.w	r2, r3, #3
 800261c:	69bb      	ldr	r3, [r7, #24]
 800261e:	005b      	lsls	r3, r3, #1
 8002620:	fa02 f303 	lsl.w	r3, r2, r3
 8002624:	69fa      	ldr	r2, [r7, #28]
 8002626:	4313      	orrs	r3, r2
 8002628:	61fb      	str	r3, [r7, #28]
        p_gpio->MODER = tmp;
 800262a:	693b      	ldr	r3, [r7, #16]
 800262c:	69fa      	ldr	r2, [r7, #28]
 800262e:	601a      	str	r2, [r3, #0]
      }

      /* In case of Output or Alternate function mode selection */
      if ((pGPIO_Init->Mode == GPIO_MODE_OUTPUT_PP) || (pGPIO_Init->Mode == GPIO_MODE_AF_PP) ||
 8002630:	683b      	ldr	r3, [r7, #0]
 8002632:	685b      	ldr	r3, [r3, #4]
 8002634:	2b01      	cmp	r3, #1
 8002636:	d00b      	beq.n	8002650 <HAL_GPIO_Init+0x1e4>
 8002638:	683b      	ldr	r3, [r7, #0]
 800263a:	685b      	ldr	r3, [r3, #4]
 800263c:	2b02      	cmp	r3, #2
 800263e:	d007      	beq.n	8002650 <HAL_GPIO_Init+0x1e4>
          (pGPIO_Init->Mode == GPIO_MODE_OUTPUT_OD) || (pGPIO_Init->Mode == GPIO_MODE_AF_OD))
 8002640:	683b      	ldr	r3, [r7, #0]
 8002642:	685b      	ldr	r3, [r3, #4]
      if ((pGPIO_Init->Mode == GPIO_MODE_OUTPUT_PP) || (pGPIO_Init->Mode == GPIO_MODE_AF_PP) ||
 8002644:	2b11      	cmp	r3, #17
 8002646:	d003      	beq.n	8002650 <HAL_GPIO_Init+0x1e4>
          (pGPIO_Init->Mode == GPIO_MODE_OUTPUT_OD) || (pGPIO_Init->Mode == GPIO_MODE_AF_OD))
 8002648:	683b      	ldr	r3, [r7, #0]
 800264a:	685b      	ldr	r3, [r3, #4]
 800264c:	2b12      	cmp	r3, #18
 800264e:	d130      	bne.n	80026b2 <HAL_GPIO_Init+0x246>
      {
        /* Check the Speed parameter */
        assert_param(IS_GPIO_SPEED(pGPIO_Init->Speed));

        /* Configure the IO Speed */
        tmp = p_gpio->OSPEEDR;
 8002650:	693b      	ldr	r3, [r7, #16]
 8002652:	689b      	ldr	r3, [r3, #8]
 8002654:	61fb      	str	r3, [r7, #28]
        tmp &= ~(GPIO_OSPEEDR_OSPEED0 << (pin_position * 2U));
 8002656:	69bb      	ldr	r3, [r7, #24]
 8002658:	005b      	lsls	r3, r3, #1
 800265a:	2203      	movs	r2, #3
 800265c:	fa02 f303 	lsl.w	r3, r2, r3
 8002660:	43db      	mvns	r3, r3
 8002662:	69fa      	ldr	r2, [r7, #28]
 8002664:	4013      	ands	r3, r2
 8002666:	61fb      	str	r3, [r7, #28]
        tmp |= (pGPIO_Init->Speed << (pin_position * 2U));
 8002668:	683b      	ldr	r3, [r7, #0]
 800266a:	68da      	ldr	r2, [r3, #12]
 800266c:	69bb      	ldr	r3, [r7, #24]
 800266e:	005b      	lsls	r3, r3, #1
 8002670:	fa02 f303 	lsl.w	r3, r2, r3
 8002674:	69fa      	ldr	r2, [r7, #28]
 8002676:	4313      	orrs	r3, r2
 8002678:	61fb      	str	r3, [r7, #28]
        p_gpio->OSPEEDR = tmp;
 800267a:	693b      	ldr	r3, [r7, #16]
 800267c:	69fa      	ldr	r2, [r7, #28]
 800267e:	609a      	str	r2, [r3, #8]

        /* Configure the IO Output Type */
        tmp = p_gpio->OTYPER;
 8002680:	693b      	ldr	r3, [r7, #16]
 8002682:	685b      	ldr	r3, [r3, #4]
 8002684:	61fb      	str	r3, [r7, #28]
        tmp &= ~(GPIO_OTYPER_OT0 << pin_position);
 8002686:	2201      	movs	r2, #1
 8002688:	69bb      	ldr	r3, [r7, #24]
 800268a:	fa02 f303 	lsl.w	r3, r2, r3
 800268e:	43db      	mvns	r3, r3
 8002690:	69fa      	ldr	r2, [r7, #28]
 8002692:	4013      	ands	r3, r2
 8002694:	61fb      	str	r3, [r7, #28]
        tmp |= (((pGPIO_Init->Mode & GPIO_OUTPUT_TYPE) >> 4U) << pin_position);
 8002696:	683b      	ldr	r3, [r7, #0]
 8002698:	685b      	ldr	r3, [r3, #4]
 800269a:	091b      	lsrs	r3, r3, #4
 800269c:	f003 0201 	and.w	r2, r3, #1
 80026a0:	69bb      	ldr	r3, [r7, #24]
 80026a2:	fa02 f303 	lsl.w	r3, r2, r3
 80026a6:	69fa      	ldr	r2, [r7, #28]
 80026a8:	4313      	orrs	r3, r2
 80026aa:	61fb      	str	r3, [r7, #28]
        p_gpio->OTYPER = tmp;
 80026ac:	693b      	ldr	r3, [r7, #16]
 80026ae:	69fa      	ldr	r2, [r7, #28]
 80026b0:	605a      	str	r2, [r3, #4]
      }

      if (pGPIO_Init->Mode != GPIO_MODE_ANALOG)
 80026b2:	683b      	ldr	r3, [r7, #0]
 80026b4:	685b      	ldr	r3, [r3, #4]
 80026b6:	2b03      	cmp	r3, #3
 80026b8:	d017      	beq.n	80026ea <HAL_GPIO_Init+0x27e>
      {
        /* Check the Pull parameters */
        assert_param(IS_GPIO_PULL(pGPIO_Init->Pull));

        /* Activate the Pull-up or Pull down resistor for the current IO */
        tmp = p_gpio->PUPDR;
 80026ba:	693b      	ldr	r3, [r7, #16]
 80026bc:	68db      	ldr	r3, [r3, #12]
 80026be:	61fb      	str	r3, [r7, #28]
        tmp &= ~(GPIO_PUPDR_PUPD0 << (pin_position * 2U));
 80026c0:	69bb      	ldr	r3, [r7, #24]
 80026c2:	005b      	lsls	r3, r3, #1
 80026c4:	2203      	movs	r2, #3
 80026c6:	fa02 f303 	lsl.w	r3, r2, r3
 80026ca:	43db      	mvns	r3, r3
 80026cc:	69fa      	ldr	r2, [r7, #28]
 80026ce:	4013      	ands	r3, r2
 80026d0:	61fb      	str	r3, [r7, #28]
        tmp |= ((pGPIO_Init->Pull) << (pin_position * 2U));
 80026d2:	683b      	ldr	r3, [r7, #0]
 80026d4:	689a      	ldr	r2, [r3, #8]
 80026d6:	69bb      	ldr	r3, [r7, #24]
 80026d8:	005b      	lsls	r3, r3, #1
 80026da:	fa02 f303 	lsl.w	r3, r2, r3
 80026de:	69fa      	ldr	r2, [r7, #28]
 80026e0:	4313      	orrs	r3, r2
 80026e2:	61fb      	str	r3, [r7, #28]
        p_gpio->PUPDR = tmp;
 80026e4:	693b      	ldr	r3, [r7, #16]
 80026e6:	69fa      	ldr	r2, [r7, #28]
 80026e8:	60da      	str	r2, [r3, #12]
      }

      /*--------------------- EXTI Mode Configuration ------------------------*/
      /* Configure the External Interrupt or event for the current IO */
      if ((pGPIO_Init->Mode & EXTI_MODE) == EXTI_MODE)
 80026ea:	683b      	ldr	r3, [r7, #0]
 80026ec:	685b      	ldr	r3, [r3, #4]
 80026ee:	f003 5380 	and.w	r3, r3, #268435456	; 0x10000000
 80026f2:	2b00      	cmp	r3, #0
 80026f4:	d07c      	beq.n	80027f0 <HAL_GPIO_Init+0x384>
      {
        tmp = EXTI->EXTICR[position >> 2U];
 80026f6:	4a47      	ldr	r2, [pc, #284]	; (8002814 <HAL_GPIO_Init+0x3a8>)
 80026f8:	697b      	ldr	r3, [r7, #20]
 80026fa:	089b      	lsrs	r3, r3, #2
 80026fc:	3318      	adds	r3, #24
 80026fe:	f852 3023 	ldr.w	r3, [r2, r3, lsl #2]
 8002702:	61fb      	str	r3, [r7, #28]
        tmp &= ~((0x0FUL) << (8U * (position & 0x03U)));
 8002704:	697b      	ldr	r3, [r7, #20]
 8002706:	f003 0303 	and.w	r3, r3, #3
 800270a:	00db      	lsls	r3, r3, #3
 800270c:	220f      	movs	r2, #15
 800270e:	fa02 f303 	lsl.w	r3, r2, r3
 8002712:	43db      	mvns	r3, r3
 8002714:	69fa      	ldr	r2, [r7, #28]
 8002716:	4013      	ands	r3, r2
 8002718:	61fb      	str	r3, [r7, #28]
        tmp |= (GPIO_GET_INDEX(GPIOx) << (8U * (position & 0x03U)));
 800271a:	687b      	ldr	r3, [r7, #4]
 800271c:	0a9a      	lsrs	r2, r3, #10
 800271e:	4b3e      	ldr	r3, [pc, #248]	; (8002818 <HAL_GPIO_Init+0x3ac>)
 8002720:	4013      	ands	r3, r2
 8002722:	697a      	ldr	r2, [r7, #20]
 8002724:	f002 0203 	and.w	r2, r2, #3
 8002728:	00d2      	lsls	r2, r2, #3
 800272a:	4093      	lsls	r3, r2
 800272c:	69fa      	ldr	r2, [r7, #28]
 800272e:	4313      	orrs	r3, r2
 8002730:	61fb      	str	r3, [r7, #28]
        EXTI->EXTICR[position >> 2U] = tmp;
 8002732:	4938      	ldr	r1, [pc, #224]	; (8002814 <HAL_GPIO_Init+0x3a8>)
 8002734:	697b      	ldr	r3, [r7, #20]
 8002736:	089b      	lsrs	r3, r3, #2
 8002738:	3318      	adds	r3, #24
 800273a:	69fa      	ldr	r2, [r7, #28]
 800273c:	f841 2023 	str.w	r2, [r1, r3, lsl #2]

        /* Clear Rising Falling edge configuration */
        tmp = EXTI->RTSR1;
 8002740:	4b34      	ldr	r3, [pc, #208]	; (8002814 <HAL_GPIO_Init+0x3a8>)
 8002742:	681b      	ldr	r3, [r3, #0]
 8002744:	61fb      	str	r3, [r7, #28]
        tmp &= ~((uint32_t)iocurrent);
 8002746:	68fb      	ldr	r3, [r7, #12]
 8002748:	43db      	mvns	r3, r3
 800274a:	69fa      	ldr	r2, [r7, #28]
 800274c:	4013      	ands	r3, r2
 800274e:	61fb      	str	r3, [r7, #28]
        if ((pGPIO_Init->Mode & RISING_EDGE) == RISING_EDGE)
 8002750:	683b      	ldr	r3, [r7, #0]
 8002752:	685b      	ldr	r3, [r3, #4]
 8002754:	f403 1380 	and.w	r3, r3, #1048576	; 0x100000
 8002758:	2b00      	cmp	r3, #0
 800275a:	d003      	beq.n	8002764 <HAL_GPIO_Init+0x2f8>
        {
          tmp |= iocurrent;
 800275c:	69fa      	ldr	r2, [r7, #28]
 800275e:	68fb      	ldr	r3, [r7, #12]
 8002760:	4313      	orrs	r3, r2
 8002762:	61fb      	str	r3, [r7, #28]
        }
        EXTI->RTSR1 = tmp;
 8002764:	4a2b      	ldr	r2, [pc, #172]	; (8002814 <HAL_GPIO_Init+0x3a8>)
 8002766:	69fb      	ldr	r3, [r7, #28]
 8002768:	6013      	str	r3, [r2, #0]

        tmp = EXTI->FTSR1;
 800276a:	4b2a      	ldr	r3, [pc, #168]	; (8002814 <HAL_GPIO_Init+0x3a8>)
 800276c:	685b      	ldr	r3, [r3, #4]
 800276e:	61fb      	str	r3, [r7, #28]
        tmp &= ~((uint32_t)iocurrent);
 8002770:	68fb      	ldr	r3, [r7, #12]
 8002772:	43db      	mvns	r3, r3
 8002774:	69fa      	ldr	r2, [r7, #28]
 8002776:	4013      	ands	r3, r2
 8002778:	61fb      	str	r3, [r7, #28]
        if ((pGPIO_Init->Mode & FALLING_EDGE) == FALLING_EDGE)
 800277a:	683b      	ldr	r3, [r7, #0]
 800277c:	685b      	ldr	r3, [r3, #4]
 800277e:	f403 1300 	and.w	r3, r3, #2097152	; 0x200000
 8002782:	2b00      	cmp	r3, #0
 8002784:	d003      	beq.n	800278e <HAL_GPIO_Init+0x322>
        {
          tmp |= iocurrent;
 8002786:	69fa      	ldr	r2, [r7, #28]
 8002788:	68fb      	ldr	r3, [r7, #12]
 800278a:	4313      	orrs	r3, r2
 800278c:	61fb      	str	r3, [r7, #28]
        }
        EXTI->FTSR1 = tmp;
 800278e:	4a21      	ldr	r2, [pc, #132]	; (8002814 <HAL_GPIO_Init+0x3a8>)
 8002790:	69fb      	ldr	r3, [r7, #28]
 8002792:	6053      	str	r3, [r2, #4]

        /* Clear EXTI line configuration */
        tmp = EXTI->EMR1;
 8002794:	4b1f      	ldr	r3, [pc, #124]	; (8002814 <HAL_GPIO_Init+0x3a8>)
 8002796:	f8d3 3084 	ldr.w	r3, [r3, #132]	; 0x84
 800279a:	61fb      	str	r3, [r7, #28]
        tmp &= ~((uint32_t)iocurrent);
 800279c:	68fb      	ldr	r3, [r7, #12]
 800279e:	43db      	mvns	r3, r3
 80027a0:	69fa      	ldr	r2, [r7, #28]
 80027a2:	4013      	ands	r3, r2
 80027a4:	61fb      	str	r3, [r7, #28]
        if ((pGPIO_Init->Mode & GPIO_MODE_EVT) == GPIO_MODE_EVT)
 80027a6:	683b      	ldr	r3, [r7, #0]
 80027a8:	685b      	ldr	r3, [r3, #4]
 80027aa:	f403 3300 	and.w	r3, r3, #131072	; 0x20000
 80027ae:	2b00      	cmp	r3, #0
 80027b0:	d003      	beq.n	80027ba <HAL_GPIO_Init+0x34e>
        {
          tmp |= iocurrent;
 80027b2:	69fa      	ldr	r2, [r7, #28]
 80027b4:	68fb      	ldr	r3, [r7, #12]
 80027b6:	4313      	orrs	r3, r2
 80027b8:	61fb      	str	r3, [r7, #28]
        }
        EXTI->EMR1 = tmp;
 80027ba:	4a16      	ldr	r2, [pc, #88]	; (8002814 <HAL_GPIO_Init+0x3a8>)
 80027bc:	69fb      	ldr	r3, [r7, #28]
 80027be:	f8c2 3084 	str.w	r3, [r2, #132]	; 0x84

        tmp = EXTI->IMR1;
 80027c2:	4b14      	ldr	r3, [pc, #80]	; (8002814 <HAL_GPIO_Init+0x3a8>)
 80027c4:	f8d3 3080 	ldr.w	r3, [r3, #128]	; 0x80
 80027c8:	61fb      	str	r3, [r7, #28]
        tmp &= ~((uint32_t)iocurrent);
 80027ca:	68fb      	ldr	r3, [r7, #12]
 80027cc:	43db      	mvns	r3, r3
 80027ce:	69fa      	ldr	r2, [r7, #28]
 80027d0:	4013      	ands	r3, r2
 80027d2:	61fb      	str	r3, [r7, #28]
        if ((pGPIO_Init->Mode & GPIO_MODE_IT) == GPIO_MODE_IT)
 80027d4:	683b      	ldr	r3, [r7, #0]
 80027d6:	685b      	ldr	r3, [r3, #4]
 80027d8:	f403 3380 	and.w	r3, r3, #65536	; 0x10000
 80027dc:	2b00      	cmp	r3, #0
 80027de:	d003      	beq.n	80027e8 <HAL_GPIO_Init+0x37c>
        {
          tmp |= iocurrent;
 80027e0:	69fa      	ldr	r2, [r7, #28]
 80027e2:	68fb      	ldr	r3, [r7, #12]
 80027e4:	4313      	orrs	r3, r2
 80027e6:	61fb      	str	r3, [r7, #28]
        }
        EXTI->IMR1 = tmp;
 80027e8:	4a0a      	ldr	r2, [pc, #40]	; (8002814 <HAL_GPIO_Init+0x3a8>)
 80027ea:	69fb      	ldr	r3, [r7, #28]
 80027ec:	f8c2 3080 	str.w	r3, [r2, #128]	; 0x80
      }
    }
    position++;
 80027f0:	697b      	ldr	r3, [r7, #20]
 80027f2:	3301      	adds	r3, #1
 80027f4:	617b      	str	r3, [r7, #20]
  while (((pGPIO_Init->Pin) >> position) != 0U)
 80027f6:	683b      	ldr	r3, [r7, #0]
 80027f8:	681a      	ldr	r2, [r3, #0]
 80027fa:	697b      	ldr	r3, [r7, #20]
 80027fc:	fa22 f303 	lsr.w	r3, r2, r3
 8002800:	2b00      	cmp	r3, #0
 8002802:	f47f ae3d 	bne.w	8002480 <HAL_GPIO_Init+0x14>
  }
}
 8002806:	bf00      	nop
 8002808:	bf00      	nop
 800280a:	3724      	adds	r7, #36	; 0x24
 800280c:	46bd      	mov	sp, r7
 800280e:	f85d 7b04 	ldr.w	r7, [sp], #4
 8002812:	4770      	bx	lr
 8002814:	46022000 	.word	0x46022000
 8002818:	002f7f7f 	.word	0x002f7f7f

0800281c <HAL_GPIO_WritePin>:
  *            @arg GPIO_PIN_RESET: to clear the port pin
  *            @arg GPIO_PIN_SET: to set the port pin
  * @retval None
  */
void HAL_GPIO_WritePin(GPIO_TypeDef *GPIOx, uint16_t GPIO_Pin, GPIO_PinState PinState)
{
 800281c:	b480      	push	{r7}
 800281e:	b083      	sub	sp, #12
 8002820:	af00      	add	r7, sp, #0
 8002822:	6078      	str	r0, [r7, #4]
 8002824:	460b      	mov	r3, r1
 8002826:	807b      	strh	r3, [r7, #2]
 8002828:	4613      	mov	r3, r2
 800282a:	707b      	strb	r3, [r7, #1]
  /* Check the parameters */
  assert_param(IS_GPIO_PIN(GPIO_Pin));
  assert_param(IS_GPIO_PIN_ACTION(PinState));

  if (PinState != GPIO_PIN_RESET)
 800282c:	787b      	ldrb	r3, [r7, #1]
 800282e:	2b00      	cmp	r3, #0
 8002830:	d003      	beq.n	800283a <HAL_GPIO_WritePin+0x1e>
  {
    GPIOx->BSRR = (uint32_t)GPIO_Pin;
 8002832:	887a      	ldrh	r2, [r7, #2]
 8002834:	687b      	ldr	r3, [r7, #4]
 8002836:	619a      	str	r2, [r3, #24]
  }
  else
  {
    GPIOx->BRR  = (uint32_t)GPIO_Pin;
  }
}
 8002838:	e002      	b.n	8002840 <HAL_GPIO_WritePin+0x24>
    GPIOx->BRR  = (uint32_t)GPIO_Pin;
 800283a:	887a      	ldrh	r2, [r7, #2]
 800283c:	687b      	ldr	r3, [r7, #4]
 800283e:	629a      	str	r2, [r3, #40]	; 0x28
}
 8002840:	bf00      	nop
 8002842:	370c      	adds	r7, #12
 8002844:	46bd      	mov	sp, r7
 8002846:	f85d 7b04 	ldr.w	r7, [sp], #4
 800284a:	4770      	bx	lr

0800284c <HAL_GPIO_TogglePin>:
  * @param  GPIO_Pin specifies the pin to be toggled.
  *         This parameter can be any combination of GPIO_Pin_x where x can be (0..15).
  * @retval None
  */
void HAL_GPIO_TogglePin(GPIO_TypeDef *GPIOx, uint16_t GPIO_Pin)
{
 800284c:	b480      	push	{r7}
 800284e:	b085      	sub	sp, #20
 8002850:	af00      	add	r7, sp, #0
 8002852:	6078      	str	r0, [r7, #4]
 8002854:	460b      	mov	r3, r1
 8002856:	807b      	strh	r3, [r7, #2]

  /* Check the parameters */
  assert_param(IS_GPIO_PIN(GPIO_Pin));

  /* get current Output Data Register value */
  odr = GPIOx->ODR;
 8002858:	687b      	ldr	r3, [r7, #4]
 800285a:	695b      	ldr	r3, [r3, #20]
 800285c:	60fb      	str	r3, [r7, #12]

  /* Set selected pins that were at low level, and reset ones that were high */
  GPIOx->BSRR = ((odr & GPIO_Pin) << GPIO_NUMBER) | (~odr & GPIO_Pin);
 800285e:	887a      	ldrh	r2, [r7, #2]
 8002860:	68fb      	ldr	r3, [r7, #12]
 8002862:	4013      	ands	r3, r2
 8002864:	041a      	lsls	r2, r3, #16
 8002866:	68fb      	ldr	r3, [r7, #12]
 8002868:	43d9      	mvns	r1, r3
 800286a:	887b      	ldrh	r3, [r7, #2]
 800286c:	400b      	ands	r3, r1
 800286e:	431a      	orrs	r2, r3
 8002870:	687b      	ldr	r3, [r7, #4]
 8002872:	619a      	str	r2, [r3, #24]
}
 8002874:	bf00      	nop
 8002876:	3714      	adds	r7, #20
 8002878:	46bd      	mov	sp, r7
 800287a:	f85d 7b04 	ldr.w	r7, [sp], #4
 800287e:	4770      	bx	lr

08002880 <HAL_ICACHE_ConfigAssociativityMode>:
  *            @arg ICACHE_1WAY   1-way cache (direct mapped cache)
  *            @arg ICACHE_2WAYS  2-ways set associative cache (default)
  * @retval HAL status (HAL_OK/HAL_ERROR)
  */
HAL_StatusTypeDef HAL_ICACHE_ConfigAssociativityMode(uint32_t AssociativityMode)
{
 8002880:	b480      	push	{r7}
 8002882:	b085      	sub	sp, #20
 8002884:	af00      	add	r7, sp, #0
 8002886:	6078      	str	r0, [r7, #4]
  HAL_StatusTypeDef status = HAL_OK;
 8002888:	2300      	movs	r3, #0
 800288a:	73fb      	strb	r3, [r7, #15]

  /* Check the parameters */
  assert_param(IS_ICACHE_ASSOCIATIVITY_MODE(AssociativityMode));

  /* Check cache is not enabled */
  if (READ_BIT(ICACHE->CR, ICACHE_CR_EN) != 0U)
 800288c:	4b0b      	ldr	r3, [pc, #44]	; (80028bc <HAL_ICACHE_ConfigAssociativityMode+0x3c>)
 800288e:	681b      	ldr	r3, [r3, #0]
 8002890:	f003 0301 	and.w	r3, r3, #1
 8002894:	2b00      	cmp	r3, #0
 8002896:	d002      	beq.n	800289e <HAL_ICACHE_ConfigAssociativityMode+0x1e>
  {
    status = HAL_ERROR;
 8002898:	2301      	movs	r3, #1
 800289a:	73fb      	strb	r3, [r7, #15]
 800289c:	e007      	b.n	80028ae <HAL_ICACHE_ConfigAssociativityMode+0x2e>
  }
  else
  {
    MODIFY_REG(ICACHE->CR, ICACHE_CR_WAYSEL, AssociativityMode);
 800289e:	4b07      	ldr	r3, [pc, #28]	; (80028bc <HAL_ICACHE_ConfigAssociativityMode+0x3c>)
 80028a0:	681b      	ldr	r3, [r3, #0]
 80028a2:	f023 0204 	bic.w	r2, r3, #4
 80028a6:	4905      	ldr	r1, [pc, #20]	; (80028bc <HAL_ICACHE_ConfigAssociativityMode+0x3c>)
 80028a8:	687b      	ldr	r3, [r7, #4]
 80028aa:	4313      	orrs	r3, r2
 80028ac:	600b      	str	r3, [r1, #0]
  }

  return status;
 80028ae:	7bfb      	ldrb	r3, [r7, #15]
}
 80028b0:	4618      	mov	r0, r3
 80028b2:	3714      	adds	r7, #20
 80028b4:	46bd      	mov	sp, r7
 80028b6:	f85d 7b04 	ldr.w	r7, [sp], #4
 80028ba:	4770      	bx	lr
 80028bc:	40030400 	.word	0x40030400

080028c0 <HAL_ICACHE_Enable>:
  *         cache operation. The Instruction Cache is bypassed until the
  *         cache operation completes.
  * @retval HAL status (HAL_OK)
  */
HAL_StatusTypeDef HAL_ICACHE_Enable(void)
{
 80028c0:	b480      	push	{r7}
 80028c2:	af00      	add	r7, sp, #0
  SET_BIT(ICACHE->CR, ICACHE_CR_EN);
 80028c4:	4b05      	ldr	r3, [pc, #20]	; (80028dc <HAL_ICACHE_Enable+0x1c>)
 80028c6:	681b      	ldr	r3, [r3, #0]
 80028c8:	4a04      	ldr	r2, [pc, #16]	; (80028dc <HAL_ICACHE_Enable+0x1c>)
 80028ca:	f043 0301 	orr.w	r3, r3, #1
 80028ce:	6013      	str	r3, [r2, #0]

  return HAL_OK;
 80028d0:	2300      	movs	r3, #0
}
 80028d2:	4618      	mov	r0, r3
 80028d4:	46bd      	mov	sp, r7
 80028d6:	f85d 7b04 	ldr.w	r7, [sp], #4
 80028da:	4770      	bx	lr
 80028dc:	40030400 	.word	0x40030400

080028e0 <HAL_PWREx_ControlVoltageScaling>:
  * @note  Before moving to voltage scaling 4, it is mandatory to ensure that
  *        the system frequency is below 24 MHz.
  * @retval HAL Status.
  */
HAL_StatusTypeDef HAL_PWREx_ControlVoltageScaling(uint32_t VoltageScaling)
{
 80028e0:	b480      	push	{r7}
 80028e2:	b085      	sub	sp, #20
 80028e4:	af00      	add	r7, sp, #0
 80028e6:	6078      	str	r0, [r7, #4]

  /* Check the parameter */
  assert_param(IS_PWR_VOLTAGE_SCALING_RANGE(VoltageScaling));

  /* Get the current voltage scale applied */
  vos_old = READ_BIT(PWR->SVMSR, PWR_SVMSR_ACTVOS);
 80028e8:	4b39      	ldr	r3, [pc, #228]	; (80029d0 <HAL_PWREx_ControlVoltageScaling+0xf0>)
 80028ea:	6bdb      	ldr	r3, [r3, #60]	; 0x3c
 80028ec:	f403 3340 	and.w	r3, r3, #196608	; 0x30000
 80028f0:	60bb      	str	r3, [r7, #8]

  /* No change, nothing to do */
  if (vos_old == VoltageScaling)
 80028f2:	68ba      	ldr	r2, [r7, #8]
 80028f4:	687b      	ldr	r3, [r7, #4]
 80028f6:	429a      	cmp	r2, r3
 80028f8:	d10b      	bne.n	8002912 <HAL_PWREx_ControlVoltageScaling+0x32>
  {
    /* Enable USB BOOST after wake up from Stop mode */
    if (VoltageScaling > PWR_REGULATOR_VOLTAGE_SCALE3)
 80028fa:	687b      	ldr	r3, [r7, #4]
 80028fc:	f5b3 3f80 	cmp.w	r3, #65536	; 0x10000
 8002900:	d905      	bls.n	800290e <HAL_PWREx_ControlVoltageScaling+0x2e>
    {
      /* Enable USB BOOST */
      SET_BIT(PWR->VOSR, PWR_VOSR_BOOSTEN);
 8002902:	4b33      	ldr	r3, [pc, #204]	; (80029d0 <HAL_PWREx_ControlVoltageScaling+0xf0>)
 8002904:	68db      	ldr	r3, [r3, #12]
 8002906:	4a32      	ldr	r2, [pc, #200]	; (80029d0 <HAL_PWREx_ControlVoltageScaling+0xf0>)
 8002908:	f443 2380 	orr.w	r3, r3, #262144	; 0x40000
 800290c:	60d3      	str	r3, [r2, #12]
    }

    return HAL_OK;
 800290e:	2300      	movs	r3, #0
 8002910:	e057      	b.n	80029c2 <HAL_PWREx_ControlVoltageScaling+0xe2>
  /* Check voltage scaling level */
  /*
   *  The Embedded power distribution (EPOD) must be enabled before switching to
   *  voltage scale 1 / 2 from voltage scale lower.
   */
  if (VoltageScaling > PWR_REGULATOR_VOLTAGE_SCALE3)
 8002912:	687b      	ldr	r3, [r7, #4]
 8002914:	f5b3 3f80 	cmp.w	r3, #65536	; 0x10000
 8002918:	d90a      	bls.n	8002930 <HAL_PWREx_ControlVoltageScaling+0x50>
  {
    MODIFY_REG(PWR->VOSR, (PWR_VOSR_VOS | PWR_VOSR_BOOSTEN), (VoltageScaling | PWR_VOSR_BOOSTEN));
 800291a:	4b2d      	ldr	r3, [pc, #180]	; (80029d0 <HAL_PWREx_ControlVoltageScaling+0xf0>)
 800291c:	68db      	ldr	r3, [r3, #12]
 800291e:	f423 22e0 	bic.w	r2, r3, #458752	; 0x70000
 8002922:	687b      	ldr	r3, [r7, #4]
 8002924:	4313      	orrs	r3, r2
 8002926:	4a2a      	ldr	r2, [pc, #168]	; (80029d0 <HAL_PWREx_ControlVoltageScaling+0xf0>)
 8002928:	f443 2380 	orr.w	r3, r3, #262144	; 0x40000
 800292c:	60d3      	str	r3, [r2, #12]
 800292e:	e007      	b.n	8002940 <HAL_PWREx_ControlVoltageScaling+0x60>
  }
  else
  {
    MODIFY_REG(PWR->VOSR, (PWR_VOSR_VOS | PWR_VOSR_BOOSTEN), VoltageScaling);
 8002930:	4b27      	ldr	r3, [pc, #156]	; (80029d0 <HAL_PWREx_ControlVoltageScaling+0xf0>)
 8002932:	68db      	ldr	r3, [r3, #12]
 8002934:	f423 22e0 	bic.w	r2, r3, #458752	; 0x70000
 8002938:	4925      	ldr	r1, [pc, #148]	; (80029d0 <HAL_PWREx_ControlVoltageScaling+0xf0>)
 800293a:	687b      	ldr	r3, [r7, #4]
 800293c:	4313      	orrs	r3, r2
 800293e:	60cb      	str	r3, [r1, #12]
  }

  /* Wait until VOSRDY is raised */
  timeout = ((PWR_FLAG_SETTING_DELAY * (SystemCoreClock / 1000U)) / 1000U) + 1U;
 8002940:	4b24      	ldr	r3, [pc, #144]	; (80029d4 <HAL_PWREx_ControlVoltageScaling+0xf4>)
 8002942:	681b      	ldr	r3, [r3, #0]
 8002944:	4a24      	ldr	r2, [pc, #144]	; (80029d8 <HAL_PWREx_ControlVoltageScaling+0xf8>)
 8002946:	fba2 2303 	umull	r2, r3, r2, r3
 800294a:	099b      	lsrs	r3, r3, #6
 800294c:	2232      	movs	r2, #50	; 0x32
 800294e:	fb02 f303 	mul.w	r3, r2, r3
 8002952:	4a21      	ldr	r2, [pc, #132]	; (80029d8 <HAL_PWREx_ControlVoltageScaling+0xf8>)
 8002954:	fba2 2303 	umull	r2, r3, r2, r3
 8002958:	099b      	lsrs	r3, r3, #6
 800295a:	3301      	adds	r3, #1
 800295c:	60fb      	str	r3, [r7, #12]
  while (HAL_IS_BIT_CLR(PWR->VOSR, PWR_VOSR_VOSRDY) && (timeout != 0U))
 800295e:	e002      	b.n	8002966 <HAL_PWREx_ControlVoltageScaling+0x86>
  {
    timeout--;
 8002960:	68fb      	ldr	r3, [r7, #12]
 8002962:	3b01      	subs	r3, #1
 8002964:	60fb      	str	r3, [r7, #12]
  while (HAL_IS_BIT_CLR(PWR->VOSR, PWR_VOSR_VOSRDY) && (timeout != 0U))
 8002966:	4b1a      	ldr	r3, [pc, #104]	; (80029d0 <HAL_PWREx_ControlVoltageScaling+0xf0>)
 8002968:	68db      	ldr	r3, [r3, #12]
 800296a:	f403 4300 	and.w	r3, r3, #32768	; 0x8000
 800296e:	2b00      	cmp	r3, #0
 8002970:	d102      	bne.n	8002978 <HAL_PWREx_ControlVoltageScaling+0x98>
 8002972:	68fb      	ldr	r3, [r7, #12]
 8002974:	2b00      	cmp	r3, #0
 8002976:	d1f3      	bne.n	8002960 <HAL_PWREx_ControlVoltageScaling+0x80>
  }

  /* Check time out */
  if (timeout != 0U)
 8002978:	68fb      	ldr	r3, [r7, #12]
 800297a:	2b00      	cmp	r3, #0
 800297c:	d01b      	beq.n	80029b6 <HAL_PWREx_ControlVoltageScaling+0xd6>
  {
    /* Wait until ACTVOSRDY is raised */
    timeout = ((PWR_FLAG_SETTING_DELAY * (SystemCoreClock / 1000U)) / 1000U) + 1U;
 800297e:	4b15      	ldr	r3, [pc, #84]	; (80029d4 <HAL_PWREx_ControlVoltageScaling+0xf4>)
 8002980:	681b      	ldr	r3, [r3, #0]
 8002982:	4a15      	ldr	r2, [pc, #84]	; (80029d8 <HAL_PWREx_ControlVoltageScaling+0xf8>)
 8002984:	fba2 2303 	umull	r2, r3, r2, r3
 8002988:	099b      	lsrs	r3, r3, #6
 800298a:	2232      	movs	r2, #50	; 0x32
 800298c:	fb02 f303 	mul.w	r3, r2, r3
 8002990:	4a11      	ldr	r2, [pc, #68]	; (80029d8 <HAL_PWREx_ControlVoltageScaling+0xf8>)
 8002992:	fba2 2303 	umull	r2, r3, r2, r3
 8002996:	099b      	lsrs	r3, r3, #6
 8002998:	3301      	adds	r3, #1
 800299a:	60fb      	str	r3, [r7, #12]
    while ((HAL_IS_BIT_CLR(PWR->SVMSR, PWR_SVMSR_ACTVOSRDY)) && (timeout != 0U))
 800299c:	e002      	b.n	80029a4 <HAL_PWREx_ControlVoltageScaling+0xc4>
    {
      timeout--;
 800299e:	68fb      	ldr	r3, [r7, #12]
 80029a0:	3b01      	subs	r3, #1
 80029a2:	60fb      	str	r3, [r7, #12]
    while ((HAL_IS_BIT_CLR(PWR->SVMSR, PWR_SVMSR_ACTVOSRDY)) && (timeout != 0U))
 80029a4:	4b0a      	ldr	r3, [pc, #40]	; (80029d0 <HAL_PWREx_ControlVoltageScaling+0xf0>)
 80029a6:	6bdb      	ldr	r3, [r3, #60]	; 0x3c
 80029a8:	f403 4300 	and.w	r3, r3, #32768	; 0x8000
 80029ac:	2b00      	cmp	r3, #0
 80029ae:	d102      	bne.n	80029b6 <HAL_PWREx_ControlVoltageScaling+0xd6>
 80029b0:	68fb      	ldr	r3, [r7, #12]
 80029b2:	2b00      	cmp	r3, #0
 80029b4:	d1f3      	bne.n	800299e <HAL_PWREx_ControlVoltageScaling+0xbe>
    }
  }

  /* Check time out */
  if (timeout == 0U)
 80029b6:	68fb      	ldr	r3, [r7, #12]
 80029b8:	2b00      	cmp	r3, #0
 80029ba:	d101      	bne.n	80029c0 <HAL_PWREx_ControlVoltageScaling+0xe0>
  {
    return HAL_TIMEOUT;
 80029bc:	2303      	movs	r3, #3
 80029be:	e000      	b.n	80029c2 <HAL_PWREx_ControlVoltageScaling+0xe2>
  }

  return HAL_OK;
 80029c0:	2300      	movs	r3, #0
}
 80029c2:	4618      	mov	r0, r3
 80029c4:	3714      	adds	r7, #20
 80029c6:	46bd      	mov	sp, r7
 80029c8:	f85d 7b04 	ldr.w	r7, [sp], #4
 80029cc:	4770      	bx	lr
 80029ce:	bf00      	nop
 80029d0:	46020800 	.word	0x46020800
 80029d4:	20000108 	.word	0x20000108
 80029d8:	10624dd3 	.word	0x10624dd3

080029dc <HAL_PWREx_GetVoltageRange>:
/**
  * @brief  Return Voltage Scaling Range.
  * @retval Applied voltage scaling value.
  */
uint32_t HAL_PWREx_GetVoltageRange(void)
{
 80029dc:	b480      	push	{r7}
 80029de:	af00      	add	r7, sp, #0
  return (PWR->SVMSR & PWR_SVMSR_ACTVOS);
 80029e0:	4b04      	ldr	r3, [pc, #16]	; (80029f4 <HAL_PWREx_GetVoltageRange+0x18>)
 80029e2:	6bdb      	ldr	r3, [r3, #60]	; 0x3c
 80029e4:	f403 3340 	and.w	r3, r3, #196608	; 0x30000
}
 80029e8:	4618      	mov	r0, r3
 80029ea:	46bd      	mov	sp, r7
 80029ec:	f85d 7b04 	ldr.w	r7, [sp], #4
 80029f0:	4770      	bx	lr
 80029f2:	bf00      	nop
 80029f4:	46020800 	.word	0x46020800

080029f8 <HAL_PWREx_ConfigSupply>:
  *                        @arg PWR_LDO_SUPPLY  : The LDO regulator supplies the Vcore Power Domains.
  *                        @arg PWR_SMPS_SUPPLY : The SMPS regulator supplies the Vcore Power Domains.
  * @retval HAL Status.
  */
HAL_StatusTypeDef HAL_PWREx_ConfigSupply(uint32_t SupplySource)
{
 80029f8:	b480      	push	{r7}
 80029fa:	b085      	sub	sp, #20
 80029fc:	af00      	add	r7, sp, #0
 80029fe:	6078      	str	r0, [r7, #4]

  /* Check the parameter */
  assert_param(IS_PWR_SUPPLY(SupplySource));

  /* Set maximum time out */
  timeout = ((PWR_FLAG_SETTING_DELAY * (SystemCoreClock / 1000U)) / 1000U) + 1U;
 8002a00:	4b22      	ldr	r3, [pc, #136]	; (8002a8c <HAL_PWREx_ConfigSupply+0x94>)
 8002a02:	681b      	ldr	r3, [r3, #0]
 8002a04:	4a22      	ldr	r2, [pc, #136]	; (8002a90 <HAL_PWREx_ConfigSupply+0x98>)
 8002a06:	fba2 2303 	umull	r2, r3, r2, r3
 8002a0a:	099b      	lsrs	r3, r3, #6
 8002a0c:	2232      	movs	r2, #50	; 0x32
 8002a0e:	fb02 f303 	mul.w	r3, r2, r3
 8002a12:	4a1f      	ldr	r2, [pc, #124]	; (8002a90 <HAL_PWREx_ConfigSupply+0x98>)
 8002a14:	fba2 2303 	umull	r2, r3, r2, r3
 8002a18:	099b      	lsrs	r3, r3, #6
 8002a1a:	3301      	adds	r3, #1
 8002a1c:	60fb      	str	r3, [r7, #12]

  /* Configure the LDO as system regulator supply */
  if (SupplySource == PWR_LDO_SUPPLY)
 8002a1e:	687b      	ldr	r3, [r7, #4]
 8002a20:	2b00      	cmp	r3, #0
 8002a22:	d113      	bne.n	8002a4c <HAL_PWREx_ConfigSupply+0x54>
  {
    /* Set the power supply configuration */
    CLEAR_BIT(PWR->CR3, PWR_CR3_REGSEL);
 8002a24:	4b1b      	ldr	r3, [pc, #108]	; (8002a94 <HAL_PWREx_ConfigSupply+0x9c>)
 8002a26:	689b      	ldr	r3, [r3, #8]
 8002a28:	4a1a      	ldr	r2, [pc, #104]	; (8002a94 <HAL_PWREx_ConfigSupply+0x9c>)
 8002a2a:	f023 0302 	bic.w	r3, r3, #2
 8002a2e:	6093      	str	r3, [r2, #8]

    /* Wait until system switch on new regulator */
    while (HAL_IS_BIT_SET(PWR->SVMSR, PWR_SVMSR_REGS) && (timeout != 0U))
 8002a30:	e002      	b.n	8002a38 <HAL_PWREx_ConfigSupply+0x40>
    {
      timeout--;
 8002a32:	68fb      	ldr	r3, [r7, #12]
 8002a34:	3b01      	subs	r3, #1
 8002a36:	60fb      	str	r3, [r7, #12]
    while (HAL_IS_BIT_SET(PWR->SVMSR, PWR_SVMSR_REGS) && (timeout != 0U))
 8002a38:	4b16      	ldr	r3, [pc, #88]	; (8002a94 <HAL_PWREx_ConfigSupply+0x9c>)
 8002a3a:	6bdb      	ldr	r3, [r3, #60]	; 0x3c
 8002a3c:	f003 0302 	and.w	r3, r3, #2
 8002a40:	2b02      	cmp	r3, #2
 8002a42:	d116      	bne.n	8002a72 <HAL_PWREx_ConfigSupply+0x7a>
 8002a44:	68fb      	ldr	r3, [r7, #12]
 8002a46:	2b00      	cmp	r3, #0
 8002a48:	d1f3      	bne.n	8002a32 <HAL_PWREx_ConfigSupply+0x3a>
 8002a4a:	e012      	b.n	8002a72 <HAL_PWREx_ConfigSupply+0x7a>
  }
  /* Configure the SMPS as system regulator supply */
  else
  {
    /* Set the power supply configuration */
    SET_BIT(PWR->CR3, PWR_CR3_REGSEL);
 8002a4c:	4b11      	ldr	r3, [pc, #68]	; (8002a94 <HAL_PWREx_ConfigSupply+0x9c>)
 8002a4e:	689b      	ldr	r3, [r3, #8]
 8002a50:	4a10      	ldr	r2, [pc, #64]	; (8002a94 <HAL_PWREx_ConfigSupply+0x9c>)
 8002a52:	f043 0302 	orr.w	r3, r3, #2
 8002a56:	6093      	str	r3, [r2, #8]

    /* Wait until system switch on new regulator */
    while (HAL_IS_BIT_CLR(PWR->SVMSR, PWR_SVMSR_REGS) && (timeout != 0U))
 8002a58:	e002      	b.n	8002a60 <HAL_PWREx_ConfigSupply+0x68>
    {
      timeout--;
 8002a5a:	68fb      	ldr	r3, [r7, #12]
 8002a5c:	3b01      	subs	r3, #1
 8002a5e:	60fb      	str	r3, [r7, #12]
    while (HAL_IS_BIT_CLR(PWR->SVMSR, PWR_SVMSR_REGS) && (timeout != 0U))
 8002a60:	4b0c      	ldr	r3, [pc, #48]	; (8002a94 <HAL_PWREx_ConfigSupply+0x9c>)
 8002a62:	6bdb      	ldr	r3, [r3, #60]	; 0x3c
 8002a64:	f003 0302 	and.w	r3, r3, #2
 8002a68:	2b00      	cmp	r3, #0
 8002a6a:	d102      	bne.n	8002a72 <HAL_PWREx_ConfigSupply+0x7a>
 8002a6c:	68fb      	ldr	r3, [r7, #12]
 8002a6e:	2b00      	cmp	r3, #0
 8002a70:	d1f3      	bne.n	8002a5a <HAL_PWREx_ConfigSupply+0x62>
    }
  }

  /* Check time out */
  if (timeout == 0U)
 8002a72:	68fb      	ldr	r3, [r7, #12]
 8002a74:	2b00      	cmp	r3, #0
 8002a76:	d101      	bne.n	8002a7c <HAL_PWREx_ConfigSupply+0x84>
  {
    return HAL_TIMEOUT;
 8002a78:	2303      	movs	r3, #3
 8002a7a:	e000      	b.n	8002a7e <HAL_PWREx_ConfigSupply+0x86>
  }

  return HAL_OK;
 8002a7c:	2300      	movs	r3, #0
}
 8002a7e:	4618      	mov	r0, r3
 8002a80:	3714      	adds	r7, #20
 8002a82:	46bd      	mov	sp, r7
 8002a84:	f85d 7b04 	ldr.w	r7, [sp], #4
 8002a88:	4770      	bx	lr
 8002a8a:	bf00      	nop
 8002a8c:	20000108 	.word	0x20000108
 8002a90:	10624dd3 	.word	0x10624dd3
 8002a94:	46020800 	.word	0x46020800

08002a98 <HAL_PWREx_DisableUCPDDeadBattery>:
  *         pull-down or to handover control to the UCPD (the UCPD must be
  *         initialized before doing the disable).
  * @retval None.
  */
void HAL_PWREx_DisableUCPDDeadBattery(void)
{
 8002a98:	b480      	push	{r7}
 8002a9a:	af00      	add	r7, sp, #0
  SET_BIT(PWR->UCPDR, PWR_UCPDR_UCPD_DBDIS);
 8002a9c:	4b05      	ldr	r3, [pc, #20]	; (8002ab4 <HAL_PWREx_DisableUCPDDeadBattery+0x1c>)
 8002a9e:	6adb      	ldr	r3, [r3, #44]	; 0x2c
 8002aa0:	4a04      	ldr	r2, [pc, #16]	; (8002ab4 <HAL_PWREx_DisableUCPDDeadBattery+0x1c>)
 8002aa2:	f043 0301 	orr.w	r3, r3, #1
 8002aa6:	62d3      	str	r3, [r2, #44]	; 0x2c
}
 8002aa8:	bf00      	nop
 8002aaa:	46bd      	mov	sp, r7
 8002aac:	f85d 7b04 	ldr.w	r7, [sp], #4
 8002ab0:	4770      	bx	lr
 8002ab2:	bf00      	nop
 8002ab4:	46020800 	.word	0x46020800

08002ab8 <HAL_RCC_OscConfig>:
  *         supported by this function. User should request a transition to HSE Off
  *         first and then HSE On or HSE Bypass.
  * @retval HAL status
  */
HAL_StatusTypeDef HAL_RCC_OscConfig(const RCC_OscInitTypeDef  *pRCC_OscInitStruct)
{
 8002ab8:	b580      	push	{r7, lr}
 8002aba:	b08e      	sub	sp, #56	; 0x38
 8002abc:	af00      	add	r7, sp, #0
 8002abe:	6078      	str	r0, [r7, #4]
  uint32_t tickstart;
  HAL_StatusTypeDef status;
  uint32_t sysclk_source;
  uint32_t pll_config;
  FlagStatus pwrboosten = RESET;
 8002ac0:	2300      	movs	r3, #0
 8002ac2:	f887 3037 	strb.w	r3, [r7, #55]	; 0x37
  uint32_t temp1_pllckcfg;
  uint32_t temp2_pllckcfg;

  /* Check Null pointer */
  if (pRCC_OscInitStruct == NULL)
 8002ac6:	687b      	ldr	r3, [r7, #4]
 8002ac8:	2b00      	cmp	r3, #0
 8002aca:	d102      	bne.n	8002ad2 <HAL_RCC_OscConfig+0x1a>
  {
    return HAL_ERROR;
 8002acc:	2301      	movs	r3, #1
 8002ace:	f000 bec8 	b.w	8003862 <HAL_RCC_OscConfig+0xdaa>
  }

  /* Check the parameters */
  assert_param(IS_RCC_OSCILLATORTYPE(pRCC_OscInitStruct->OscillatorType));

  sysclk_source = __HAL_RCC_GET_SYSCLK_SOURCE();
 8002ad2:	4b99      	ldr	r3, [pc, #612]	; (8002d38 <HAL_RCC_OscConfig+0x280>)
 8002ad4:	69db      	ldr	r3, [r3, #28]
 8002ad6:	f003 030c 	and.w	r3, r3, #12
 8002ada:	633b      	str	r3, [r7, #48]	; 0x30
  pll_config = __HAL_RCC_GET_PLL_OSCSOURCE();
 8002adc:	4b96      	ldr	r3, [pc, #600]	; (8002d38 <HAL_RCC_OscConfig+0x280>)
 8002ade:	6a9b      	ldr	r3, [r3, #40]	; 0x28
 8002ae0:	f003 0303 	and.w	r3, r3, #3
 8002ae4:	62fb      	str	r3, [r7, #44]	; 0x2c

  /*----------------------------- MSI Configuration --------------------------*/
  if (((pRCC_OscInitStruct->OscillatorType) & RCC_OSCILLATORTYPE_MSI) == RCC_OSCILLATORTYPE_MSI)
 8002ae6:	687b      	ldr	r3, [r7, #4]
 8002ae8:	681b      	ldr	r3, [r3, #0]
 8002aea:	f003 0310 	and.w	r3, r3, #16
 8002aee:	2b00      	cmp	r3, #0
 8002af0:	f000 816c 	beq.w	8002dcc <HAL_RCC_OscConfig+0x314>
    assert_param(IS_RCC_MSICALIBRATION_VALUE(pRCC_OscInitStruct->MSICalibrationValue));
    assert_param(IS_RCC_MSI_CLOCK_RANGE(pRCC_OscInitStruct->MSIClockRange));

    /*Check if MSI is used as system clock or as PLL source when PLL is selected as system clock*/

    if ((sysclk_source == RCC_SYSCLKSOURCE_STATUS_MSI) ||
 8002af4:	6b3b      	ldr	r3, [r7, #48]	; 0x30
 8002af6:	2b00      	cmp	r3, #0
 8002af8:	d007      	beq.n	8002b0a <HAL_RCC_OscConfig+0x52>
 8002afa:	6b3b      	ldr	r3, [r7, #48]	; 0x30
 8002afc:	2b0c      	cmp	r3, #12
 8002afe:	f040 80de 	bne.w	8002cbe <HAL_RCC_OscConfig+0x206>
        ((sysclk_source == RCC_SYSCLKSOURCE_STATUS_PLLCLK) && (pll_config == RCC_PLLSOURCE_MSI)))
 8002b02:	6afb      	ldr	r3, [r7, #44]	; 0x2c
 8002b04:	2b01      	cmp	r3, #1
 8002b06:	f040 80da 	bne.w	8002cbe <HAL_RCC_OscConfig+0x206>
    {
      if (pRCC_OscInitStruct->MSIState == RCC_MSI_OFF)
 8002b0a:	687b      	ldr	r3, [r7, #4]
 8002b0c:	69db      	ldr	r3, [r3, #28]
 8002b0e:	2b00      	cmp	r3, #0
 8002b10:	d102      	bne.n	8002b18 <HAL_RCC_OscConfig+0x60>
      {
        return HAL_ERROR;
 8002b12:	2301      	movs	r3, #1
 8002b14:	f000 bea5 	b.w	8003862 <HAL_RCC_OscConfig+0xdaa>
      else
      {
        /* To correctly read data from FLASH memory, the number of wait states (LATENCY)
           must be correctly programmed according to the frequency of the CPU clock
           (HCLK) and the supply voltage of the device */
        if (pRCC_OscInitStruct->MSIClockRange > __HAL_RCC_GET_MSI_RANGE())
 8002b18:	687b      	ldr	r3, [r7, #4]
 8002b1a:	6a5a      	ldr	r2, [r3, #36]	; 0x24
 8002b1c:	4b86      	ldr	r3, [pc, #536]	; (8002d38 <HAL_RCC_OscConfig+0x280>)
 8002b1e:	689b      	ldr	r3, [r3, #8]
 8002b20:	f403 0300 	and.w	r3, r3, #8388608	; 0x800000
 8002b24:	2b00      	cmp	r3, #0
 8002b26:	d004      	beq.n	8002b32 <HAL_RCC_OscConfig+0x7a>
 8002b28:	4b83      	ldr	r3, [pc, #524]	; (8002d38 <HAL_RCC_OscConfig+0x280>)
 8002b2a:	689b      	ldr	r3, [r3, #8]
 8002b2c:	f003 4370 	and.w	r3, r3, #4026531840	; 0xf0000000
 8002b30:	e005      	b.n	8002b3e <HAL_RCC_OscConfig+0x86>
 8002b32:	4b81      	ldr	r3, [pc, #516]	; (8002d38 <HAL_RCC_OscConfig+0x280>)
 8002b34:	f8d3 30f4 	ldr.w	r3, [r3, #244]	; 0xf4
 8002b38:	041b      	lsls	r3, r3, #16
 8002b3a:	f003 4370 	and.w	r3, r3, #4026531840	; 0xf0000000
 8002b3e:	4293      	cmp	r3, r2
 8002b40:	d255      	bcs.n	8002bee <HAL_RCC_OscConfig+0x136>
        {
          /* Decrease number of wait states update if necessary */
          /* Only possible when MSI is the System clock source  */
          if (sysclk_source == RCC_SYSCLKSOURCE_STATUS_MSI)
 8002b42:	6b3b      	ldr	r3, [r7, #48]	; 0x30
 8002b44:	2b00      	cmp	r3, #0
 8002b46:	d10a      	bne.n	8002b5e <HAL_RCC_OscConfig+0xa6>
          {
            if (RCC_SetFlashLatencyFromMSIRange(pRCC_OscInitStruct->MSIClockRange) != HAL_OK)
 8002b48:	687b      	ldr	r3, [r7, #4]
 8002b4a:	6a5b      	ldr	r3, [r3, #36]	; 0x24
 8002b4c:	4618      	mov	r0, r3
 8002b4e:	f001 f99d 	bl	8003e8c <RCC_SetFlashLatencyFromMSIRange>
 8002b52:	4603      	mov	r3, r0
 8002b54:	2b00      	cmp	r3, #0
 8002b56:	d002      	beq.n	8002b5e <HAL_RCC_OscConfig+0xa6>
            {
              return HAL_ERROR;
 8002b58:	2301      	movs	r3, #1
 8002b5a:	f000 be82 	b.w	8003862 <HAL_RCC_OscConfig+0xdaa>
            }
          }

          /* Selects the Multiple Speed oscillator (MSI) clock range */
          __HAL_RCC_MSI_RANGE_CONFIG(pRCC_OscInitStruct->MSIClockRange);
 8002b5e:	4b76      	ldr	r3, [pc, #472]	; (8002d38 <HAL_RCC_OscConfig+0x280>)
 8002b60:	689b      	ldr	r3, [r3, #8]
 8002b62:	4a75      	ldr	r2, [pc, #468]	; (8002d38 <HAL_RCC_OscConfig+0x280>)
 8002b64:	f443 0300 	orr.w	r3, r3, #8388608	; 0x800000
 8002b68:	6093      	str	r3, [r2, #8]
 8002b6a:	4b73      	ldr	r3, [pc, #460]	; (8002d38 <HAL_RCC_OscConfig+0x280>)
 8002b6c:	689b      	ldr	r3, [r3, #8]
 8002b6e:	f023 4270 	bic.w	r2, r3, #4026531840	; 0xf0000000
 8002b72:	687b      	ldr	r3, [r7, #4]
 8002b74:	6a5b      	ldr	r3, [r3, #36]	; 0x24
 8002b76:	4970      	ldr	r1, [pc, #448]	; (8002d38 <HAL_RCC_OscConfig+0x280>)
 8002b78:	4313      	orrs	r3, r2
 8002b7a:	608b      	str	r3, [r1, #8]
          /* Adjusts the Multiple Speed oscillator (MSI) calibration value */
          __HAL_RCC_MSI_CALIBRATIONVALUE_ADJUST((pRCC_OscInitStruct->MSICalibrationValue), \
 8002b7c:	687b      	ldr	r3, [r7, #4]
 8002b7e:	6a5b      	ldr	r3, [r3, #36]	; 0x24
 8002b80:	f1b3 4f40 	cmp.w	r3, #3221225472	; 0xc0000000
 8002b84:	d309      	bcc.n	8002b9a <HAL_RCC_OscConfig+0xe2>
 8002b86:	4b6c      	ldr	r3, [pc, #432]	; (8002d38 <HAL_RCC_OscConfig+0x280>)
 8002b88:	68db      	ldr	r3, [r3, #12]
 8002b8a:	f023 021f 	bic.w	r2, r3, #31
 8002b8e:	687b      	ldr	r3, [r7, #4]
 8002b90:	6a1b      	ldr	r3, [r3, #32]
 8002b92:	4969      	ldr	r1, [pc, #420]	; (8002d38 <HAL_RCC_OscConfig+0x280>)
 8002b94:	4313      	orrs	r3, r2
 8002b96:	60cb      	str	r3, [r1, #12]
 8002b98:	e07e      	b.n	8002c98 <HAL_RCC_OscConfig+0x1e0>
 8002b9a:	687b      	ldr	r3, [r7, #4]
 8002b9c:	6a5b      	ldr	r3, [r3, #36]	; 0x24
 8002b9e:	2b00      	cmp	r3, #0
 8002ba0:	da0a      	bge.n	8002bb8 <HAL_RCC_OscConfig+0x100>
 8002ba2:	4b65      	ldr	r3, [pc, #404]	; (8002d38 <HAL_RCC_OscConfig+0x280>)
 8002ba4:	68db      	ldr	r3, [r3, #12]
 8002ba6:	f423 7278 	bic.w	r2, r3, #992	; 0x3e0
 8002baa:	687b      	ldr	r3, [r7, #4]
 8002bac:	6a1b      	ldr	r3, [r3, #32]
 8002bae:	015b      	lsls	r3, r3, #5
 8002bb0:	4961      	ldr	r1, [pc, #388]	; (8002d38 <HAL_RCC_OscConfig+0x280>)
 8002bb2:	4313      	orrs	r3, r2
 8002bb4:	60cb      	str	r3, [r1, #12]
 8002bb6:	e06f      	b.n	8002c98 <HAL_RCC_OscConfig+0x1e0>
 8002bb8:	687b      	ldr	r3, [r7, #4]
 8002bba:	6a5b      	ldr	r3, [r3, #36]	; 0x24
 8002bbc:	f1b3 4f80 	cmp.w	r3, #1073741824	; 0x40000000
 8002bc0:	d30a      	bcc.n	8002bd8 <HAL_RCC_OscConfig+0x120>
 8002bc2:	4b5d      	ldr	r3, [pc, #372]	; (8002d38 <HAL_RCC_OscConfig+0x280>)
 8002bc4:	68db      	ldr	r3, [r3, #12]
 8002bc6:	f423 42f8 	bic.w	r2, r3, #31744	; 0x7c00
 8002bca:	687b      	ldr	r3, [r7, #4]
 8002bcc:	6a1b      	ldr	r3, [r3, #32]
 8002bce:	029b      	lsls	r3, r3, #10
 8002bd0:	4959      	ldr	r1, [pc, #356]	; (8002d38 <HAL_RCC_OscConfig+0x280>)
 8002bd2:	4313      	orrs	r3, r2
 8002bd4:	60cb      	str	r3, [r1, #12]
 8002bd6:	e05f      	b.n	8002c98 <HAL_RCC_OscConfig+0x1e0>
 8002bd8:	4b57      	ldr	r3, [pc, #348]	; (8002d38 <HAL_RCC_OscConfig+0x280>)
 8002bda:	68db      	ldr	r3, [r3, #12]
 8002bdc:	f423 2278 	bic.w	r2, r3, #1015808	; 0xf8000
 8002be0:	687b      	ldr	r3, [r7, #4]
 8002be2:	6a1b      	ldr	r3, [r3, #32]
 8002be4:	03db      	lsls	r3, r3, #15
 8002be6:	4954      	ldr	r1, [pc, #336]	; (8002d38 <HAL_RCC_OscConfig+0x280>)
 8002be8:	4313      	orrs	r3, r2
 8002bea:	60cb      	str	r3, [r1, #12]
 8002bec:	e054      	b.n	8002c98 <HAL_RCC_OscConfig+0x1e0>
        }
        else
        {
          /* Else, keep current flash latency while decreasing applies */
          /* Selects the Multiple Speed oscillator (MSI) clock range */
          __HAL_RCC_MSI_RANGE_CONFIG(pRCC_OscInitStruct->MSIClockRange);
 8002bee:	4b52      	ldr	r3, [pc, #328]	; (8002d38 <HAL_RCC_OscConfig+0x280>)
 8002bf0:	689b      	ldr	r3, [r3, #8]
 8002bf2:	4a51      	ldr	r2, [pc, #324]	; (8002d38 <HAL_RCC_OscConfig+0x280>)
 8002bf4:	f443 0300 	orr.w	r3, r3, #8388608	; 0x800000
 8002bf8:	6093      	str	r3, [r2, #8]
 8002bfa:	4b4f      	ldr	r3, [pc, #316]	; (8002d38 <HAL_RCC_OscConfig+0x280>)
 8002bfc:	689b      	ldr	r3, [r3, #8]
 8002bfe:	f023 4270 	bic.w	r2, r3, #4026531840	; 0xf0000000
 8002c02:	687b      	ldr	r3, [r7, #4]
 8002c04:	6a5b      	ldr	r3, [r3, #36]	; 0x24
 8002c06:	494c      	ldr	r1, [pc, #304]	; (8002d38 <HAL_RCC_OscConfig+0x280>)
 8002c08:	4313      	orrs	r3, r2
 8002c0a:	608b      	str	r3, [r1, #8]
          /* Adjusts the Multiple Speed oscillator (MSI) calibration value */
          __HAL_RCC_MSI_CALIBRATIONVALUE_ADJUST((pRCC_OscInitStruct->MSICalibrationValue), \
 8002c0c:	687b      	ldr	r3, [r7, #4]
 8002c0e:	6a5b      	ldr	r3, [r3, #36]	; 0x24
 8002c10:	f1b3 4f40 	cmp.w	r3, #3221225472	; 0xc0000000
 8002c14:	d309      	bcc.n	8002c2a <HAL_RCC_OscConfig+0x172>
 8002c16:	4b48      	ldr	r3, [pc, #288]	; (8002d38 <HAL_RCC_OscConfig+0x280>)
 8002c18:	68db      	ldr	r3, [r3, #12]
 8002c1a:	f023 021f 	bic.w	r2, r3, #31
 8002c1e:	687b      	ldr	r3, [r7, #4]
 8002c20:	6a1b      	ldr	r3, [r3, #32]
 8002c22:	4945      	ldr	r1, [pc, #276]	; (8002d38 <HAL_RCC_OscConfig+0x280>)
 8002c24:	4313      	orrs	r3, r2
 8002c26:	60cb      	str	r3, [r1, #12]
 8002c28:	e028      	b.n	8002c7c <HAL_RCC_OscConfig+0x1c4>
 8002c2a:	687b      	ldr	r3, [r7, #4]
 8002c2c:	6a5b      	ldr	r3, [r3, #36]	; 0x24
 8002c2e:	2b00      	cmp	r3, #0
 8002c30:	da0a      	bge.n	8002c48 <HAL_RCC_OscConfig+0x190>
 8002c32:	4b41      	ldr	r3, [pc, #260]	; (8002d38 <HAL_RCC_OscConfig+0x280>)
 8002c34:	68db      	ldr	r3, [r3, #12]
 8002c36:	f423 7278 	bic.w	r2, r3, #992	; 0x3e0
 8002c3a:	687b      	ldr	r3, [r7, #4]
 8002c3c:	6a1b      	ldr	r3, [r3, #32]
 8002c3e:	015b      	lsls	r3, r3, #5
 8002c40:	493d      	ldr	r1, [pc, #244]	; (8002d38 <HAL_RCC_OscConfig+0x280>)
 8002c42:	4313      	orrs	r3, r2
 8002c44:	60cb      	str	r3, [r1, #12]
 8002c46:	e019      	b.n	8002c7c <HAL_RCC_OscConfig+0x1c4>
 8002c48:	687b      	ldr	r3, [r7, #4]
 8002c4a:	6a5b      	ldr	r3, [r3, #36]	; 0x24
 8002c4c:	f1b3 4f80 	cmp.w	r3, #1073741824	; 0x40000000
 8002c50:	d30a      	bcc.n	8002c68 <HAL_RCC_OscConfig+0x1b0>
 8002c52:	4b39      	ldr	r3, [pc, #228]	; (8002d38 <HAL_RCC_OscConfig+0x280>)
 8002c54:	68db      	ldr	r3, [r3, #12]
 8002c56:	f423 42f8 	bic.w	r2, r3, #31744	; 0x7c00
 8002c5a:	687b      	ldr	r3, [r7, #4]
 8002c5c:	6a1b      	ldr	r3, [r3, #32]
 8002c5e:	029b      	lsls	r3, r3, #10
 8002c60:	4935      	ldr	r1, [pc, #212]	; (8002d38 <HAL_RCC_OscConfig+0x280>)
 8002c62:	4313      	orrs	r3, r2
 8002c64:	60cb      	str	r3, [r1, #12]
 8002c66:	e009      	b.n	8002c7c <HAL_RCC_OscConfig+0x1c4>
 8002c68:	4b33      	ldr	r3, [pc, #204]	; (8002d38 <HAL_RCC_OscConfig+0x280>)
 8002c6a:	68db      	ldr	r3, [r3, #12]
 8002c6c:	f423 2278 	bic.w	r2, r3, #1015808	; 0xf8000
 8002c70:	687b      	ldr	r3, [r7, #4]
 8002c72:	6a1b      	ldr	r3, [r3, #32]
 8002c74:	03db      	lsls	r3, r3, #15
 8002c76:	4930      	ldr	r1, [pc, #192]	; (8002d38 <HAL_RCC_OscConfig+0x280>)
 8002c78:	4313      	orrs	r3, r2
 8002c7a:	60cb      	str	r3, [r1, #12]
                                                (pRCC_OscInitStruct->MSIClockRange));

          if (sysclk_source == RCC_SYSCLKSOURCE_STATUS_MSI)
 8002c7c:	6b3b      	ldr	r3, [r7, #48]	; 0x30
 8002c7e:	2b00      	cmp	r3, #0
 8002c80:	d10a      	bne.n	8002c98 <HAL_RCC_OscConfig+0x1e0>
          {
            if (RCC_SetFlashLatencyFromMSIRange(pRCC_OscInitStruct->MSIClockRange) != HAL_OK)
 8002c82:	687b      	ldr	r3, [r7, #4]
 8002c84:	6a5b      	ldr	r3, [r3, #36]	; 0x24
 8002c86:	4618      	mov	r0, r3
 8002c88:	f001 f900 	bl	8003e8c <RCC_SetFlashLatencyFromMSIRange>
 8002c8c:	4603      	mov	r3, r0
 8002c8e:	2b00      	cmp	r3, #0
 8002c90:	d002      	beq.n	8002c98 <HAL_RCC_OscConfig+0x1e0>
            {
              return HAL_ERROR;
 8002c92:	2301      	movs	r3, #1
 8002c94:	f000 bde5 	b.w	8003862 <HAL_RCC_OscConfig+0xdaa>
            }
          }
        }

        /* Update the SystemCoreClock global variable */
        (void) HAL_RCC_GetHCLKFreq();
 8002c98:	f001 f8de 	bl	8003e58 <HAL_RCC_GetHCLKFreq>
        /* Configure the source of time base considering new system clocks settings*/
        status = HAL_InitTick(uwTickPrio);
 8002c9c:	4b27      	ldr	r3, [pc, #156]	; (8002d3c <HAL_RCC_OscConfig+0x284>)
 8002c9e:	681b      	ldr	r3, [r3, #0]
 8002ca0:	4618      	mov	r0, r3
 8002ca2:	f7fd fe47 	bl	8000934 <HAL_InitTick>
 8002ca6:	4603      	mov	r3, r0
 8002ca8:	f887 3027 	strb.w	r3, [r7, #39]	; 0x27
        if (status != HAL_OK)
 8002cac:	f897 3027 	ldrb.w	r3, [r7, #39]	; 0x27
 8002cb0:	2b00      	cmp	r3, #0
 8002cb2:	f000 808a 	beq.w	8002dca <HAL_RCC_OscConfig+0x312>
        {
          return status;
 8002cb6:	f897 3027 	ldrb.w	r3, [r7, #39]	; 0x27
 8002cba:	f000 bdd2 	b.w	8003862 <HAL_RCC_OscConfig+0xdaa>
      }
    }
    else
    {
      /* Check the MSI State */
      if (pRCC_OscInitStruct->MSIState != RCC_MSI_OFF)
 8002cbe:	687b      	ldr	r3, [r7, #4]
 8002cc0:	69db      	ldr	r3, [r3, #28]
 8002cc2:	2b00      	cmp	r3, #0
 8002cc4:	d066      	beq.n	8002d94 <HAL_RCC_OscConfig+0x2dc>
      {
        /* Enable the Internal High Speed oscillator (MSI) */
        __HAL_RCC_MSI_ENABLE();
 8002cc6:	4b1c      	ldr	r3, [pc, #112]	; (8002d38 <HAL_RCC_OscConfig+0x280>)
 8002cc8:	681b      	ldr	r3, [r3, #0]
 8002cca:	4a1b      	ldr	r2, [pc, #108]	; (8002d38 <HAL_RCC_OscConfig+0x280>)
 8002ccc:	f043 0301 	orr.w	r3, r3, #1
 8002cd0:	6013      	str	r3, [r2, #0]

        tickstart = HAL_GetTick();
 8002cd2:	f7fd fe79 	bl	80009c8 <HAL_GetTick>
 8002cd6:	62b8      	str	r0, [r7, #40]	; 0x28

        /* Wait till MSI is ready */
        while (READ_BIT(RCC->CR, RCC_CR_MSISRDY) == 0U)
 8002cd8:	e009      	b.n	8002cee <HAL_RCC_OscConfig+0x236>
        {
          if ((HAL_GetTick() - tickstart) > MSI_TIMEOUT_VALUE)
 8002cda:	f7fd fe75 	bl	80009c8 <HAL_GetTick>
 8002cde:	4602      	mov	r2, r0
 8002ce0:	6abb      	ldr	r3, [r7, #40]	; 0x28
 8002ce2:	1ad3      	subs	r3, r2, r3
 8002ce4:	2b02      	cmp	r3, #2
 8002ce6:	d902      	bls.n	8002cee <HAL_RCC_OscConfig+0x236>
          {
            return HAL_TIMEOUT;
 8002ce8:	2303      	movs	r3, #3
 8002cea:	f000 bdba 	b.w	8003862 <HAL_RCC_OscConfig+0xdaa>
        while (READ_BIT(RCC->CR, RCC_CR_MSISRDY) == 0U)
 8002cee:	4b12      	ldr	r3, [pc, #72]	; (8002d38 <HAL_RCC_OscConfig+0x280>)
 8002cf0:	681b      	ldr	r3, [r3, #0]
 8002cf2:	f003 0304 	and.w	r3, r3, #4
 8002cf6:	2b00      	cmp	r3, #0
 8002cf8:	d0ef      	beq.n	8002cda <HAL_RCC_OscConfig+0x222>
          }
        }
        /* Selects the Multiple Speed oscillator (MSI) clock range */
        __HAL_RCC_MSI_RANGE_CONFIG(pRCC_OscInitStruct->MSIClockRange);
 8002cfa:	4b0f      	ldr	r3, [pc, #60]	; (8002d38 <HAL_RCC_OscConfig+0x280>)
 8002cfc:	689b      	ldr	r3, [r3, #8]
 8002cfe:	4a0e      	ldr	r2, [pc, #56]	; (8002d38 <HAL_RCC_OscConfig+0x280>)
 8002d00:	f443 0300 	orr.w	r3, r3, #8388608	; 0x800000
 8002d04:	6093      	str	r3, [r2, #8]
 8002d06:	4b0c      	ldr	r3, [pc, #48]	; (8002d38 <HAL_RCC_OscConfig+0x280>)
 8002d08:	689b      	ldr	r3, [r3, #8]
 8002d0a:	f023 4270 	bic.w	r2, r3, #4026531840	; 0xf0000000
 8002d0e:	687b      	ldr	r3, [r7, #4]
 8002d10:	6a5b      	ldr	r3, [r3, #36]	; 0x24
 8002d12:	4909      	ldr	r1, [pc, #36]	; (8002d38 <HAL_RCC_OscConfig+0x280>)
 8002d14:	4313      	orrs	r3, r2
 8002d16:	608b      	str	r3, [r1, #8]
        /* Adjusts the Multiple Speed oscillator (MSI) calibration value */
        __HAL_RCC_MSI_CALIBRATIONVALUE_ADJUST((pRCC_OscInitStruct->MSICalibrationValue), \
 8002d18:	687b      	ldr	r3, [r7, #4]
 8002d1a:	6a5b      	ldr	r3, [r3, #36]	; 0x24
 8002d1c:	f1b3 4f40 	cmp.w	r3, #3221225472	; 0xc0000000
 8002d20:	d30e      	bcc.n	8002d40 <HAL_RCC_OscConfig+0x288>
 8002d22:	4b05      	ldr	r3, [pc, #20]	; (8002d38 <HAL_RCC_OscConfig+0x280>)
 8002d24:	68db      	ldr	r3, [r3, #12]
 8002d26:	f023 021f 	bic.w	r2, r3, #31
 8002d2a:	687b      	ldr	r3, [r7, #4]
 8002d2c:	6a1b      	ldr	r3, [r3, #32]
 8002d2e:	4902      	ldr	r1, [pc, #8]	; (8002d38 <HAL_RCC_OscConfig+0x280>)
 8002d30:	4313      	orrs	r3, r2
 8002d32:	60cb      	str	r3, [r1, #12]
 8002d34:	e04a      	b.n	8002dcc <HAL_RCC_OscConfig+0x314>
 8002d36:	bf00      	nop
 8002d38:	46020c00 	.word	0x46020c00
 8002d3c:	2000010c 	.word	0x2000010c
 8002d40:	687b      	ldr	r3, [r7, #4]
 8002d42:	6a5b      	ldr	r3, [r3, #36]	; 0x24
 8002d44:	2b00      	cmp	r3, #0
 8002d46:	da0a      	bge.n	8002d5e <HAL_RCC_OscConfig+0x2a6>
 8002d48:	4b98      	ldr	r3, [pc, #608]	; (8002fac <HAL_RCC_OscConfig+0x4f4>)
 8002d4a:	68db      	ldr	r3, [r3, #12]
 8002d4c:	f423 7278 	bic.w	r2, r3, #992	; 0x3e0
 8002d50:	687b      	ldr	r3, [r7, #4]
 8002d52:	6a1b      	ldr	r3, [r3, #32]
 8002d54:	015b      	lsls	r3, r3, #5
 8002d56:	4995      	ldr	r1, [pc, #596]	; (8002fac <HAL_RCC_OscConfig+0x4f4>)
 8002d58:	4313      	orrs	r3, r2
 8002d5a:	60cb      	str	r3, [r1, #12]
 8002d5c:	e036      	b.n	8002dcc <HAL_RCC_OscConfig+0x314>
 8002d5e:	687b      	ldr	r3, [r7, #4]
 8002d60:	6a5b      	ldr	r3, [r3, #36]	; 0x24
 8002d62:	f1b3 4f80 	cmp.w	r3, #1073741824	; 0x40000000
 8002d66:	d30a      	bcc.n	8002d7e <HAL_RCC_OscConfig+0x2c6>
 8002d68:	4b90      	ldr	r3, [pc, #576]	; (8002fac <HAL_RCC_OscConfig+0x4f4>)
 8002d6a:	68db      	ldr	r3, [r3, #12]
 8002d6c:	f423 42f8 	bic.w	r2, r3, #31744	; 0x7c00
 8002d70:	687b      	ldr	r3, [r7, #4]
 8002d72:	6a1b      	ldr	r3, [r3, #32]
 8002d74:	029b      	lsls	r3, r3, #10
 8002d76:	498d      	ldr	r1, [pc, #564]	; (8002fac <HAL_RCC_OscConfig+0x4f4>)
 8002d78:	4313      	orrs	r3, r2
 8002d7a:	60cb      	str	r3, [r1, #12]
 8002d7c:	e026      	b.n	8002dcc <HAL_RCC_OscConfig+0x314>
 8002d7e:	4b8b      	ldr	r3, [pc, #556]	; (8002fac <HAL_RCC_OscConfig+0x4f4>)
 8002d80:	68db      	ldr	r3, [r3, #12]
 8002d82:	f423 2278 	bic.w	r2, r3, #1015808	; 0xf8000
 8002d86:	687b      	ldr	r3, [r7, #4]
 8002d88:	6a1b      	ldr	r3, [r3, #32]
 8002d8a:	03db      	lsls	r3, r3, #15
 8002d8c:	4987      	ldr	r1, [pc, #540]	; (8002fac <HAL_RCC_OscConfig+0x4f4>)
 8002d8e:	4313      	orrs	r3, r2
 8002d90:	60cb      	str	r3, [r1, #12]
 8002d92:	e01b      	b.n	8002dcc <HAL_RCC_OscConfig+0x314>

      }
      else
      {
        /* Disable the Internal High Speed oscillator (MSI) */
        __HAL_RCC_MSI_DISABLE();
 8002d94:	4b85      	ldr	r3, [pc, #532]	; (8002fac <HAL_RCC_OscConfig+0x4f4>)
 8002d96:	681b      	ldr	r3, [r3, #0]
 8002d98:	4a84      	ldr	r2, [pc, #528]	; (8002fac <HAL_RCC_OscConfig+0x4f4>)
 8002d9a:	f023 0301 	bic.w	r3, r3, #1
 8002d9e:	6013      	str	r3, [r2, #0]

        tickstart = HAL_GetTick();
 8002da0:	f7fd fe12 	bl	80009c8 <HAL_GetTick>
 8002da4:	62b8      	str	r0, [r7, #40]	; 0x28

        /* Wait till MSI is ready */
        while (READ_BIT(RCC->CR, RCC_CR_MSISRDY) != 0U)
 8002da6:	e009      	b.n	8002dbc <HAL_RCC_OscConfig+0x304>
        {
          if ((HAL_GetTick() - tickstart) > MSI_TIMEOUT_VALUE)
 8002da8:	f7fd fe0e 	bl	80009c8 <HAL_GetTick>
 8002dac:	4602      	mov	r2, r0
 8002dae:	6abb      	ldr	r3, [r7, #40]	; 0x28
 8002db0:	1ad3      	subs	r3, r2, r3
 8002db2:	2b02      	cmp	r3, #2
 8002db4:	d902      	bls.n	8002dbc <HAL_RCC_OscConfig+0x304>
          {
            return HAL_TIMEOUT;
 8002db6:	2303      	movs	r3, #3
 8002db8:	f000 bd53 	b.w	8003862 <HAL_RCC_OscConfig+0xdaa>
        while (READ_BIT(RCC->CR, RCC_CR_MSISRDY) != 0U)
 8002dbc:	4b7b      	ldr	r3, [pc, #492]	; (8002fac <HAL_RCC_OscConfig+0x4f4>)
 8002dbe:	681b      	ldr	r3, [r3, #0]
 8002dc0:	f003 0304 	and.w	r3, r3, #4
 8002dc4:	2b00      	cmp	r3, #0
 8002dc6:	d1ef      	bne.n	8002da8 <HAL_RCC_OscConfig+0x2f0>
 8002dc8:	e000      	b.n	8002dcc <HAL_RCC_OscConfig+0x314>
      if (pRCC_OscInitStruct->MSIState == RCC_MSI_OFF)
 8002dca:	bf00      	nop
        }
      }
    }
  }
  /*------------------------------- HSE Configuration ------------------------*/
  if (((pRCC_OscInitStruct->OscillatorType) & RCC_OSCILLATORTYPE_HSE) == RCC_OSCILLATORTYPE_HSE)
 8002dcc:	687b      	ldr	r3, [r7, #4]
 8002dce:	681b      	ldr	r3, [r3, #0]
 8002dd0:	f003 0301 	and.w	r3, r3, #1
 8002dd4:	2b00      	cmp	r3, #0
 8002dd6:	f000 808b 	beq.w	8002ef0 <HAL_RCC_OscConfig+0x438>
  {
    /* Check the parameters */
    assert_param(IS_RCC_HSE(pRCC_OscInitStruct->HSEState));

    /* When the HSE is used as system clock or clock source for PLL in these cases it is not allowed to be disabled */
    if ((sysclk_source == RCC_SYSCLKSOURCE_STATUS_HSE) ||
 8002dda:	6b3b      	ldr	r3, [r7, #48]	; 0x30
 8002ddc:	2b08      	cmp	r3, #8
 8002dde:	d005      	beq.n	8002dec <HAL_RCC_OscConfig+0x334>
 8002de0:	6b3b      	ldr	r3, [r7, #48]	; 0x30
 8002de2:	2b0c      	cmp	r3, #12
 8002de4:	d109      	bne.n	8002dfa <HAL_RCC_OscConfig+0x342>
        ((sysclk_source == RCC_SYSCLKSOURCE_STATUS_PLLCLK) && (pll_config == RCC_PLLSOURCE_HSE)))
 8002de6:	6afb      	ldr	r3, [r7, #44]	; 0x2c
 8002de8:	2b03      	cmp	r3, #3
 8002dea:	d106      	bne.n	8002dfa <HAL_RCC_OscConfig+0x342>
    {
      if (pRCC_OscInitStruct->HSEState == RCC_HSE_OFF)
 8002dec:	687b      	ldr	r3, [r7, #4]
 8002dee:	685b      	ldr	r3, [r3, #4]
 8002df0:	2b00      	cmp	r3, #0
 8002df2:	d17d      	bne.n	8002ef0 <HAL_RCC_OscConfig+0x438>
      {
        return HAL_ERROR;
 8002df4:	2301      	movs	r3, #1
 8002df6:	f000 bd34 	b.w	8003862 <HAL_RCC_OscConfig+0xdaa>
      }
    }
    else
    {
      /* Set the new HSE configuration ---------------------------------------*/
      __HAL_RCC_HSE_CONFIG(pRCC_OscInitStruct->HSEState);
 8002dfa:	687b      	ldr	r3, [r7, #4]
 8002dfc:	685b      	ldr	r3, [r3, #4]
 8002dfe:	f5b3 3f80 	cmp.w	r3, #65536	; 0x10000
 8002e02:	d106      	bne.n	8002e12 <HAL_RCC_OscConfig+0x35a>
 8002e04:	4b69      	ldr	r3, [pc, #420]	; (8002fac <HAL_RCC_OscConfig+0x4f4>)
 8002e06:	681b      	ldr	r3, [r3, #0]
 8002e08:	4a68      	ldr	r2, [pc, #416]	; (8002fac <HAL_RCC_OscConfig+0x4f4>)
 8002e0a:	f443 3380 	orr.w	r3, r3, #65536	; 0x10000
 8002e0e:	6013      	str	r3, [r2, #0]
 8002e10:	e041      	b.n	8002e96 <HAL_RCC_OscConfig+0x3de>
 8002e12:	687b      	ldr	r3, [r7, #4]
 8002e14:	685b      	ldr	r3, [r3, #4]
 8002e16:	f5b3 2fa0 	cmp.w	r3, #327680	; 0x50000
 8002e1a:	d112      	bne.n	8002e42 <HAL_RCC_OscConfig+0x38a>
 8002e1c:	4b63      	ldr	r3, [pc, #396]	; (8002fac <HAL_RCC_OscConfig+0x4f4>)
 8002e1e:	681b      	ldr	r3, [r3, #0]
 8002e20:	4a62      	ldr	r2, [pc, #392]	; (8002fac <HAL_RCC_OscConfig+0x4f4>)
 8002e22:	f443 2380 	orr.w	r3, r3, #262144	; 0x40000
 8002e26:	6013      	str	r3, [r2, #0]
 8002e28:	4b60      	ldr	r3, [pc, #384]	; (8002fac <HAL_RCC_OscConfig+0x4f4>)
 8002e2a:	681b      	ldr	r3, [r3, #0]
 8002e2c:	4a5f      	ldr	r2, [pc, #380]	; (8002fac <HAL_RCC_OscConfig+0x4f4>)
 8002e2e:	f423 1380 	bic.w	r3, r3, #1048576	; 0x100000
 8002e32:	6013      	str	r3, [r2, #0]
 8002e34:	4b5d      	ldr	r3, [pc, #372]	; (8002fac <HAL_RCC_OscConfig+0x4f4>)
 8002e36:	681b      	ldr	r3, [r3, #0]
 8002e38:	4a5c      	ldr	r2, [pc, #368]	; (8002fac <HAL_RCC_OscConfig+0x4f4>)
 8002e3a:	f443 3380 	orr.w	r3, r3, #65536	; 0x10000
 8002e3e:	6013      	str	r3, [r2, #0]
 8002e40:	e029      	b.n	8002e96 <HAL_RCC_OscConfig+0x3de>
 8002e42:	687b      	ldr	r3, [r7, #4]
 8002e44:	685b      	ldr	r3, [r3, #4]
 8002e46:	f5b3 1fa8 	cmp.w	r3, #1376256	; 0x150000
 8002e4a:	d112      	bne.n	8002e72 <HAL_RCC_OscConfig+0x3ba>
 8002e4c:	4b57      	ldr	r3, [pc, #348]	; (8002fac <HAL_RCC_OscConfig+0x4f4>)
 8002e4e:	681b      	ldr	r3, [r3, #0]
 8002e50:	4a56      	ldr	r2, [pc, #344]	; (8002fac <HAL_RCC_OscConfig+0x4f4>)
 8002e52:	f443 2380 	orr.w	r3, r3, #262144	; 0x40000
 8002e56:	6013      	str	r3, [r2, #0]
 8002e58:	4b54      	ldr	r3, [pc, #336]	; (8002fac <HAL_RCC_OscConfig+0x4f4>)
 8002e5a:	681b      	ldr	r3, [r3, #0]
 8002e5c:	4a53      	ldr	r2, [pc, #332]	; (8002fac <HAL_RCC_OscConfig+0x4f4>)
 8002e5e:	f443 1380 	orr.w	r3, r3, #1048576	; 0x100000
 8002e62:	6013      	str	r3, [r2, #0]
 8002e64:	4b51      	ldr	r3, [pc, #324]	; (8002fac <HAL_RCC_OscConfig+0x4f4>)
 8002e66:	681b      	ldr	r3, [r3, #0]
 8002e68:	4a50      	ldr	r2, [pc, #320]	; (8002fac <HAL_RCC_OscConfig+0x4f4>)
 8002e6a:	f443 3380 	orr.w	r3, r3, #65536	; 0x10000
 8002e6e:	6013      	str	r3, [r2, #0]
 8002e70:	e011      	b.n	8002e96 <HAL_RCC_OscConfig+0x3de>
 8002e72:	4b4e      	ldr	r3, [pc, #312]	; (8002fac <HAL_RCC_OscConfig+0x4f4>)
 8002e74:	681b      	ldr	r3, [r3, #0]
 8002e76:	4a4d      	ldr	r2, [pc, #308]	; (8002fac <HAL_RCC_OscConfig+0x4f4>)
 8002e78:	f423 3380 	bic.w	r3, r3, #65536	; 0x10000
 8002e7c:	6013      	str	r3, [r2, #0]
 8002e7e:	4b4b      	ldr	r3, [pc, #300]	; (8002fac <HAL_RCC_OscConfig+0x4f4>)
 8002e80:	681b      	ldr	r3, [r3, #0]
 8002e82:	4a4a      	ldr	r2, [pc, #296]	; (8002fac <HAL_RCC_OscConfig+0x4f4>)
 8002e84:	f423 2380 	bic.w	r3, r3, #262144	; 0x40000
 8002e88:	6013      	str	r3, [r2, #0]
 8002e8a:	4b48      	ldr	r3, [pc, #288]	; (8002fac <HAL_RCC_OscConfig+0x4f4>)
 8002e8c:	681b      	ldr	r3, [r3, #0]
 8002e8e:	4a47      	ldr	r2, [pc, #284]	; (8002fac <HAL_RCC_OscConfig+0x4f4>)
 8002e90:	f423 1380 	bic.w	r3, r3, #1048576	; 0x100000
 8002e94:	6013      	str	r3, [r2, #0]

      /* Check the HSE State */
      if (pRCC_OscInitStruct->HSEState != RCC_HSE_OFF)
 8002e96:	687b      	ldr	r3, [r7, #4]
 8002e98:	685b      	ldr	r3, [r3, #4]
 8002e9a:	2b00      	cmp	r3, #0
 8002e9c:	d014      	beq.n	8002ec8 <HAL_RCC_OscConfig+0x410>
      {
        tickstart = HAL_GetTick();
 8002e9e:	f7fd fd93 	bl	80009c8 <HAL_GetTick>
 8002ea2:	62b8      	str	r0, [r7, #40]	; 0x28

        /* Wait till HSE is ready */
        while (READ_BIT(RCC->CR, RCC_CR_HSERDY) == 0U)
 8002ea4:	e009      	b.n	8002eba <HAL_RCC_OscConfig+0x402>
        {
          if ((HAL_GetTick() - tickstart) > HSE_TIMEOUT_VALUE)
 8002ea6:	f7fd fd8f 	bl	80009c8 <HAL_GetTick>
 8002eaa:	4602      	mov	r2, r0
 8002eac:	6abb      	ldr	r3, [r7, #40]	; 0x28
 8002eae:	1ad3      	subs	r3, r2, r3
 8002eb0:	2b64      	cmp	r3, #100	; 0x64
 8002eb2:	d902      	bls.n	8002eba <HAL_RCC_OscConfig+0x402>
          {
            return HAL_TIMEOUT;
 8002eb4:	2303      	movs	r3, #3
 8002eb6:	f000 bcd4 	b.w	8003862 <HAL_RCC_OscConfig+0xdaa>
        while (READ_BIT(RCC->CR, RCC_CR_HSERDY) == 0U)
 8002eba:	4b3c      	ldr	r3, [pc, #240]	; (8002fac <HAL_RCC_OscConfig+0x4f4>)
 8002ebc:	681b      	ldr	r3, [r3, #0]
 8002ebe:	f403 3300 	and.w	r3, r3, #131072	; 0x20000
 8002ec2:	2b00      	cmp	r3, #0
 8002ec4:	d0ef      	beq.n	8002ea6 <HAL_RCC_OscConfig+0x3ee>
 8002ec6:	e013      	b.n	8002ef0 <HAL_RCC_OscConfig+0x438>
          }
        }
      }
      else
      {
        tickstart = HAL_GetTick();
 8002ec8:	f7fd fd7e 	bl	80009c8 <HAL_GetTick>
 8002ecc:	62b8      	str	r0, [r7, #40]	; 0x28

        /* Wait till HSE is disabled */
        while (READ_BIT(RCC->CR, RCC_CR_HSERDY) != 0U)
 8002ece:	e009      	b.n	8002ee4 <HAL_RCC_OscConfig+0x42c>
        {
          if ((HAL_GetTick() - tickstart) > HSE_TIMEOUT_VALUE)
 8002ed0:	f7fd fd7a 	bl	80009c8 <HAL_GetTick>
 8002ed4:	4602      	mov	r2, r0
 8002ed6:	6abb      	ldr	r3, [r7, #40]	; 0x28
 8002ed8:	1ad3      	subs	r3, r2, r3
 8002eda:	2b64      	cmp	r3, #100	; 0x64
 8002edc:	d902      	bls.n	8002ee4 <HAL_RCC_OscConfig+0x42c>
          {
            return HAL_TIMEOUT;
 8002ede:	2303      	movs	r3, #3
 8002ee0:	f000 bcbf 	b.w	8003862 <HAL_RCC_OscConfig+0xdaa>
        while (READ_BIT(RCC->CR, RCC_CR_HSERDY) != 0U)
 8002ee4:	4b31      	ldr	r3, [pc, #196]	; (8002fac <HAL_RCC_OscConfig+0x4f4>)
 8002ee6:	681b      	ldr	r3, [r3, #0]
 8002ee8:	f403 3300 	and.w	r3, r3, #131072	; 0x20000
 8002eec:	2b00      	cmp	r3, #0
 8002eee:	d1ef      	bne.n	8002ed0 <HAL_RCC_OscConfig+0x418>
        }
      }
    }
  }
  /*----------------------------- HSI Configuration --------------------------*/
  if (((pRCC_OscInitStruct->OscillatorType) & RCC_OSCILLATORTYPE_HSI) == RCC_OSCILLATORTYPE_HSI)
 8002ef0:	687b      	ldr	r3, [r7, #4]
 8002ef2:	681b      	ldr	r3, [r3, #0]
 8002ef4:	f003 0302 	and.w	r3, r3, #2
 8002ef8:	2b00      	cmp	r3, #0
 8002efa:	d05f      	beq.n	8002fbc <HAL_RCC_OscConfig+0x504>
    /* Check the parameters */
    assert_param(IS_RCC_HSI(pRCC_OscInitStruct->HSIState));
    assert_param(IS_RCC_HSI_CALIBRATION_VALUE(pRCC_OscInitStruct->HSICalibrationValue));

    /* Check if HSI is used as system clock or as PLL source when PLL is selected as system clock */
    if ((sysclk_source == RCC_SYSCLKSOURCE_STATUS_HSI) ||
 8002efc:	6b3b      	ldr	r3, [r7, #48]	; 0x30
 8002efe:	2b04      	cmp	r3, #4
 8002f00:	d005      	beq.n	8002f0e <HAL_RCC_OscConfig+0x456>
 8002f02:	6b3b      	ldr	r3, [r7, #48]	; 0x30
 8002f04:	2b0c      	cmp	r3, #12
 8002f06:	d114      	bne.n	8002f32 <HAL_RCC_OscConfig+0x47a>
        ((sysclk_source == RCC_SYSCLKSOURCE_STATUS_PLLCLK) && (pll_config == RCC_PLLSOURCE_HSI)))
 8002f08:	6afb      	ldr	r3, [r7, #44]	; 0x2c
 8002f0a:	2b02      	cmp	r3, #2
 8002f0c:	d111      	bne.n	8002f32 <HAL_RCC_OscConfig+0x47a>
    {
      /* When HSI is used as system clock it will not be disabled */
      if (pRCC_OscInitStruct->HSIState == RCC_HSI_OFF)
 8002f0e:	687b      	ldr	r3, [r7, #4]
 8002f10:	68db      	ldr	r3, [r3, #12]
 8002f12:	2b00      	cmp	r3, #0
 8002f14:	d102      	bne.n	8002f1c <HAL_RCC_OscConfig+0x464>
      {
        return HAL_ERROR;
 8002f16:	2301      	movs	r3, #1
 8002f18:	f000 bca3 	b.w	8003862 <HAL_RCC_OscConfig+0xdaa>
      }
      /* Otherwise, just the calibration is allowed */
      else
      {
        /* Adjusts the Internal High Speed oscillator (HSI) calibration value */
        __HAL_RCC_HSI_CALIBRATIONVALUE_ADJUST(pRCC_OscInitStruct->HSICalibrationValue);
 8002f1c:	4b23      	ldr	r3, [pc, #140]	; (8002fac <HAL_RCC_OscConfig+0x4f4>)
 8002f1e:	691b      	ldr	r3, [r3, #16]
 8002f20:	f423 12f8 	bic.w	r2, r3, #2031616	; 0x1f0000
 8002f24:	687b      	ldr	r3, [r7, #4]
 8002f26:	691b      	ldr	r3, [r3, #16]
 8002f28:	041b      	lsls	r3, r3, #16
 8002f2a:	4920      	ldr	r1, [pc, #128]	; (8002fac <HAL_RCC_OscConfig+0x4f4>)
 8002f2c:	4313      	orrs	r3, r2
 8002f2e:	610b      	str	r3, [r1, #16]
      if (pRCC_OscInitStruct->HSIState == RCC_HSI_OFF)
 8002f30:	e044      	b.n	8002fbc <HAL_RCC_OscConfig+0x504>
      }
    }
    else
    {
      /* Check the HSI State */
      if (pRCC_OscInitStruct->HSIState != RCC_HSI_OFF)
 8002f32:	687b      	ldr	r3, [r7, #4]
 8002f34:	68db      	ldr	r3, [r3, #12]
 8002f36:	2b00      	cmp	r3, #0
 8002f38:	d024      	beq.n	8002f84 <HAL_RCC_OscConfig+0x4cc>
      {
        /* Enable the Internal High Speed oscillator (HSI) */
        __HAL_RCC_HSI_ENABLE();
 8002f3a:	4b1c      	ldr	r3, [pc, #112]	; (8002fac <HAL_RCC_OscConfig+0x4f4>)
 8002f3c:	681b      	ldr	r3, [r3, #0]
 8002f3e:	4a1b      	ldr	r2, [pc, #108]	; (8002fac <HAL_RCC_OscConfig+0x4f4>)
 8002f40:	f443 7380 	orr.w	r3, r3, #256	; 0x100
 8002f44:	6013      	str	r3, [r2, #0]

        tickstart = HAL_GetTick();
 8002f46:	f7fd fd3f 	bl	80009c8 <HAL_GetTick>
 8002f4a:	62b8      	str	r0, [r7, #40]	; 0x28

        /* Wait till HSI is ready */
        while (READ_BIT(RCC->CR, RCC_CR_HSIRDY) == 0U)
 8002f4c:	e009      	b.n	8002f62 <HAL_RCC_OscConfig+0x4aa>
        {
          if ((HAL_GetTick() - tickstart) > HSI_TIMEOUT_VALUE)
 8002f4e:	f7fd fd3b 	bl	80009c8 <HAL_GetTick>
 8002f52:	4602      	mov	r2, r0
 8002f54:	6abb      	ldr	r3, [r7, #40]	; 0x28
 8002f56:	1ad3      	subs	r3, r2, r3
 8002f58:	2b02      	cmp	r3, #2
 8002f5a:	d902      	bls.n	8002f62 <HAL_RCC_OscConfig+0x4aa>
          {
            return HAL_TIMEOUT;
 8002f5c:	2303      	movs	r3, #3
 8002f5e:	f000 bc80 	b.w	8003862 <HAL_RCC_OscConfig+0xdaa>
        while (READ_BIT(RCC->CR, RCC_CR_HSIRDY) == 0U)
 8002f62:	4b12      	ldr	r3, [pc, #72]	; (8002fac <HAL_RCC_OscConfig+0x4f4>)
 8002f64:	681b      	ldr	r3, [r3, #0]
 8002f66:	f403 6380 	and.w	r3, r3, #1024	; 0x400
 8002f6a:	2b00      	cmp	r3, #0
 8002f6c:	d0ef      	beq.n	8002f4e <HAL_RCC_OscConfig+0x496>
          }
        }

        /* Adjusts the Internal High Speed oscillator (HSI) calibration value */
        __HAL_RCC_HSI_CALIBRATIONVALUE_ADJUST(pRCC_OscInitStruct->HSICalibrationValue);
 8002f6e:	4b0f      	ldr	r3, [pc, #60]	; (8002fac <HAL_RCC_OscConfig+0x4f4>)
 8002f70:	691b      	ldr	r3, [r3, #16]
 8002f72:	f423 12f8 	bic.w	r2, r3, #2031616	; 0x1f0000
 8002f76:	687b      	ldr	r3, [r7, #4]
 8002f78:	691b      	ldr	r3, [r3, #16]
 8002f7a:	041b      	lsls	r3, r3, #16
 8002f7c:	490b      	ldr	r1, [pc, #44]	; (8002fac <HAL_RCC_OscConfig+0x4f4>)
 8002f7e:	4313      	orrs	r3, r2
 8002f80:	610b      	str	r3, [r1, #16]
 8002f82:	e01b      	b.n	8002fbc <HAL_RCC_OscConfig+0x504>
      }
      else
      {
        /* Disable the Internal High Speed oscillator (HSI) */
        __HAL_RCC_HSI_DISABLE();
 8002f84:	4b09      	ldr	r3, [pc, #36]	; (8002fac <HAL_RCC_OscConfig+0x4f4>)
 8002f86:	681b      	ldr	r3, [r3, #0]
 8002f88:	4a08      	ldr	r2, [pc, #32]	; (8002fac <HAL_RCC_OscConfig+0x4f4>)
 8002f8a:	f423 7380 	bic.w	r3, r3, #256	; 0x100
 8002f8e:	6013      	str	r3, [r2, #0]

        tickstart = HAL_GetTick();
 8002f90:	f7fd fd1a 	bl	80009c8 <HAL_GetTick>
 8002f94:	62b8      	str	r0, [r7, #40]	; 0x28

        /* Wait till HSI is disabled */
        while (READ_BIT(RCC->CR, RCC_CR_HSIRDY) != 0U)
 8002f96:	e00b      	b.n	8002fb0 <HAL_RCC_OscConfig+0x4f8>
        {
          if ((HAL_GetTick() - tickstart) > HSI_TIMEOUT_VALUE)
 8002f98:	f7fd fd16 	bl	80009c8 <HAL_GetTick>
 8002f9c:	4602      	mov	r2, r0
 8002f9e:	6abb      	ldr	r3, [r7, #40]	; 0x28
 8002fa0:	1ad3      	subs	r3, r2, r3
 8002fa2:	2b02      	cmp	r3, #2
 8002fa4:	d904      	bls.n	8002fb0 <HAL_RCC_OscConfig+0x4f8>
          {
            return HAL_TIMEOUT;
 8002fa6:	2303      	movs	r3, #3
 8002fa8:	f000 bc5b 	b.w	8003862 <HAL_RCC_OscConfig+0xdaa>
 8002fac:	46020c00 	.word	0x46020c00
        while (READ_BIT(RCC->CR, RCC_CR_HSIRDY) != 0U)
 8002fb0:	4baf      	ldr	r3, [pc, #700]	; (8003270 <HAL_RCC_OscConfig+0x7b8>)
 8002fb2:	681b      	ldr	r3, [r3, #0]
 8002fb4:	f403 6380 	and.w	r3, r3, #1024	; 0x400
 8002fb8:	2b00      	cmp	r3, #0
 8002fba:	d1ed      	bne.n	8002f98 <HAL_RCC_OscConfig+0x4e0>
        }
      }
    }
  }
  /*------------------------------ LSI Configuration -------------------------*/
  if (((pRCC_OscInitStruct->OscillatorType) & RCC_OSCILLATORTYPE_LSI) == RCC_OSCILLATORTYPE_LSI)
 8002fbc:	687b      	ldr	r3, [r7, #4]
 8002fbe:	681b      	ldr	r3, [r3, #0]
 8002fc0:	f003 0308 	and.w	r3, r3, #8
 8002fc4:	2b00      	cmp	r3, #0
 8002fc6:	f000 80c8 	beq.w	800315a <HAL_RCC_OscConfig+0x6a2>
  {
    /* Check the parameters */
    assert_param(IS_RCC_LSI(pRCC_OscInitStruct->LSIState));

    FlagStatus  pwrclkchanged = RESET;
 8002fca:	2300      	movs	r3, #0
 8002fcc:	f887 3036 	strb.w	r3, [r7, #54]	; 0x36

    /* Update LSI configuration in Backup Domain control register    */
    /* Requires to enable write access to Backup Domain of necessary */
    if (__HAL_RCC_PWR_IS_CLK_DISABLED())
 8002fd0:	4ba7      	ldr	r3, [pc, #668]	; (8003270 <HAL_RCC_OscConfig+0x7b8>)
 8002fd2:	f8d3 3094 	ldr.w	r3, [r3, #148]	; 0x94
 8002fd6:	f003 0304 	and.w	r3, r3, #4
 8002fda:	2b00      	cmp	r3, #0
 8002fdc:	d111      	bne.n	8003002 <HAL_RCC_OscConfig+0x54a>
    {
      __HAL_RCC_PWR_CLK_ENABLE();
 8002fde:	4ba4      	ldr	r3, [pc, #656]	; (8003270 <HAL_RCC_OscConfig+0x7b8>)
 8002fe0:	f8d3 3094 	ldr.w	r3, [r3, #148]	; 0x94
 8002fe4:	4aa2      	ldr	r2, [pc, #648]	; (8003270 <HAL_RCC_OscConfig+0x7b8>)
 8002fe6:	f043 0304 	orr.w	r3, r3, #4
 8002fea:	f8c2 3094 	str.w	r3, [r2, #148]	; 0x94
 8002fee:	4ba0      	ldr	r3, [pc, #640]	; (8003270 <HAL_RCC_OscConfig+0x7b8>)
 8002ff0:	f8d3 3094 	ldr.w	r3, [r3, #148]	; 0x94
 8002ff4:	f003 0304 	and.w	r3, r3, #4
 8002ff8:	617b      	str	r3, [r7, #20]
 8002ffa:	697b      	ldr	r3, [r7, #20]
      pwrclkchanged = SET;
 8002ffc:	2301      	movs	r3, #1
 8002ffe:	f887 3036 	strb.w	r3, [r7, #54]	; 0x36
    }

    if (HAL_IS_BIT_CLR(PWR->DBPR, PWR_DBPR_DBP))
 8003002:	4b9c      	ldr	r3, [pc, #624]	; (8003274 <HAL_RCC_OscConfig+0x7bc>)
 8003004:	6a9b      	ldr	r3, [r3, #40]	; 0x28
 8003006:	f003 0301 	and.w	r3, r3, #1
 800300a:	2b00      	cmp	r3, #0
 800300c:	d119      	bne.n	8003042 <HAL_RCC_OscConfig+0x58a>
    {
      /* Enable write access to Backup domain */
      SET_BIT(PWR->DBPR, PWR_DBPR_DBP);
 800300e:	4b99      	ldr	r3, [pc, #612]	; (8003274 <HAL_RCC_OscConfig+0x7bc>)
 8003010:	6a9b      	ldr	r3, [r3, #40]	; 0x28
 8003012:	4a98      	ldr	r2, [pc, #608]	; (8003274 <HAL_RCC_OscConfig+0x7bc>)
 8003014:	f043 0301 	orr.w	r3, r3, #1
 8003018:	6293      	str	r3, [r2, #40]	; 0x28

      /* Wait for Backup domain Write protection disable */
      tickstart = HAL_GetTick();
 800301a:	f7fd fcd5 	bl	80009c8 <HAL_GetTick>
 800301e:	62b8      	str	r0, [r7, #40]	; 0x28

      while (HAL_IS_BIT_CLR(PWR->DBPR, PWR_DBPR_DBP))
 8003020:	e009      	b.n	8003036 <HAL_RCC_OscConfig+0x57e>
      {
        if ((HAL_GetTick() - tickstart) > RCC_DBP_TIMEOUT_VALUE)
 8003022:	f7fd fcd1 	bl	80009c8 <HAL_GetTick>
 8003026:	4602      	mov	r2, r0
 8003028:	6abb      	ldr	r3, [r7, #40]	; 0x28
 800302a:	1ad3      	subs	r3, r2, r3
 800302c:	2b02      	cmp	r3, #2
 800302e:	d902      	bls.n	8003036 <HAL_RCC_OscConfig+0x57e>
        {
          return HAL_TIMEOUT;
 8003030:	2303      	movs	r3, #3
 8003032:	f000 bc16 	b.w	8003862 <HAL_RCC_OscConfig+0xdaa>
      while (HAL_IS_BIT_CLR(PWR->DBPR, PWR_DBPR_DBP))
 8003036:	4b8f      	ldr	r3, [pc, #572]	; (8003274 <HAL_RCC_OscConfig+0x7bc>)
 8003038:	6a9b      	ldr	r3, [r3, #40]	; 0x28
 800303a:	f003 0301 	and.w	r3, r3, #1
 800303e:	2b00      	cmp	r3, #0
 8003040:	d0ef      	beq.n	8003022 <HAL_RCC_OscConfig+0x56a>
        }
      }
    }
    /* Check the LSI State */
    if (pRCC_OscInitStruct->LSIState != RCC_LSI_OFF)
 8003042:	687b      	ldr	r3, [r7, #4]
 8003044:	695b      	ldr	r3, [r3, #20]
 8003046:	2b00      	cmp	r3, #0
 8003048:	d05f      	beq.n	800310a <HAL_RCC_OscConfig+0x652>
    {
      uint32_t bdcr_temp = RCC->BDCR;
 800304a:	4b89      	ldr	r3, [pc, #548]	; (8003270 <HAL_RCC_OscConfig+0x7b8>)
 800304c:	f8d3 30f0 	ldr.w	r3, [r3, #240]	; 0xf0
 8003050:	623b      	str	r3, [r7, #32]

      /* Check LSI division factor */
      assert_param(IS_RCC_LSIDIV(pRCC_OscInitStruct->LSIDiv));

      if (pRCC_OscInitStruct->LSIDiv != (bdcr_temp & RCC_BDCR_LSIPREDIV))
 8003052:	687b      	ldr	r3, [r7, #4]
 8003054:	699a      	ldr	r2, [r3, #24]
 8003056:	6a3b      	ldr	r3, [r7, #32]
 8003058:	f003 5380 	and.w	r3, r3, #268435456	; 0x10000000
 800305c:	429a      	cmp	r2, r3
 800305e:	d037      	beq.n	80030d0 <HAL_RCC_OscConfig+0x618>
      {
        if (((bdcr_temp & RCC_BDCR_LSIRDY) == RCC_BDCR_LSIRDY) && \
 8003060:	6a3b      	ldr	r3, [r7, #32]
 8003062:	f003 6300 	and.w	r3, r3, #134217728	; 0x8000000
 8003066:	2b00      	cmp	r3, #0
 8003068:	d006      	beq.n	8003078 <HAL_RCC_OscConfig+0x5c0>
            ((bdcr_temp & RCC_BDCR_LSION) != RCC_BDCR_LSION))
 800306a:	6a3b      	ldr	r3, [r7, #32]
 800306c:	f003 6380 	and.w	r3, r3, #67108864	; 0x4000000
        if (((bdcr_temp & RCC_BDCR_LSIRDY) == RCC_BDCR_LSIRDY) && \
 8003070:	2b00      	cmp	r3, #0
 8003072:	d101      	bne.n	8003078 <HAL_RCC_OscConfig+0x5c0>
        {
          /* If LSIRDY is set while LSION is not enabled, LSIPREDIV can't be updated */
          /* The LSIPREDIV cannot be changed if the LSI is used by the IWDG or by the RTC */
          return HAL_ERROR;
 8003074:	2301      	movs	r3, #1
 8003076:	e3f4      	b.n	8003862 <HAL_RCC_OscConfig+0xdaa>
        }

        /* Turn off LSI before changing RCC_BDCR_LSIPREDIV */
        if ((bdcr_temp & RCC_BDCR_LSION) == RCC_BDCR_LSION)
 8003078:	6a3b      	ldr	r3, [r7, #32]
 800307a:	f003 6380 	and.w	r3, r3, #67108864	; 0x4000000
 800307e:	2b00      	cmp	r3, #0
 8003080:	d01b      	beq.n	80030ba <HAL_RCC_OscConfig+0x602>
        {
          __HAL_RCC_LSI_DISABLE();
 8003082:	4b7b      	ldr	r3, [pc, #492]	; (8003270 <HAL_RCC_OscConfig+0x7b8>)
 8003084:	f8d3 30f0 	ldr.w	r3, [r3, #240]	; 0xf0
 8003088:	4a79      	ldr	r2, [pc, #484]	; (8003270 <HAL_RCC_OscConfig+0x7b8>)
 800308a:	f023 53a0 	bic.w	r3, r3, #335544320	; 0x14000000
 800308e:	f8c2 30f0 	str.w	r3, [r2, #240]	; 0xf0

          tickstart = HAL_GetTick();
 8003092:	f7fd fc99 	bl	80009c8 <HAL_GetTick>
 8003096:	62b8      	str	r0, [r7, #40]	; 0x28

          /* Wait till LSI is disabled */
          while (READ_BIT(RCC->BDCR, RCC_BDCR_LSIRDY) != 0U)
 8003098:	e008      	b.n	80030ac <HAL_RCC_OscConfig+0x5f4>
          {
            if ((HAL_GetTick() - tickstart) > LSI_TIMEOUT_VALUE)
 800309a:	f7fd fc95 	bl	80009c8 <HAL_GetTick>
 800309e:	4602      	mov	r2, r0
 80030a0:	6abb      	ldr	r3, [r7, #40]	; 0x28
 80030a2:	1ad3      	subs	r3, r2, r3
 80030a4:	2b05      	cmp	r3, #5
 80030a6:	d901      	bls.n	80030ac <HAL_RCC_OscConfig+0x5f4>
            {
              return HAL_TIMEOUT;
 80030a8:	2303      	movs	r3, #3
 80030aa:	e3da      	b.n	8003862 <HAL_RCC_OscConfig+0xdaa>
          while (READ_BIT(RCC->BDCR, RCC_BDCR_LSIRDY) != 0U)
 80030ac:	4b70      	ldr	r3, [pc, #448]	; (8003270 <HAL_RCC_OscConfig+0x7b8>)
 80030ae:	f8d3 30f0 	ldr.w	r3, [r3, #240]	; 0xf0
 80030b2:	f003 6300 	and.w	r3, r3, #134217728	; 0x8000000
 80030b6:	2b00      	cmp	r3, #0
 80030b8:	d1ef      	bne.n	800309a <HAL_RCC_OscConfig+0x5e2>
            }
          }
        }

        /* Set LSI division factor */
        MODIFY_REG(RCC->BDCR, RCC_BDCR_LSIPREDIV, pRCC_OscInitStruct->LSIDiv);
 80030ba:	4b6d      	ldr	r3, [pc, #436]	; (8003270 <HAL_RCC_OscConfig+0x7b8>)
 80030bc:	f8d3 30f0 	ldr.w	r3, [r3, #240]	; 0xf0
 80030c0:	f023 5280 	bic.w	r2, r3, #268435456	; 0x10000000
 80030c4:	687b      	ldr	r3, [r7, #4]
 80030c6:	699b      	ldr	r3, [r3, #24]
 80030c8:	4969      	ldr	r1, [pc, #420]	; (8003270 <HAL_RCC_OscConfig+0x7b8>)
 80030ca:	4313      	orrs	r3, r2
 80030cc:	f8c1 30f0 	str.w	r3, [r1, #240]	; 0xf0
      }

      /* Enable the Internal Low Speed oscillator (LSI) */
      __HAL_RCC_LSI_ENABLE();
 80030d0:	4b67      	ldr	r3, [pc, #412]	; (8003270 <HAL_RCC_OscConfig+0x7b8>)
 80030d2:	f8d3 30f0 	ldr.w	r3, [r3, #240]	; 0xf0
 80030d6:	4a66      	ldr	r2, [pc, #408]	; (8003270 <HAL_RCC_OscConfig+0x7b8>)
 80030d8:	f043 6380 	orr.w	r3, r3, #67108864	; 0x4000000
 80030dc:	f8c2 30f0 	str.w	r3, [r2, #240]	; 0xf0

      tickstart = HAL_GetTick();
 80030e0:	f7fd fc72 	bl	80009c8 <HAL_GetTick>
 80030e4:	62b8      	str	r0, [r7, #40]	; 0x28

      /* Wait till LSI is ready */
      while (READ_BIT(RCC->BDCR, RCC_BDCR_LSIRDY) == 0U)
 80030e6:	e008      	b.n	80030fa <HAL_RCC_OscConfig+0x642>
      {
        if ((HAL_GetTick() - tickstart) > LSI_TIMEOUT_VALUE)
 80030e8:	f7fd fc6e 	bl	80009c8 <HAL_GetTick>
 80030ec:	4602      	mov	r2, r0
 80030ee:	6abb      	ldr	r3, [r7, #40]	; 0x28
 80030f0:	1ad3      	subs	r3, r2, r3
 80030f2:	2b05      	cmp	r3, #5
 80030f4:	d901      	bls.n	80030fa <HAL_RCC_OscConfig+0x642>
        {
          return HAL_TIMEOUT;
 80030f6:	2303      	movs	r3, #3
 80030f8:	e3b3      	b.n	8003862 <HAL_RCC_OscConfig+0xdaa>
      while (READ_BIT(RCC->BDCR, RCC_BDCR_LSIRDY) == 0U)
 80030fa:	4b5d      	ldr	r3, [pc, #372]	; (8003270 <HAL_RCC_OscConfig+0x7b8>)
 80030fc:	f8d3 30f0 	ldr.w	r3, [r3, #240]	; 0xf0
 8003100:	f003 6300 	and.w	r3, r3, #134217728	; 0x8000000
 8003104:	2b00      	cmp	r3, #0
 8003106:	d0ef      	beq.n	80030e8 <HAL_RCC_OscConfig+0x630>
 8003108:	e01b      	b.n	8003142 <HAL_RCC_OscConfig+0x68a>
      }
    }
    else
    {
      /* Disable the Internal Low Speed oscillator (LSI) */
      __HAL_RCC_LSI_DISABLE();
 800310a:	4b59      	ldr	r3, [pc, #356]	; (8003270 <HAL_RCC_OscConfig+0x7b8>)
 800310c:	f8d3 30f0 	ldr.w	r3, [r3, #240]	; 0xf0
 8003110:	4a57      	ldr	r2, [pc, #348]	; (8003270 <HAL_RCC_OscConfig+0x7b8>)
 8003112:	f023 53a0 	bic.w	r3, r3, #335544320	; 0x14000000
 8003116:	f8c2 30f0 	str.w	r3, [r2, #240]	; 0xf0

      tickstart = HAL_GetTick();
 800311a:	f7fd fc55 	bl	80009c8 <HAL_GetTick>
 800311e:	62b8      	str	r0, [r7, #40]	; 0x28

      /* Wait till LSI is disabled */
      while (READ_BIT(RCC->BDCR, RCC_BDCR_LSIRDY) != 0U)
 8003120:	e008      	b.n	8003134 <HAL_RCC_OscConfig+0x67c>
      {
        if ((HAL_GetTick() - tickstart) > LSI_TIMEOUT_VALUE)
 8003122:	f7fd fc51 	bl	80009c8 <HAL_GetTick>
 8003126:	4602      	mov	r2, r0
 8003128:	6abb      	ldr	r3, [r7, #40]	; 0x28
 800312a:	1ad3      	subs	r3, r2, r3
 800312c:	2b05      	cmp	r3, #5
 800312e:	d901      	bls.n	8003134 <HAL_RCC_OscConfig+0x67c>
        {
          return HAL_TIMEOUT;
 8003130:	2303      	movs	r3, #3
 8003132:	e396      	b.n	8003862 <HAL_RCC_OscConfig+0xdaa>
      while (READ_BIT(RCC->BDCR, RCC_BDCR_LSIRDY) != 0U)
 8003134:	4b4e      	ldr	r3, [pc, #312]	; (8003270 <HAL_RCC_OscConfig+0x7b8>)
 8003136:	f8d3 30f0 	ldr.w	r3, [r3, #240]	; 0xf0
 800313a:	f003 6300 	and.w	r3, r3, #134217728	; 0x8000000
 800313e:	2b00      	cmp	r3, #0
 8003140:	d1ef      	bne.n	8003122 <HAL_RCC_OscConfig+0x66a>
        }
      }
    }
    /* Restore clock configuration if changed */
    if (pwrclkchanged == SET)
 8003142:	f897 3036 	ldrb.w	r3, [r7, #54]	; 0x36
 8003146:	2b01      	cmp	r3, #1
 8003148:	d107      	bne.n	800315a <HAL_RCC_OscConfig+0x6a2>
    {
      __HAL_RCC_PWR_CLK_DISABLE();
 800314a:	4b49      	ldr	r3, [pc, #292]	; (8003270 <HAL_RCC_OscConfig+0x7b8>)
 800314c:	f8d3 3094 	ldr.w	r3, [r3, #148]	; 0x94
 8003150:	4a47      	ldr	r2, [pc, #284]	; (8003270 <HAL_RCC_OscConfig+0x7b8>)
 8003152:	f023 0304 	bic.w	r3, r3, #4
 8003156:	f8c2 3094 	str.w	r3, [r2, #148]	; 0x94
    }
  }
  /*------------------------------ LSE Configuration -------------------------*/
  if (((pRCC_OscInitStruct->OscillatorType) & RCC_OSCILLATORTYPE_LSE) == RCC_OSCILLATORTYPE_LSE)
 800315a:	687b      	ldr	r3, [r7, #4]
 800315c:	681b      	ldr	r3, [r3, #0]
 800315e:	f003 0304 	and.w	r3, r3, #4
 8003162:	2b00      	cmp	r3, #0
 8003164:	f000 8111 	beq.w	800338a <HAL_RCC_OscConfig+0x8d2>
  {
    FlagStatus pwrclkchanged = RESET;
 8003168:	2300      	movs	r3, #0
 800316a:	f887 3035 	strb.w	r3, [r7, #53]	; 0x35
    /* Check the parameters */
    assert_param(IS_RCC_LSE(pRCC_OscInitStruct->LSEState));

    /* Update LSE configuration in Backup Domain control register    */
    /* Requires to enable write access to Backup Domain of necessary */
    if (__HAL_RCC_PWR_IS_CLK_DISABLED())
 800316e:	4b40      	ldr	r3, [pc, #256]	; (8003270 <HAL_RCC_OscConfig+0x7b8>)
 8003170:	f8d3 3094 	ldr.w	r3, [r3, #148]	; 0x94
 8003174:	f003 0304 	and.w	r3, r3, #4
 8003178:	2b00      	cmp	r3, #0
 800317a:	d111      	bne.n	80031a0 <HAL_RCC_OscConfig+0x6e8>
    {
      __HAL_RCC_PWR_CLK_ENABLE();
 800317c:	4b3c      	ldr	r3, [pc, #240]	; (8003270 <HAL_RCC_OscConfig+0x7b8>)
 800317e:	f8d3 3094 	ldr.w	r3, [r3, #148]	; 0x94
 8003182:	4a3b      	ldr	r2, [pc, #236]	; (8003270 <HAL_RCC_OscConfig+0x7b8>)
 8003184:	f043 0304 	orr.w	r3, r3, #4
 8003188:	f8c2 3094 	str.w	r3, [r2, #148]	; 0x94
 800318c:	4b38      	ldr	r3, [pc, #224]	; (8003270 <HAL_RCC_OscConfig+0x7b8>)
 800318e:	f8d3 3094 	ldr.w	r3, [r3, #148]	; 0x94
 8003192:	f003 0304 	and.w	r3, r3, #4
 8003196:	613b      	str	r3, [r7, #16]
 8003198:	693b      	ldr	r3, [r7, #16]
      pwrclkchanged = SET;
 800319a:	2301      	movs	r3, #1
 800319c:	f887 3035 	strb.w	r3, [r7, #53]	; 0x35
    }

    if (HAL_IS_BIT_CLR(PWR->DBPR, PWR_DBPR_DBP))
 80031a0:	4b34      	ldr	r3, [pc, #208]	; (8003274 <HAL_RCC_OscConfig+0x7bc>)
 80031a2:	6a9b      	ldr	r3, [r3, #40]	; 0x28
 80031a4:	f003 0301 	and.w	r3, r3, #1
 80031a8:	2b00      	cmp	r3, #0
 80031aa:	d118      	bne.n	80031de <HAL_RCC_OscConfig+0x726>
    {
      /* Enable write access to Backup domain */
      SET_BIT(PWR->DBPR, PWR_DBPR_DBP);
 80031ac:	4b31      	ldr	r3, [pc, #196]	; (8003274 <HAL_RCC_OscConfig+0x7bc>)
 80031ae:	6a9b      	ldr	r3, [r3, #40]	; 0x28
 80031b0:	4a30      	ldr	r2, [pc, #192]	; (8003274 <HAL_RCC_OscConfig+0x7bc>)
 80031b2:	f043 0301 	orr.w	r3, r3, #1
 80031b6:	6293      	str	r3, [r2, #40]	; 0x28

      /* Wait for Backup domain Write protection disable */
      tickstart = HAL_GetTick();
 80031b8:	f7fd fc06 	bl	80009c8 <HAL_GetTick>
 80031bc:	62b8      	str	r0, [r7, #40]	; 0x28

      while (HAL_IS_BIT_CLR(PWR->DBPR, PWR_DBPR_DBP))
 80031be:	e008      	b.n	80031d2 <HAL_RCC_OscConfig+0x71a>
      {
        if ((HAL_GetTick() - tickstart) > RCC_DBP_TIMEOUT_VALUE)
 80031c0:	f7fd fc02 	bl	80009c8 <HAL_GetTick>
 80031c4:	4602      	mov	r2, r0
 80031c6:	6abb      	ldr	r3, [r7, #40]	; 0x28
 80031c8:	1ad3      	subs	r3, r2, r3
 80031ca:	2b02      	cmp	r3, #2
 80031cc:	d901      	bls.n	80031d2 <HAL_RCC_OscConfig+0x71a>
        {
          return HAL_TIMEOUT;
 80031ce:	2303      	movs	r3, #3
 80031d0:	e347      	b.n	8003862 <HAL_RCC_OscConfig+0xdaa>
      while (HAL_IS_BIT_CLR(PWR->DBPR, PWR_DBPR_DBP))
 80031d2:	4b28      	ldr	r3, [pc, #160]	; (8003274 <HAL_RCC_OscConfig+0x7bc>)
 80031d4:	6a9b      	ldr	r3, [r3, #40]	; 0x28
 80031d6:	f003 0301 	and.w	r3, r3, #1
 80031da:	2b00      	cmp	r3, #0
 80031dc:	d0f0      	beq.n	80031c0 <HAL_RCC_OscConfig+0x708>
        }
      }
    }

    /* Set the new LSE configuration -----------------------------------------*/
    if ((pRCC_OscInitStruct->LSEState & RCC_BDCR_LSEON) != 0U)
 80031de:	687b      	ldr	r3, [r7, #4]
 80031e0:	689b      	ldr	r3, [r3, #8]
 80031e2:	f003 0301 	and.w	r3, r3, #1
 80031e6:	2b00      	cmp	r3, #0
 80031e8:	d01f      	beq.n	800322a <HAL_RCC_OscConfig+0x772>
    {
      if ((pRCC_OscInitStruct->LSEState & RCC_BDCR_LSEBYP) != 0U)
 80031ea:	687b      	ldr	r3, [r7, #4]
 80031ec:	689b      	ldr	r3, [r3, #8]
 80031ee:	f003 0304 	and.w	r3, r3, #4
 80031f2:	2b00      	cmp	r3, #0
 80031f4:	d010      	beq.n	8003218 <HAL_RCC_OscConfig+0x760>
      {
        /* LSE oscillator bypass enable */
        SET_BIT(RCC->BDCR, RCC_BDCR_LSEBYP);
 80031f6:	4b1e      	ldr	r3, [pc, #120]	; (8003270 <HAL_RCC_OscConfig+0x7b8>)
 80031f8:	f8d3 30f0 	ldr.w	r3, [r3, #240]	; 0xf0
 80031fc:	4a1c      	ldr	r2, [pc, #112]	; (8003270 <HAL_RCC_OscConfig+0x7b8>)
 80031fe:	f043 0304 	orr.w	r3, r3, #4
 8003202:	f8c2 30f0 	str.w	r3, [r2, #240]	; 0xf0
        SET_BIT(RCC->BDCR, RCC_BDCR_LSEON);
 8003206:	4b1a      	ldr	r3, [pc, #104]	; (8003270 <HAL_RCC_OscConfig+0x7b8>)
 8003208:	f8d3 30f0 	ldr.w	r3, [r3, #240]	; 0xf0
 800320c:	4a18      	ldr	r2, [pc, #96]	; (8003270 <HAL_RCC_OscConfig+0x7b8>)
 800320e:	f043 0301 	orr.w	r3, r3, #1
 8003212:	f8c2 30f0 	str.w	r3, [r2, #240]	; 0xf0
 8003216:	e018      	b.n	800324a <HAL_RCC_OscConfig+0x792>
      }
      else
      {
        /* LSE oscillator enable */
        SET_BIT(RCC->BDCR, RCC_BDCR_LSEON);
 8003218:	4b15      	ldr	r3, [pc, #84]	; (8003270 <HAL_RCC_OscConfig+0x7b8>)
 800321a:	f8d3 30f0 	ldr.w	r3, [r3, #240]	; 0xf0
 800321e:	4a14      	ldr	r2, [pc, #80]	; (8003270 <HAL_RCC_OscConfig+0x7b8>)
 8003220:	f043 0301 	orr.w	r3, r3, #1
 8003224:	f8c2 30f0 	str.w	r3, [r2, #240]	; 0xf0
 8003228:	e00f      	b.n	800324a <HAL_RCC_OscConfig+0x792>
      }
    }
    else
    {
      CLEAR_BIT(RCC->BDCR, RCC_BDCR_LSEON);
 800322a:	4b11      	ldr	r3, [pc, #68]	; (8003270 <HAL_RCC_OscConfig+0x7b8>)
 800322c:	f8d3 30f0 	ldr.w	r3, [r3, #240]	; 0xf0
 8003230:	4a0f      	ldr	r2, [pc, #60]	; (8003270 <HAL_RCC_OscConfig+0x7b8>)
 8003232:	f023 0301 	bic.w	r3, r3, #1
 8003236:	f8c2 30f0 	str.w	r3, [r2, #240]	; 0xf0
      CLEAR_BIT(RCC->BDCR, RCC_BDCR_LSEBYP);
 800323a:	4b0d      	ldr	r3, [pc, #52]	; (8003270 <HAL_RCC_OscConfig+0x7b8>)
 800323c:	f8d3 30f0 	ldr.w	r3, [r3, #240]	; 0xf0
 8003240:	4a0b      	ldr	r2, [pc, #44]	; (8003270 <HAL_RCC_OscConfig+0x7b8>)
 8003242:	f023 0304 	bic.w	r3, r3, #4
 8003246:	f8c2 30f0 	str.w	r3, [r2, #240]	; 0xf0
    }

    /* Check the LSE State */
    if (pRCC_OscInitStruct->LSEState != RCC_LSE_OFF)
 800324a:	687b      	ldr	r3, [r7, #4]
 800324c:	689b      	ldr	r3, [r3, #8]
 800324e:	2b00      	cmp	r3, #0
 8003250:	d057      	beq.n	8003302 <HAL_RCC_OscConfig+0x84a>
    {
      tickstart = HAL_GetTick();
 8003252:	f7fd fbb9 	bl	80009c8 <HAL_GetTick>
 8003256:	62b8      	str	r0, [r7, #40]	; 0x28

      /* Wait till LSE is ready */
      while (READ_BIT(RCC->BDCR, RCC_BDCR_LSERDY) == 0U)
 8003258:	e00e      	b.n	8003278 <HAL_RCC_OscConfig+0x7c0>
      {
        if ((HAL_GetTick() - tickstart) > RCC_LSE_TIMEOUT_VALUE)
 800325a:	f7fd fbb5 	bl	80009c8 <HAL_GetTick>
 800325e:	4602      	mov	r2, r0
 8003260:	6abb      	ldr	r3, [r7, #40]	; 0x28
 8003262:	1ad3      	subs	r3, r2, r3
 8003264:	f241 3288 	movw	r2, #5000	; 0x1388
 8003268:	4293      	cmp	r3, r2
 800326a:	d905      	bls.n	8003278 <HAL_RCC_OscConfig+0x7c0>
        {
          return HAL_TIMEOUT;
 800326c:	2303      	movs	r3, #3
 800326e:	e2f8      	b.n	8003862 <HAL_RCC_OscConfig+0xdaa>
 8003270:	46020c00 	.word	0x46020c00
 8003274:	46020800 	.word	0x46020800
      while (READ_BIT(RCC->BDCR, RCC_BDCR_LSERDY) == 0U)
 8003278:	4b9c      	ldr	r3, [pc, #624]	; (80034ec <HAL_RCC_OscConfig+0xa34>)
 800327a:	f8d3 30f0 	ldr.w	r3, [r3, #240]	; 0xf0
 800327e:	f003 0302 	and.w	r3, r3, #2
 8003282:	2b00      	cmp	r3, #0
 8003284:	d0e9      	beq.n	800325a <HAL_RCC_OscConfig+0x7a2>
        }
      }

      /* Enable LSESYS additionally if requested */
      if ((pRCC_OscInitStruct->LSEState & RCC_BDCR_LSESYSEN) != 0U)
 8003286:	687b      	ldr	r3, [r7, #4]
 8003288:	689b      	ldr	r3, [r3, #8]
 800328a:	f003 0380 	and.w	r3, r3, #128	; 0x80
 800328e:	2b00      	cmp	r3, #0
 8003290:	d01b      	beq.n	80032ca <HAL_RCC_OscConfig+0x812>
      {
        SET_BIT(RCC->BDCR, RCC_BDCR_LSESYSEN);
 8003292:	4b96      	ldr	r3, [pc, #600]	; (80034ec <HAL_RCC_OscConfig+0xa34>)
 8003294:	f8d3 30f0 	ldr.w	r3, [r3, #240]	; 0xf0
 8003298:	4a94      	ldr	r2, [pc, #592]	; (80034ec <HAL_RCC_OscConfig+0xa34>)
 800329a:	f043 0380 	orr.w	r3, r3, #128	; 0x80
 800329e:	f8c2 30f0 	str.w	r3, [r2, #240]	; 0xf0

        /* Wait till LSESYS is ready */
        while (READ_BIT(RCC->BDCR, RCC_BDCR_LSESYSRDY) == 0U)
 80032a2:	e00a      	b.n	80032ba <HAL_RCC_OscConfig+0x802>
        {
          if ((HAL_GetTick() - tickstart) > RCC_LSE_TIMEOUT_VALUE)
 80032a4:	f7fd fb90 	bl	80009c8 <HAL_GetTick>
 80032a8:	4602      	mov	r2, r0
 80032aa:	6abb      	ldr	r3, [r7, #40]	; 0x28
 80032ac:	1ad3      	subs	r3, r2, r3
 80032ae:	f241 3288 	movw	r2, #5000	; 0x1388
 80032b2:	4293      	cmp	r3, r2
 80032b4:	d901      	bls.n	80032ba <HAL_RCC_OscConfig+0x802>
          {
            return HAL_TIMEOUT;
 80032b6:	2303      	movs	r3, #3
 80032b8:	e2d3      	b.n	8003862 <HAL_RCC_OscConfig+0xdaa>
        while (READ_BIT(RCC->BDCR, RCC_BDCR_LSESYSRDY) == 0U)
 80032ba:	4b8c      	ldr	r3, [pc, #560]	; (80034ec <HAL_RCC_OscConfig+0xa34>)
 80032bc:	f8d3 30f0 	ldr.w	r3, [r3, #240]	; 0xf0
 80032c0:	f403 6300 	and.w	r3, r3, #2048	; 0x800
 80032c4:	2b00      	cmp	r3, #0
 80032c6:	d0ed      	beq.n	80032a4 <HAL_RCC_OscConfig+0x7ec>
 80032c8:	e053      	b.n	8003372 <HAL_RCC_OscConfig+0x8ba>
        }
      }
      else
      {
        /* Make sure LSESYSEN/LSESYSRDY are reset */
        CLEAR_BIT(RCC->BDCR, RCC_BDCR_LSESYSEN);
 80032ca:	4b88      	ldr	r3, [pc, #544]	; (80034ec <HAL_RCC_OscConfig+0xa34>)
 80032cc:	f8d3 30f0 	ldr.w	r3, [r3, #240]	; 0xf0
 80032d0:	4a86      	ldr	r2, [pc, #536]	; (80034ec <HAL_RCC_OscConfig+0xa34>)
 80032d2:	f023 0380 	bic.w	r3, r3, #128	; 0x80
 80032d6:	f8c2 30f0 	str.w	r3, [r2, #240]	; 0xf0

        /* Wait till LSESYSRDY is cleared */
        while (READ_BIT(RCC->BDCR, RCC_BDCR_LSESYSRDY) != 0U)
 80032da:	e00a      	b.n	80032f2 <HAL_RCC_OscConfig+0x83a>
        {
          if ((HAL_GetTick() - tickstart) > RCC_LSE_TIMEOUT_VALUE)
 80032dc:	f7fd fb74 	bl	80009c8 <HAL_GetTick>
 80032e0:	4602      	mov	r2, r0
 80032e2:	6abb      	ldr	r3, [r7, #40]	; 0x28
 80032e4:	1ad3      	subs	r3, r2, r3
 80032e6:	f241 3288 	movw	r2, #5000	; 0x1388
 80032ea:	4293      	cmp	r3, r2
 80032ec:	d901      	bls.n	80032f2 <HAL_RCC_OscConfig+0x83a>
          {
            return HAL_TIMEOUT;
 80032ee:	2303      	movs	r3, #3
 80032f0:	e2b7      	b.n	8003862 <HAL_RCC_OscConfig+0xdaa>
        while (READ_BIT(RCC->BDCR, RCC_BDCR_LSESYSRDY) != 0U)
 80032f2:	4b7e      	ldr	r3, [pc, #504]	; (80034ec <HAL_RCC_OscConfig+0xa34>)
 80032f4:	f8d3 30f0 	ldr.w	r3, [r3, #240]	; 0xf0
 80032f8:	f403 6300 	and.w	r3, r3, #2048	; 0x800
 80032fc:	2b00      	cmp	r3, #0
 80032fe:	d1ed      	bne.n	80032dc <HAL_RCC_OscConfig+0x824>
 8003300:	e037      	b.n	8003372 <HAL_RCC_OscConfig+0x8ba>
        }
      }
    }
    else
    {
      tickstart = HAL_GetTick();
 8003302:	f7fd fb61 	bl	80009c8 <HAL_GetTick>
 8003306:	62b8      	str	r0, [r7, #40]	; 0x28

      /* Wait till LSE is disabled */
      while (READ_BIT(RCC->BDCR, RCC_BDCR_LSERDY) != 0U)
 8003308:	e00a      	b.n	8003320 <HAL_RCC_OscConfig+0x868>
      {
        if ((HAL_GetTick() - tickstart) > RCC_LSE_TIMEOUT_VALUE)
 800330a:	f7fd fb5d 	bl	80009c8 <HAL_GetTick>
 800330e:	4602      	mov	r2, r0
 8003310:	6abb      	ldr	r3, [r7, #40]	; 0x28
 8003312:	1ad3      	subs	r3, r2, r3
 8003314:	f241 3288 	movw	r2, #5000	; 0x1388
 8003318:	4293      	cmp	r3, r2
 800331a:	d901      	bls.n	8003320 <HAL_RCC_OscConfig+0x868>
        {
          return HAL_TIMEOUT;
 800331c:	2303      	movs	r3, #3
 800331e:	e2a0      	b.n	8003862 <HAL_RCC_OscConfig+0xdaa>
      while (READ_BIT(RCC->BDCR, RCC_BDCR_LSERDY) != 0U)
 8003320:	4b72      	ldr	r3, [pc, #456]	; (80034ec <HAL_RCC_OscConfig+0xa34>)
 8003322:	f8d3 30f0 	ldr.w	r3, [r3, #240]	; 0xf0
 8003326:	f003 0302 	and.w	r3, r3, #2
 800332a:	2b00      	cmp	r3, #0
 800332c:	d1ed      	bne.n	800330a <HAL_RCC_OscConfig+0x852>
        }
      }

      if (READ_BIT(RCC->BDCR, RCC_BDCR_LSESYSEN) != 0U)
 800332e:	4b6f      	ldr	r3, [pc, #444]	; (80034ec <HAL_RCC_OscConfig+0xa34>)
 8003330:	f8d3 30f0 	ldr.w	r3, [r3, #240]	; 0xf0
 8003334:	f003 0380 	and.w	r3, r3, #128	; 0x80
 8003338:	2b00      	cmp	r3, #0
 800333a:	d01a      	beq.n	8003372 <HAL_RCC_OscConfig+0x8ba>
      {
        /* Reset LSESYSEN once LSE is disabled */
        CLEAR_BIT(RCC->BDCR, RCC_BDCR_LSESYSEN);
 800333c:	4b6b      	ldr	r3, [pc, #428]	; (80034ec <HAL_RCC_OscConfig+0xa34>)
 800333e:	f8d3 30f0 	ldr.w	r3, [r3, #240]	; 0xf0
 8003342:	4a6a      	ldr	r2, [pc, #424]	; (80034ec <HAL_RCC_OscConfig+0xa34>)
 8003344:	f023 0380 	bic.w	r3, r3, #128	; 0x80
 8003348:	f8c2 30f0 	str.w	r3, [r2, #240]	; 0xf0

        /* Wait till LSESYSRDY is cleared */
        while (READ_BIT(RCC->BDCR, RCC_BDCR_LSESYSRDY) != 0U)
 800334c:	e00a      	b.n	8003364 <HAL_RCC_OscConfig+0x8ac>
        {
          if ((HAL_GetTick() - tickstart) > RCC_LSE_TIMEOUT_VALUE)
 800334e:	f7fd fb3b 	bl	80009c8 <HAL_GetTick>
 8003352:	4602      	mov	r2, r0
 8003354:	6abb      	ldr	r3, [r7, #40]	; 0x28
 8003356:	1ad3      	subs	r3, r2, r3
 8003358:	f241 3288 	movw	r2, #5000	; 0x1388
 800335c:	4293      	cmp	r3, r2
 800335e:	d901      	bls.n	8003364 <HAL_RCC_OscConfig+0x8ac>
          {
            return HAL_TIMEOUT;
 8003360:	2303      	movs	r3, #3
 8003362:	e27e      	b.n	8003862 <HAL_RCC_OscConfig+0xdaa>
        while (READ_BIT(RCC->BDCR, RCC_BDCR_LSESYSRDY) != 0U)
 8003364:	4b61      	ldr	r3, [pc, #388]	; (80034ec <HAL_RCC_OscConfig+0xa34>)
 8003366:	f8d3 30f0 	ldr.w	r3, [r3, #240]	; 0xf0
 800336a:	f403 6300 	and.w	r3, r3, #2048	; 0x800
 800336e:	2b00      	cmp	r3, #0
 8003370:	d1ed      	bne.n	800334e <HAL_RCC_OscConfig+0x896>
        }
      }
    }

    /* Restore clock configuration if changed */
    if (pwrclkchanged == SET)
 8003372:	f897 3035 	ldrb.w	r3, [r7, #53]	; 0x35
 8003376:	2b01      	cmp	r3, #1
 8003378:	d107      	bne.n	800338a <HAL_RCC_OscConfig+0x8d2>
    {
      __HAL_RCC_PWR_CLK_DISABLE();
 800337a:	4b5c      	ldr	r3, [pc, #368]	; (80034ec <HAL_RCC_OscConfig+0xa34>)
 800337c:	f8d3 3094 	ldr.w	r3, [r3, #148]	; 0x94
 8003380:	4a5a      	ldr	r2, [pc, #360]	; (80034ec <HAL_RCC_OscConfig+0xa34>)
 8003382:	f023 0304 	bic.w	r3, r3, #4
 8003386:	f8c2 3094 	str.w	r3, [r2, #148]	; 0x94
    }
  }
  /*------------------------------ HSI48 Configuration -----------------------*/
  if (((pRCC_OscInitStruct->OscillatorType) & RCC_OSCILLATORTYPE_HSI48) == RCC_OSCILLATORTYPE_HSI48)
 800338a:	687b      	ldr	r3, [r7, #4]
 800338c:	681b      	ldr	r3, [r3, #0]
 800338e:	f003 0320 	and.w	r3, r3, #32
 8003392:	2b00      	cmp	r3, #0
 8003394:	d036      	beq.n	8003404 <HAL_RCC_OscConfig+0x94c>
  {
    /* Check the parameters */
    assert_param(IS_RCC_HSI48(pRCC_OscInitStruct->HSI48State));

    /* Check the HSI48 State */
    if (pRCC_OscInitStruct->HSI48State != RCC_HSI48_OFF)
 8003396:	687b      	ldr	r3, [r7, #4]
 8003398:	6adb      	ldr	r3, [r3, #44]	; 0x2c
 800339a:	2b00      	cmp	r3, #0
 800339c:	d019      	beq.n	80033d2 <HAL_RCC_OscConfig+0x91a>
    {
      /* Enable the Internal High Speed oscillator (HSI48) */
      __HAL_RCC_HSI48_ENABLE();
 800339e:	4b53      	ldr	r3, [pc, #332]	; (80034ec <HAL_RCC_OscConfig+0xa34>)
 80033a0:	681b      	ldr	r3, [r3, #0]
 80033a2:	4a52      	ldr	r2, [pc, #328]	; (80034ec <HAL_RCC_OscConfig+0xa34>)
 80033a4:	f443 5380 	orr.w	r3, r3, #4096	; 0x1000
 80033a8:	6013      	str	r3, [r2, #0]

      tickstart = HAL_GetTick();
 80033aa:	f7fd fb0d 	bl	80009c8 <HAL_GetTick>
 80033ae:	62b8      	str	r0, [r7, #40]	; 0x28

      /* Wait till HSI48 is ready */
      while (READ_BIT(RCC->CR, RCC_CR_HSI48RDY) == 0U)
 80033b0:	e008      	b.n	80033c4 <HAL_RCC_OscConfig+0x90c>
      {
        if ((HAL_GetTick() - tickstart) > HSI48_TIMEOUT_VALUE)
 80033b2:	f7fd fb09 	bl	80009c8 <HAL_GetTick>
 80033b6:	4602      	mov	r2, r0
 80033b8:	6abb      	ldr	r3, [r7, #40]	; 0x28
 80033ba:	1ad3      	subs	r3, r2, r3
 80033bc:	2b02      	cmp	r3, #2
 80033be:	d901      	bls.n	80033c4 <HAL_RCC_OscConfig+0x90c>
        {
          return HAL_TIMEOUT;
 80033c0:	2303      	movs	r3, #3
 80033c2:	e24e      	b.n	8003862 <HAL_RCC_OscConfig+0xdaa>
      while (READ_BIT(RCC->CR, RCC_CR_HSI48RDY) == 0U)
 80033c4:	4b49      	ldr	r3, [pc, #292]	; (80034ec <HAL_RCC_OscConfig+0xa34>)
 80033c6:	681b      	ldr	r3, [r3, #0]
 80033c8:	f403 5300 	and.w	r3, r3, #8192	; 0x2000
 80033cc:	2b00      	cmp	r3, #0
 80033ce:	d0f0      	beq.n	80033b2 <HAL_RCC_OscConfig+0x8fa>
 80033d0:	e018      	b.n	8003404 <HAL_RCC_OscConfig+0x94c>
      }
    }
    else
    {
      /* Disable the Internal High Speed oscillator (HSI48) */
      __HAL_RCC_HSI48_DISABLE();
 80033d2:	4b46      	ldr	r3, [pc, #280]	; (80034ec <HAL_RCC_OscConfig+0xa34>)
 80033d4:	681b      	ldr	r3, [r3, #0]
 80033d6:	4a45      	ldr	r2, [pc, #276]	; (80034ec <HAL_RCC_OscConfig+0xa34>)
 80033d8:	f423 5380 	bic.w	r3, r3, #4096	; 0x1000
 80033dc:	6013      	str	r3, [r2, #0]

      tickstart = HAL_GetTick();
 80033de:	f7fd faf3 	bl	80009c8 <HAL_GetTick>
 80033e2:	62b8      	str	r0, [r7, #40]	; 0x28

      /* Wait till HSI48 is disabled */
      while (READ_BIT(RCC->CR, RCC_CR_HSI48RDY) != 0U)
 80033e4:	e008      	b.n	80033f8 <HAL_RCC_OscConfig+0x940>
      {
        if ((HAL_GetTick() - tickstart) > HSI48_TIMEOUT_VALUE)
 80033e6:	f7fd faef 	bl	80009c8 <HAL_GetTick>
 80033ea:	4602      	mov	r2, r0
 80033ec:	6abb      	ldr	r3, [r7, #40]	; 0x28
 80033ee:	1ad3      	subs	r3, r2, r3
 80033f0:	2b02      	cmp	r3, #2
 80033f2:	d901      	bls.n	80033f8 <HAL_RCC_OscConfig+0x940>
        {
          return HAL_TIMEOUT;
 80033f4:	2303      	movs	r3, #3
 80033f6:	e234      	b.n	8003862 <HAL_RCC_OscConfig+0xdaa>
      while (READ_BIT(RCC->CR, RCC_CR_HSI48RDY) != 0U)
 80033f8:	4b3c      	ldr	r3, [pc, #240]	; (80034ec <HAL_RCC_OscConfig+0xa34>)
 80033fa:	681b      	ldr	r3, [r3, #0]
 80033fc:	f403 5300 	and.w	r3, r3, #8192	; 0x2000
 8003400:	2b00      	cmp	r3, #0
 8003402:	d1f0      	bne.n	80033e6 <HAL_RCC_OscConfig+0x92e>
      }
    }
  }

  /*------------------------------ SHSI Configuration -----------------------*/
  if (((pRCC_OscInitStruct->OscillatorType) & RCC_OSCILLATORTYPE_SHSI) == RCC_OSCILLATORTYPE_SHSI)
 8003404:	687b      	ldr	r3, [r7, #4]
 8003406:	681b      	ldr	r3, [r3, #0]
 8003408:	f003 0380 	and.w	r3, r3, #128	; 0x80
 800340c:	2b00      	cmp	r3, #0
 800340e:	d036      	beq.n	800347e <HAL_RCC_OscConfig+0x9c6>
  {
    /* Check the parameters */
    assert_param(IS_RCC_SHSI(pRCC_OscInitStruct->SHSIState));

    /* Check the SHSI State */
    if (pRCC_OscInitStruct->SHSIState != RCC_SHSI_OFF)
 8003410:	687b      	ldr	r3, [r7, #4]
 8003412:	6b1b      	ldr	r3, [r3, #48]	; 0x30
 8003414:	2b00      	cmp	r3, #0
 8003416:	d019      	beq.n	800344c <HAL_RCC_OscConfig+0x994>
    {
      /* Enable the Secure Internal High Speed oscillator (SHSI) */
      __HAL_RCC_SHSI_ENABLE();
 8003418:	4b34      	ldr	r3, [pc, #208]	; (80034ec <HAL_RCC_OscConfig+0xa34>)
 800341a:	681b      	ldr	r3, [r3, #0]
 800341c:	4a33      	ldr	r2, [pc, #204]	; (80034ec <HAL_RCC_OscConfig+0xa34>)
 800341e:	f443 4380 	orr.w	r3, r3, #16384	; 0x4000
 8003422:	6013      	str	r3, [r2, #0]

      tickstart = HAL_GetTick();
 8003424:	f7fd fad0 	bl	80009c8 <HAL_GetTick>
 8003428:	62b8      	str	r0, [r7, #40]	; 0x28

      /* Wait till SHSI is ready */
      while (READ_BIT(RCC->CR, RCC_CR_SHSIRDY) == 0U)
 800342a:	e008      	b.n	800343e <HAL_RCC_OscConfig+0x986>
      {
        if ((HAL_GetTick() - tickstart) > SHSI_TIMEOUT_VALUE)
 800342c:	f7fd facc 	bl	80009c8 <HAL_GetTick>
 8003430:	4602      	mov	r2, r0
 8003432:	6abb      	ldr	r3, [r7, #40]	; 0x28
 8003434:	1ad3      	subs	r3, r2, r3
 8003436:	2b02      	cmp	r3, #2
 8003438:	d901      	bls.n	800343e <HAL_RCC_OscConfig+0x986>
        {
          return HAL_TIMEOUT;
 800343a:	2303      	movs	r3, #3
 800343c:	e211      	b.n	8003862 <HAL_RCC_OscConfig+0xdaa>
      while (READ_BIT(RCC->CR, RCC_CR_SHSIRDY) == 0U)
 800343e:	4b2b      	ldr	r3, [pc, #172]	; (80034ec <HAL_RCC_OscConfig+0xa34>)
 8003440:	681b      	ldr	r3, [r3, #0]
 8003442:	f403 4300 	and.w	r3, r3, #32768	; 0x8000
 8003446:	2b00      	cmp	r3, #0
 8003448:	d0f0      	beq.n	800342c <HAL_RCC_OscConfig+0x974>
 800344a:	e018      	b.n	800347e <HAL_RCC_OscConfig+0x9c6>
      }
    }
    else
    {
      /* Disable the Secure Internal High Speed oscillator (SHSI) */
      __HAL_RCC_SHSI_DISABLE();
 800344c:	4b27      	ldr	r3, [pc, #156]	; (80034ec <HAL_RCC_OscConfig+0xa34>)
 800344e:	681b      	ldr	r3, [r3, #0]
 8003450:	4a26      	ldr	r2, [pc, #152]	; (80034ec <HAL_RCC_OscConfig+0xa34>)
 8003452:	f423 4380 	bic.w	r3, r3, #16384	; 0x4000
 8003456:	6013      	str	r3, [r2, #0]

      tickstart = HAL_GetTick();
 8003458:	f7fd fab6 	bl	80009c8 <HAL_GetTick>
 800345c:	62b8      	str	r0, [r7, #40]	; 0x28

      /* Wait till SHSI is disabled */
      while (READ_BIT(RCC->CR, RCC_CR_SHSIRDY) != 0U)
 800345e:	e008      	b.n	8003472 <HAL_RCC_OscConfig+0x9ba>
      {
        if ((HAL_GetTick() - tickstart) > SHSI_TIMEOUT_VALUE)
 8003460:	f7fd fab2 	bl	80009c8 <HAL_GetTick>
 8003464:	4602      	mov	r2, r0
 8003466:	6abb      	ldr	r3, [r7, #40]	; 0x28
 8003468:	1ad3      	subs	r3, r2, r3
 800346a:	2b02      	cmp	r3, #2
 800346c:	d901      	bls.n	8003472 <HAL_RCC_OscConfig+0x9ba>
        {
          return HAL_TIMEOUT;
 800346e:	2303      	movs	r3, #3
 8003470:	e1f7      	b.n	8003862 <HAL_RCC_OscConfig+0xdaa>
      while (READ_BIT(RCC->CR, RCC_CR_SHSIRDY) != 0U)
 8003472:	4b1e      	ldr	r3, [pc, #120]	; (80034ec <HAL_RCC_OscConfig+0xa34>)
 8003474:	681b      	ldr	r3, [r3, #0]
 8003476:	f403 4300 	and.w	r3, r3, #32768	; 0x8000
 800347a:	2b00      	cmp	r3, #0
 800347c:	d1f0      	bne.n	8003460 <HAL_RCC_OscConfig+0x9a8>
        }
      }
    }
  }
  /*------------------------------ MSIK Configuration -----------------------*/
  if (((pRCC_OscInitStruct->OscillatorType) & RCC_OSCILLATORTYPE_MSIK) == RCC_OSCILLATORTYPE_MSIK)
 800347e:	687b      	ldr	r3, [r7, #4]
 8003480:	681b      	ldr	r3, [r3, #0]
 8003482:	f003 0340 	and.w	r3, r3, #64	; 0x40
 8003486:	2b00      	cmp	r3, #0
 8003488:	d07f      	beq.n	800358a <HAL_RCC_OscConfig+0xad2>
    assert_param(IS_RCC_MSIK(pRCC_OscInitStruct->MSIKState));
    assert_param(IS_RCC_MSIK_CLOCK_RANGE(pRCC_OscInitStruct->MSIKClockRange));
    assert_param(IS_RCC_MSICALIBRATION_VALUE(pRCC_OscInitStruct->MSICalibrationValue));

    /* Check the MSIK State */
    if (pRCC_OscInitStruct->MSIKState != RCC_MSIK_OFF)
 800348a:	687b      	ldr	r3, [r7, #4]
 800348c:	6b5b      	ldr	r3, [r3, #52]	; 0x34
 800348e:	2b00      	cmp	r3, #0
 8003490:	d062      	beq.n	8003558 <HAL_RCC_OscConfig+0xaa0>
    {

      /* Selects the Multiple Speed of kernel high speed oscillator (MSIK) clock range .*/
      __HAL_RCC_MSIK_RANGE_CONFIG(pRCC_OscInitStruct->MSIKClockRange);
 8003492:	4b16      	ldr	r3, [pc, #88]	; (80034ec <HAL_RCC_OscConfig+0xa34>)
 8003494:	689b      	ldr	r3, [r3, #8]
 8003496:	4a15      	ldr	r2, [pc, #84]	; (80034ec <HAL_RCC_OscConfig+0xa34>)
 8003498:	f443 0300 	orr.w	r3, r3, #8388608	; 0x800000
 800349c:	6093      	str	r3, [r2, #8]
 800349e:	4b13      	ldr	r3, [pc, #76]	; (80034ec <HAL_RCC_OscConfig+0xa34>)
 80034a0:	689b      	ldr	r3, [r3, #8]
 80034a2:	f023 6270 	bic.w	r2, r3, #251658240	; 0xf000000
 80034a6:	687b      	ldr	r3, [r7, #4]
 80034a8:	6a9b      	ldr	r3, [r3, #40]	; 0x28
 80034aa:	4910      	ldr	r1, [pc, #64]	; (80034ec <HAL_RCC_OscConfig+0xa34>)
 80034ac:	4313      	orrs	r3, r2
 80034ae:	608b      	str	r3, [r1, #8]
      /* Adjusts the Multiple Speed of kernel high speed oscillator (MSIK) calibration value.*/
      __HAL_RCC_MSI_CALIBRATIONVALUE_ADJUST((pRCC_OscInitStruct->MSICalibrationValue), \
 80034b0:	687b      	ldr	r3, [r7, #4]
 80034b2:	6a5b      	ldr	r3, [r3, #36]	; 0x24
 80034b4:	f1b3 4f40 	cmp.w	r3, #3221225472	; 0xc0000000
 80034b8:	d309      	bcc.n	80034ce <HAL_RCC_OscConfig+0xa16>
 80034ba:	4b0c      	ldr	r3, [pc, #48]	; (80034ec <HAL_RCC_OscConfig+0xa34>)
 80034bc:	68db      	ldr	r3, [r3, #12]
 80034be:	f023 021f 	bic.w	r2, r3, #31
 80034c2:	687b      	ldr	r3, [r7, #4]
 80034c4:	6a1b      	ldr	r3, [r3, #32]
 80034c6:	4909      	ldr	r1, [pc, #36]	; (80034ec <HAL_RCC_OscConfig+0xa34>)
 80034c8:	4313      	orrs	r3, r2
 80034ca:	60cb      	str	r3, [r1, #12]
 80034cc:	e02a      	b.n	8003524 <HAL_RCC_OscConfig+0xa6c>
 80034ce:	687b      	ldr	r3, [r7, #4]
 80034d0:	6a5b      	ldr	r3, [r3, #36]	; 0x24
 80034d2:	2b00      	cmp	r3, #0
 80034d4:	da0c      	bge.n	80034f0 <HAL_RCC_OscConfig+0xa38>
 80034d6:	4b05      	ldr	r3, [pc, #20]	; (80034ec <HAL_RCC_OscConfig+0xa34>)
 80034d8:	68db      	ldr	r3, [r3, #12]
 80034da:	f423 7278 	bic.w	r2, r3, #992	; 0x3e0
 80034de:	687b      	ldr	r3, [r7, #4]
 80034e0:	6a1b      	ldr	r3, [r3, #32]
 80034e2:	015b      	lsls	r3, r3, #5
 80034e4:	4901      	ldr	r1, [pc, #4]	; (80034ec <HAL_RCC_OscConfig+0xa34>)
 80034e6:	4313      	orrs	r3, r2
 80034e8:	60cb      	str	r3, [r1, #12]
 80034ea:	e01b      	b.n	8003524 <HAL_RCC_OscConfig+0xa6c>
 80034ec:	46020c00 	.word	0x46020c00
 80034f0:	687b      	ldr	r3, [r7, #4]
 80034f2:	6a5b      	ldr	r3, [r3, #36]	; 0x24
 80034f4:	f1b3 4f80 	cmp.w	r3, #1073741824	; 0x40000000
 80034f8:	d30a      	bcc.n	8003510 <HAL_RCC_OscConfig+0xa58>
 80034fa:	4ba1      	ldr	r3, [pc, #644]	; (8003780 <HAL_RCC_OscConfig+0xcc8>)
 80034fc:	68db      	ldr	r3, [r3, #12]
 80034fe:	f423 42f8 	bic.w	r2, r3, #31744	; 0x7c00
 8003502:	687b      	ldr	r3, [r7, #4]
 8003504:	6a1b      	ldr	r3, [r3, #32]
 8003506:	029b      	lsls	r3, r3, #10
 8003508:	499d      	ldr	r1, [pc, #628]	; (8003780 <HAL_RCC_OscConfig+0xcc8>)
 800350a:	4313      	orrs	r3, r2
 800350c:	60cb      	str	r3, [r1, #12]
 800350e:	e009      	b.n	8003524 <HAL_RCC_OscConfig+0xa6c>
 8003510:	4b9b      	ldr	r3, [pc, #620]	; (8003780 <HAL_RCC_OscConfig+0xcc8>)
 8003512:	68db      	ldr	r3, [r3, #12]
 8003514:	f423 2278 	bic.w	r2, r3, #1015808	; 0xf8000
 8003518:	687b      	ldr	r3, [r7, #4]
 800351a:	6a1b      	ldr	r3, [r3, #32]
 800351c:	03db      	lsls	r3, r3, #15
 800351e:	4998      	ldr	r1, [pc, #608]	; (8003780 <HAL_RCC_OscConfig+0xcc8>)
 8003520:	4313      	orrs	r3, r2
 8003522:	60cb      	str	r3, [r1, #12]
                                            (pRCC_OscInitStruct->MSIClockRange));

      /* Enable the Internal kernel High Speed oscillator (MSIK) */
      __HAL_RCC_MSIK_ENABLE();
 8003524:	4b96      	ldr	r3, [pc, #600]	; (8003780 <HAL_RCC_OscConfig+0xcc8>)
 8003526:	681b      	ldr	r3, [r3, #0]
 8003528:	4a95      	ldr	r2, [pc, #596]	; (8003780 <HAL_RCC_OscConfig+0xcc8>)
 800352a:	f043 0310 	orr.w	r3, r3, #16
 800352e:	6013      	str	r3, [r2, #0]

      tickstart = HAL_GetTick();
 8003530:	f7fd fa4a 	bl	80009c8 <HAL_GetTick>
 8003534:	62b8      	str	r0, [r7, #40]	; 0x28

      /* Wait till MSIK is ready */
      while (READ_BIT(RCC->CR, RCC_CR_MSIKRDY) == 0U)
 8003536:	e008      	b.n	800354a <HAL_RCC_OscConfig+0xa92>
      {
        if ((HAL_GetTick() - tickstart) > MSIK_TIMEOUT_VALUE)
 8003538:	f7fd fa46 	bl	80009c8 <HAL_GetTick>
 800353c:	4602      	mov	r2, r0
 800353e:	6abb      	ldr	r3, [r7, #40]	; 0x28
 8003540:	1ad3      	subs	r3, r2, r3
 8003542:	2b02      	cmp	r3, #2
 8003544:	d901      	bls.n	800354a <HAL_RCC_OscConfig+0xa92>
        {
          return HAL_TIMEOUT;
 8003546:	2303      	movs	r3, #3
 8003548:	e18b      	b.n	8003862 <HAL_RCC_OscConfig+0xdaa>
      while (READ_BIT(RCC->CR, RCC_CR_MSIKRDY) == 0U)
 800354a:	4b8d      	ldr	r3, [pc, #564]	; (8003780 <HAL_RCC_OscConfig+0xcc8>)
 800354c:	681b      	ldr	r3, [r3, #0]
 800354e:	f003 0320 	and.w	r3, r3, #32
 8003552:	2b00      	cmp	r3, #0
 8003554:	d0f0      	beq.n	8003538 <HAL_RCC_OscConfig+0xa80>
 8003556:	e018      	b.n	800358a <HAL_RCC_OscConfig+0xad2>
      }
    }
    else
    {
      /* Disable the Internal High Speed Kernel oscillator (MSIK) */
      __HAL_RCC_MSIK_DISABLE();
 8003558:	4b89      	ldr	r3, [pc, #548]	; (8003780 <HAL_RCC_OscConfig+0xcc8>)
 800355a:	681b      	ldr	r3, [r3, #0]
 800355c:	4a88      	ldr	r2, [pc, #544]	; (8003780 <HAL_RCC_OscConfig+0xcc8>)
 800355e:	f023 0310 	bic.w	r3, r3, #16
 8003562:	6013      	str	r3, [r2, #0]

      tickstart = HAL_GetTick();
 8003564:	f7fd fa30 	bl	80009c8 <HAL_GetTick>
 8003568:	62b8      	str	r0, [r7, #40]	; 0x28

      /* Wait till MSIK is disabled */
      while (READ_BIT(RCC->CR, RCC_CR_MSIKRDY) != 0U)
 800356a:	e008      	b.n	800357e <HAL_RCC_OscConfig+0xac6>
      {
        if ((HAL_GetTick() - tickstart) > MSIK_TIMEOUT_VALUE)
 800356c:	f7fd fa2c 	bl	80009c8 <HAL_GetTick>
 8003570:	4602      	mov	r2, r0
 8003572:	6abb      	ldr	r3, [r7, #40]	; 0x28
 8003574:	1ad3      	subs	r3, r2, r3
 8003576:	2b02      	cmp	r3, #2
 8003578:	d901      	bls.n	800357e <HAL_RCC_OscConfig+0xac6>
        {
          return HAL_TIMEOUT;
 800357a:	2303      	movs	r3, #3
 800357c:	e171      	b.n	8003862 <HAL_RCC_OscConfig+0xdaa>
      while (READ_BIT(RCC->CR, RCC_CR_MSIKRDY) != 0U)
 800357e:	4b80      	ldr	r3, [pc, #512]	; (8003780 <HAL_RCC_OscConfig+0xcc8>)
 8003580:	681b      	ldr	r3, [r3, #0]
 8003582:	f003 0320 	and.w	r3, r3, #32
 8003586:	2b00      	cmp	r3, #0
 8003588:	d1f0      	bne.n	800356c <HAL_RCC_OscConfig+0xab4>
  }
  /*-------------------------------- PLL Configuration -----------------------*/
  /* Check the parameters */
  assert_param(IS_RCC_PLL(pRCC_OscInitStruct->PLL.PLLState));

  if ((pRCC_OscInitStruct->PLL.PLLState) != RCC_PLL_NONE)
 800358a:	687b      	ldr	r3, [r7, #4]
 800358c:	6b9b      	ldr	r3, [r3, #56]	; 0x38
 800358e:	2b00      	cmp	r3, #0
 8003590:	f000 8166 	beq.w	8003860 <HAL_RCC_OscConfig+0xda8>
  {
    FlagStatus  pwrclkchanged = RESET;
 8003594:	2300      	movs	r3, #0
 8003596:	f887 3034 	strb.w	r3, [r7, #52]	; 0x34

    /* Check if the PLL is used as system clock or not */
    if (__HAL_RCC_GET_SYSCLK_SOURCE() != RCC_SYSCLKSOURCE_STATUS_PLLCLK)
 800359a:	4b79      	ldr	r3, [pc, #484]	; (8003780 <HAL_RCC_OscConfig+0xcc8>)
 800359c:	69db      	ldr	r3, [r3, #28]
 800359e:	f003 030c 	and.w	r3, r3, #12
 80035a2:	2b0c      	cmp	r3, #12
 80035a4:	f000 80f2 	beq.w	800378c <HAL_RCC_OscConfig+0xcd4>
    {
      if ((pRCC_OscInitStruct->PLL.PLLState) == RCC_PLL_ON)
 80035a8:	687b      	ldr	r3, [r7, #4]
 80035aa:	6b9b      	ldr	r3, [r3, #56]	; 0x38
 80035ac:	2b02      	cmp	r3, #2
 80035ae:	f040 80c5 	bne.w	800373c <HAL_RCC_OscConfig+0xc84>
        assert_param(IS_RCC_PLLP_VALUE(pRCC_OscInitStruct->PLL.PLLP));
        assert_param(IS_RCC_PLLQ_VALUE(pRCC_OscInitStruct->PLL.PLLQ));
        assert_param(IS_RCC_PLLR_VALUE(pRCC_OscInitStruct->PLL.PLLR));

        /* Disable the main PLL */
        __HAL_RCC_PLL_DISABLE();
 80035b2:	4b73      	ldr	r3, [pc, #460]	; (8003780 <HAL_RCC_OscConfig+0xcc8>)
 80035b4:	681b      	ldr	r3, [r3, #0]
 80035b6:	4a72      	ldr	r2, [pc, #456]	; (8003780 <HAL_RCC_OscConfig+0xcc8>)
 80035b8:	f023 7380 	bic.w	r3, r3, #16777216	; 0x1000000
 80035bc:	6013      	str	r3, [r2, #0]

        tickstart = HAL_GetTick();
 80035be:	f7fd fa03 	bl	80009c8 <HAL_GetTick>
 80035c2:	62b8      	str	r0, [r7, #40]	; 0x28

        /* Wait till PLL is disabled */
        while (READ_BIT(RCC->CR, RCC_CR_PLL1RDY) != 0U)
 80035c4:	e008      	b.n	80035d8 <HAL_RCC_OscConfig+0xb20>
        {
          if ((HAL_GetTick() - tickstart) > PLL_TIMEOUT_VALUE)
 80035c6:	f7fd f9ff 	bl	80009c8 <HAL_GetTick>
 80035ca:	4602      	mov	r2, r0
 80035cc:	6abb      	ldr	r3, [r7, #40]	; 0x28
 80035ce:	1ad3      	subs	r3, r2, r3
 80035d0:	2b02      	cmp	r3, #2
 80035d2:	d901      	bls.n	80035d8 <HAL_RCC_OscConfig+0xb20>
          {
            return HAL_TIMEOUT;
 80035d4:	2303      	movs	r3, #3
 80035d6:	e144      	b.n	8003862 <HAL_RCC_OscConfig+0xdaa>
        while (READ_BIT(RCC->CR, RCC_CR_PLL1RDY) != 0U)
 80035d8:	4b69      	ldr	r3, [pc, #420]	; (8003780 <HAL_RCC_OscConfig+0xcc8>)
 80035da:	681b      	ldr	r3, [r3, #0]
 80035dc:	f003 7300 	and.w	r3, r3, #33554432	; 0x2000000
 80035e0:	2b00      	cmp	r3, #0
 80035e2:	d1f0      	bne.n	80035c6 <HAL_RCC_OscConfig+0xb0e>
          }
        }

        /* Requires to enable write access to Backup Domain of necessary */
        if (__HAL_RCC_PWR_IS_CLK_DISABLED())
 80035e4:	4b66      	ldr	r3, [pc, #408]	; (8003780 <HAL_RCC_OscConfig+0xcc8>)
 80035e6:	f8d3 3094 	ldr.w	r3, [r3, #148]	; 0x94
 80035ea:	f003 0304 	and.w	r3, r3, #4
 80035ee:	2b00      	cmp	r3, #0
 80035f0:	d111      	bne.n	8003616 <HAL_RCC_OscConfig+0xb5e>
        {
          __HAL_RCC_PWR_CLK_ENABLE();
 80035f2:	4b63      	ldr	r3, [pc, #396]	; (8003780 <HAL_RCC_OscConfig+0xcc8>)
 80035f4:	f8d3 3094 	ldr.w	r3, [r3, #148]	; 0x94
 80035f8:	4a61      	ldr	r2, [pc, #388]	; (8003780 <HAL_RCC_OscConfig+0xcc8>)
 80035fa:	f043 0304 	orr.w	r3, r3, #4
 80035fe:	f8c2 3094 	str.w	r3, [r2, #148]	; 0x94
 8003602:	4b5f      	ldr	r3, [pc, #380]	; (8003780 <HAL_RCC_OscConfig+0xcc8>)
 8003604:	f8d3 3094 	ldr.w	r3, [r3, #148]	; 0x94
 8003608:	f003 0304 	and.w	r3, r3, #4
 800360c:	60fb      	str	r3, [r7, #12]
 800360e:	68fb      	ldr	r3, [r7, #12]
          pwrclkchanged = SET;
 8003610:	2301      	movs	r3, #1
 8003612:	f887 3034 	strb.w	r3, [r7, #52]	; 0x34
        }

        /*Disable EPOD to configure PLL1MBOOST*/
        if (READ_BIT(PWR->VOSR, PWR_VOSR_BOOSTEN) == PWR_VOSR_BOOSTEN)
 8003616:	4b5b      	ldr	r3, [pc, #364]	; (8003784 <HAL_RCC_OscConfig+0xccc>)
 8003618:	68db      	ldr	r3, [r3, #12]
 800361a:	f403 2380 	and.w	r3, r3, #262144	; 0x40000
 800361e:	f5b3 2f80 	cmp.w	r3, #262144	; 0x40000
 8003622:	d102      	bne.n	800362a <HAL_RCC_OscConfig+0xb72>
        {
          pwrboosten = SET;
 8003624:	2301      	movs	r3, #1
 8003626:	f887 3037 	strb.w	r3, [r7, #55]	; 0x37
        }
        CLEAR_BIT(PWR->VOSR, PWR_VOSR_BOOSTEN);
 800362a:	4b56      	ldr	r3, [pc, #344]	; (8003784 <HAL_RCC_OscConfig+0xccc>)
 800362c:	68db      	ldr	r3, [r3, #12]
 800362e:	4a55      	ldr	r2, [pc, #340]	; (8003784 <HAL_RCC_OscConfig+0xccc>)
 8003630:	f423 2380 	bic.w	r3, r3, #262144	; 0x40000
 8003634:	60d3      	str	r3, [r2, #12]

        /* Configure the main PLL clock source, multiplication and division factors */
        __HAL_RCC_PLL_CONFIG(pRCC_OscInitStruct->PLL.PLLSource,
 8003636:	4b52      	ldr	r3, [pc, #328]	; (8003780 <HAL_RCC_OscConfig+0xcc8>)
 8003638:	6a9b      	ldr	r3, [r3, #40]	; 0x28
 800363a:	f423 437f 	bic.w	r3, r3, #65280	; 0xff00
 800363e:	f023 0303 	bic.w	r3, r3, #3
 8003642:	687a      	ldr	r2, [r7, #4]
 8003644:	6bd1      	ldr	r1, [r2, #60]	; 0x3c
 8003646:	687a      	ldr	r2, [r7, #4]
 8003648:	6c12      	ldr	r2, [r2, #64]	; 0x40
 800364a:	3a01      	subs	r2, #1
 800364c:	0212      	lsls	r2, r2, #8
 800364e:	4311      	orrs	r1, r2
 8003650:	687a      	ldr	r2, [r7, #4]
 8003652:	6c52      	ldr	r2, [r2, #68]	; 0x44
 8003654:	430a      	orrs	r2, r1
 8003656:	494a      	ldr	r1, [pc, #296]	; (8003780 <HAL_RCC_OscConfig+0xcc8>)
 8003658:	4313      	orrs	r3, r2
 800365a:	628b      	str	r3, [r1, #40]	; 0x28
 800365c:	4b48      	ldr	r3, [pc, #288]	; (8003780 <HAL_RCC_OscConfig+0xcc8>)
 800365e:	6b5a      	ldr	r2, [r3, #52]	; 0x34
 8003660:	4b49      	ldr	r3, [pc, #292]	; (8003788 <HAL_RCC_OscConfig+0xcd0>)
 8003662:	4013      	ands	r3, r2
 8003664:	687a      	ldr	r2, [r7, #4]
 8003666:	6c92      	ldr	r2, [r2, #72]	; 0x48
 8003668:	3a01      	subs	r2, #1
 800366a:	f3c2 0108 	ubfx	r1, r2, #0, #9
 800366e:	687a      	ldr	r2, [r7, #4]
 8003670:	6cd2      	ldr	r2, [r2, #76]	; 0x4c
 8003672:	3a01      	subs	r2, #1
 8003674:	0252      	lsls	r2, r2, #9
 8003676:	b292      	uxth	r2, r2
 8003678:	4311      	orrs	r1, r2
 800367a:	687a      	ldr	r2, [r7, #4]
 800367c:	6d12      	ldr	r2, [r2, #80]	; 0x50
 800367e:	3a01      	subs	r2, #1
 8003680:	0412      	lsls	r2, r2, #16
 8003682:	f402 02fe 	and.w	r2, r2, #8323072	; 0x7f0000
 8003686:	4311      	orrs	r1, r2
 8003688:	687a      	ldr	r2, [r7, #4]
 800368a:	6d52      	ldr	r2, [r2, #84]	; 0x54
 800368c:	3a01      	subs	r2, #1
 800368e:	0612      	lsls	r2, r2, #24
 8003690:	f002 42fe 	and.w	r2, r2, #2130706432	; 0x7f000000
 8003694:	430a      	orrs	r2, r1
 8003696:	493a      	ldr	r1, [pc, #232]	; (8003780 <HAL_RCC_OscConfig+0xcc8>)
 8003698:	4313      	orrs	r3, r2
 800369a:	634b      	str	r3, [r1, #52]	; 0x34
                             pRCC_OscInitStruct->PLL.PLLR);

        assert_param(IS_RCC_PLL_FRACN_VALUE(pRCC_OscInitStruct->PLL.PLLFRACN));

        /* Disable PLL1FRACN  */
        __HAL_RCC_PLL_FRACN_DISABLE();
 800369c:	4b38      	ldr	r3, [pc, #224]	; (8003780 <HAL_RCC_OscConfig+0xcc8>)
 800369e:	6a9b      	ldr	r3, [r3, #40]	; 0x28
 80036a0:	4a37      	ldr	r2, [pc, #220]	; (8003780 <HAL_RCC_OscConfig+0xcc8>)
 80036a2:	f023 0310 	bic.w	r3, r3, #16
 80036a6:	6293      	str	r3, [r2, #40]	; 0x28

        /* Configure PLL  PLL1FRACN */
        __HAL_RCC_PLL_FRACN_CONFIG(pRCC_OscInitStruct->PLL.PLLFRACN);
 80036a8:	687b      	ldr	r3, [r7, #4]
 80036aa:	6ddb      	ldr	r3, [r3, #92]	; 0x5c
 80036ac:	4a34      	ldr	r2, [pc, #208]	; (8003780 <HAL_RCC_OscConfig+0xcc8>)
 80036ae:	00db      	lsls	r3, r3, #3
 80036b0:	6393      	str	r3, [r2, #56]	; 0x38

        /* Enable PLL1FRACN  */
        __HAL_RCC_PLL_FRACN_ENABLE();
 80036b2:	4b33      	ldr	r3, [pc, #204]	; (8003780 <HAL_RCC_OscConfig+0xcc8>)
 80036b4:	6a9b      	ldr	r3, [r3, #40]	; 0x28
 80036b6:	4a32      	ldr	r2, [pc, #200]	; (8003780 <HAL_RCC_OscConfig+0xcc8>)
 80036b8:	f043 0310 	orr.w	r3, r3, #16
 80036bc:	6293      	str	r3, [r2, #40]	; 0x28

        assert_param(IS_RCC_PLLRGE_VALUE(pRCC_OscInitStruct->PLL.PLLRGE));

        /* Select PLL1 input reference frequency range: VCI */
        __HAL_RCC_PLL_VCIRANGE(pRCC_OscInitStruct->PLL.PLLRGE);
 80036be:	4b30      	ldr	r3, [pc, #192]	; (8003780 <HAL_RCC_OscConfig+0xcc8>)
 80036c0:	6a9b      	ldr	r3, [r3, #40]	; 0x28
 80036c2:	f023 020c 	bic.w	r2, r3, #12
 80036c6:	687b      	ldr	r3, [r7, #4]
 80036c8:	6d9b      	ldr	r3, [r3, #88]	; 0x58
 80036ca:	492d      	ldr	r1, [pc, #180]	; (8003780 <HAL_RCC_OscConfig+0xcc8>)
 80036cc:	4313      	orrs	r3, r2
 80036ce:	628b      	str	r3, [r1, #40]	; 0x28

        if (pwrboosten == SET)
 80036d0:	f897 3037 	ldrb.w	r3, [r7, #55]	; 0x37
 80036d4:	2b01      	cmp	r3, #1
 80036d6:	d105      	bne.n	80036e4 <HAL_RCC_OscConfig+0xc2c>
        {
          /* Enable the EPOD to reach max frequency */
          SET_BIT(PWR->VOSR, PWR_VOSR_BOOSTEN);
 80036d8:	4b2a      	ldr	r3, [pc, #168]	; (8003784 <HAL_RCC_OscConfig+0xccc>)
 80036da:	68db      	ldr	r3, [r3, #12]
 80036dc:	4a29      	ldr	r2, [pc, #164]	; (8003784 <HAL_RCC_OscConfig+0xccc>)
 80036de:	f443 2380 	orr.w	r3, r3, #262144	; 0x40000
 80036e2:	60d3      	str	r3, [r2, #12]
        }

        /* Restore clock configuration if changed */
        if (pwrclkchanged == SET)
 80036e4:	f897 3034 	ldrb.w	r3, [r7, #52]	; 0x34
 80036e8:	2b01      	cmp	r3, #1
 80036ea:	d107      	bne.n	80036fc <HAL_RCC_OscConfig+0xc44>
        {
          __HAL_RCC_PWR_CLK_DISABLE();
 80036ec:	4b24      	ldr	r3, [pc, #144]	; (8003780 <HAL_RCC_OscConfig+0xcc8>)
 80036ee:	f8d3 3094 	ldr.w	r3, [r3, #148]	; 0x94
 80036f2:	4a23      	ldr	r2, [pc, #140]	; (8003780 <HAL_RCC_OscConfig+0xcc8>)
 80036f4:	f023 0304 	bic.w	r3, r3, #4
 80036f8:	f8c2 3094 	str.w	r3, [r2, #148]	; 0x94
        }

        /* Enable PLL System Clock output */
        __HAL_RCC_PLLCLKOUT_ENABLE(RCC_PLL1_DIVR);
 80036fc:	4b20      	ldr	r3, [pc, #128]	; (8003780 <HAL_RCC_OscConfig+0xcc8>)
 80036fe:	6a9b      	ldr	r3, [r3, #40]	; 0x28
 8003700:	4a1f      	ldr	r2, [pc, #124]	; (8003780 <HAL_RCC_OscConfig+0xcc8>)
 8003702:	f443 2380 	orr.w	r3, r3, #262144	; 0x40000
 8003706:	6293      	str	r3, [r2, #40]	; 0x28

        /* Enable the main PLL */
        __HAL_RCC_PLL_ENABLE();
 8003708:	4b1d      	ldr	r3, [pc, #116]	; (8003780 <HAL_RCC_OscConfig+0xcc8>)
 800370a:	681b      	ldr	r3, [r3, #0]
 800370c:	4a1c      	ldr	r2, [pc, #112]	; (8003780 <HAL_RCC_OscConfig+0xcc8>)
 800370e:	f043 7380 	orr.w	r3, r3, #16777216	; 0x1000000
 8003712:	6013      	str	r3, [r2, #0]

        tickstart = HAL_GetTick();
 8003714:	f7fd f958 	bl	80009c8 <HAL_GetTick>
 8003718:	62b8      	str	r0, [r7, #40]	; 0x28

        /* Wait till PLL is ready */
        while (READ_BIT(RCC->CR, RCC_CR_PLL1RDY) == 0U)
 800371a:	e008      	b.n	800372e <HAL_RCC_OscConfig+0xc76>
        {
          if ((HAL_GetTick() - tickstart) > PLL_TIMEOUT_VALUE)
 800371c:	f7fd f954 	bl	80009c8 <HAL_GetTick>
 8003720:	4602      	mov	r2, r0
 8003722:	6abb      	ldr	r3, [r7, #40]	; 0x28
 8003724:	1ad3      	subs	r3, r2, r3
 8003726:	2b02      	cmp	r3, #2
 8003728:	d901      	bls.n	800372e <HAL_RCC_OscConfig+0xc76>
          {
            return HAL_TIMEOUT;
 800372a:	2303      	movs	r3, #3
 800372c:	e099      	b.n	8003862 <HAL_RCC_OscConfig+0xdaa>
        while (READ_BIT(RCC->CR, RCC_CR_PLL1RDY) == 0U)
 800372e:	4b14      	ldr	r3, [pc, #80]	; (8003780 <HAL_RCC_OscConfig+0xcc8>)
 8003730:	681b      	ldr	r3, [r3, #0]
 8003732:	f003 7300 	and.w	r3, r3, #33554432	; 0x2000000
 8003736:	2b00      	cmp	r3, #0
 8003738:	d0f0      	beq.n	800371c <HAL_RCC_OscConfig+0xc64>
 800373a:	e091      	b.n	8003860 <HAL_RCC_OscConfig+0xda8>
        }
      }
      else
      {
        /* Disable the main PLL */
        __HAL_RCC_PLL_DISABLE();
 800373c:	4b10      	ldr	r3, [pc, #64]	; (8003780 <HAL_RCC_OscConfig+0xcc8>)
 800373e:	681b      	ldr	r3, [r3, #0]
 8003740:	4a0f      	ldr	r2, [pc, #60]	; (8003780 <HAL_RCC_OscConfig+0xcc8>)
 8003742:	f023 7380 	bic.w	r3, r3, #16777216	; 0x1000000
 8003746:	6013      	str	r3, [r2, #0]

        tickstart = HAL_GetTick();
 8003748:	f7fd f93e 	bl	80009c8 <HAL_GetTick>
 800374c:	62b8      	str	r0, [r7, #40]	; 0x28

        /* Wait till PLL is disabled */
        while (READ_BIT(RCC->CR, RCC_CR_PLL1RDY) != 0U)
 800374e:	e008      	b.n	8003762 <HAL_RCC_OscConfig+0xcaa>
        {
          if ((HAL_GetTick() - tickstart) > PLL_TIMEOUT_VALUE)
 8003750:	f7fd f93a 	bl	80009c8 <HAL_GetTick>
 8003754:	4602      	mov	r2, r0
 8003756:	6abb      	ldr	r3, [r7, #40]	; 0x28
 8003758:	1ad3      	subs	r3, r2, r3
 800375a:	2b02      	cmp	r3, #2
 800375c:	d901      	bls.n	8003762 <HAL_RCC_OscConfig+0xcaa>
          {
            return HAL_TIMEOUT;
 800375e:	2303      	movs	r3, #3
 8003760:	e07f      	b.n	8003862 <HAL_RCC_OscConfig+0xdaa>
        while (READ_BIT(RCC->CR, RCC_CR_PLL1RDY) != 0U)
 8003762:	4b07      	ldr	r3, [pc, #28]	; (8003780 <HAL_RCC_OscConfig+0xcc8>)
 8003764:	681b      	ldr	r3, [r3, #0]
 8003766:	f003 7300 	and.w	r3, r3, #33554432	; 0x2000000
 800376a:	2b00      	cmp	r3, #0
 800376c:	d1f0      	bne.n	8003750 <HAL_RCC_OscConfig+0xc98>
          }
        }

        /* Unselect main PLL clock source and disable main PLL outputs to save power */
        RCC->PLL1CFGR &= ~(RCC_PLL1CFGR_PLL1SRC | RCC_PLL1CFGR_PLL1PEN | RCC_PLL1CFGR_PLL1QEN | RCC_PLL1CFGR_PLL1REN);
 800376e:	4b04      	ldr	r3, [pc, #16]	; (8003780 <HAL_RCC_OscConfig+0xcc8>)
 8003770:	6a9b      	ldr	r3, [r3, #40]	; 0x28
 8003772:	4a03      	ldr	r2, [pc, #12]	; (8003780 <HAL_RCC_OscConfig+0xcc8>)
 8003774:	f423 23e0 	bic.w	r3, r3, #458752	; 0x70000
 8003778:	f023 0303 	bic.w	r3, r3, #3
 800377c:	6293      	str	r3, [r2, #40]	; 0x28
 800377e:	e06f      	b.n	8003860 <HAL_RCC_OscConfig+0xda8>
 8003780:	46020c00 	.word	0x46020c00
 8003784:	46020800 	.word	0x46020800
 8003788:	80800000 	.word	0x80800000
      }
    }
    else
    {
      /* Do not return HAL_ERROR if request repeats the current configuration */
      temp1_pllckcfg = RCC->PLL1CFGR;
 800378c:	4b37      	ldr	r3, [pc, #220]	; (800386c <HAL_RCC_OscConfig+0xdb4>)
 800378e:	6a9b      	ldr	r3, [r3, #40]	; 0x28
 8003790:	61fb      	str	r3, [r7, #28]
      temp2_pllckcfg = RCC->PLL1DIVR;
 8003792:	4b36      	ldr	r3, [pc, #216]	; (800386c <HAL_RCC_OscConfig+0xdb4>)
 8003794:	6b5b      	ldr	r3, [r3, #52]	; 0x34
 8003796:	61bb      	str	r3, [r7, #24]
      if (((pRCC_OscInitStruct->PLL.PLLState) == RCC_PLL_OFF) ||
 8003798:	687b      	ldr	r3, [r7, #4]
 800379a:	6b9b      	ldr	r3, [r3, #56]	; 0x38
 800379c:	2b01      	cmp	r3, #1
 800379e:	d039      	beq.n	8003814 <HAL_RCC_OscConfig+0xd5c>
          (READ_BIT(temp1_pllckcfg, RCC_PLL1CFGR_PLL1SRC) != pRCC_OscInitStruct->PLL.PLLSource) ||
 80037a0:	69fb      	ldr	r3, [r7, #28]
 80037a2:	f003 0203 	and.w	r2, r3, #3
 80037a6:	687b      	ldr	r3, [r7, #4]
 80037a8:	6bdb      	ldr	r3, [r3, #60]	; 0x3c
      if (((pRCC_OscInitStruct->PLL.PLLState) == RCC_PLL_OFF) ||
 80037aa:	429a      	cmp	r2, r3
 80037ac:	d132      	bne.n	8003814 <HAL_RCC_OscConfig+0xd5c>
          ((READ_BIT(temp1_pllckcfg, RCC_PLL1CFGR_PLL1M) >> \
 80037ae:	69fb      	ldr	r3, [r7, #28]
 80037b0:	0a1b      	lsrs	r3, r3, #8
 80037b2:	f003 020f 	and.w	r2, r3, #15
            RCC_PLL1CFGR_PLL1M_Pos) != (pRCC_OscInitStruct->PLL.PLLM - 1U)) ||
 80037b6:	687b      	ldr	r3, [r7, #4]
 80037b8:	6c1b      	ldr	r3, [r3, #64]	; 0x40
 80037ba:	3b01      	subs	r3, #1
          (READ_BIT(temp1_pllckcfg, RCC_PLL1CFGR_PLL1SRC) != pRCC_OscInitStruct->PLL.PLLSource) ||
 80037bc:	429a      	cmp	r2, r3
 80037be:	d129      	bne.n	8003814 <HAL_RCC_OscConfig+0xd5c>
          (READ_BIT(temp1_pllckcfg, RCC_PLL1CFGR_PLL1MBOOST) != pRCC_OscInitStruct->PLL.PLLMBOOST) ||
 80037c0:	69fb      	ldr	r3, [r7, #28]
 80037c2:	f403 4270 	and.w	r2, r3, #61440	; 0xf000
 80037c6:	687b      	ldr	r3, [r7, #4]
 80037c8:	6c5b      	ldr	r3, [r3, #68]	; 0x44
            RCC_PLL1CFGR_PLL1M_Pos) != (pRCC_OscInitStruct->PLL.PLLM - 1U)) ||
 80037ca:	429a      	cmp	r2, r3
 80037cc:	d122      	bne.n	8003814 <HAL_RCC_OscConfig+0xd5c>
          (READ_BIT(temp2_pllckcfg, RCC_PLL1DIVR_PLL1N) != (pRCC_OscInitStruct->PLL.PLLN - 1U)) ||
 80037ce:	69bb      	ldr	r3, [r7, #24]
 80037d0:	f3c3 0208 	ubfx	r2, r3, #0, #9
 80037d4:	687b      	ldr	r3, [r7, #4]
 80037d6:	6c9b      	ldr	r3, [r3, #72]	; 0x48
 80037d8:	3b01      	subs	r3, #1
          (READ_BIT(temp1_pllckcfg, RCC_PLL1CFGR_PLL1MBOOST) != pRCC_OscInitStruct->PLL.PLLMBOOST) ||
 80037da:	429a      	cmp	r2, r3
 80037dc:	d11a      	bne.n	8003814 <HAL_RCC_OscConfig+0xd5c>
          ((READ_BIT(temp2_pllckcfg, RCC_PLL1DIVR_PLL1P) >> \
 80037de:	69bb      	ldr	r3, [r7, #24]
 80037e0:	0a5b      	lsrs	r3, r3, #9
 80037e2:	f003 027f 	and.w	r2, r3, #127	; 0x7f
            RCC_PLL1DIVR_PLL1P_Pos) != (pRCC_OscInitStruct->PLL.PLLP - 1U)) ||
 80037e6:	687b      	ldr	r3, [r7, #4]
 80037e8:	6cdb      	ldr	r3, [r3, #76]	; 0x4c
 80037ea:	3b01      	subs	r3, #1
          (READ_BIT(temp2_pllckcfg, RCC_PLL1DIVR_PLL1N) != (pRCC_OscInitStruct->PLL.PLLN - 1U)) ||
 80037ec:	429a      	cmp	r2, r3
 80037ee:	d111      	bne.n	8003814 <HAL_RCC_OscConfig+0xd5c>
          ((READ_BIT(temp2_pllckcfg, RCC_PLL1DIVR_PLL1Q) >> \
 80037f0:	69bb      	ldr	r3, [r7, #24]
 80037f2:	0c1b      	lsrs	r3, r3, #16
 80037f4:	f003 027f 	and.w	r2, r3, #127	; 0x7f
            RCC_PLL1DIVR_PLL1Q_Pos) != (pRCC_OscInitStruct->PLL.PLLQ - 1U)) ||
 80037f8:	687b      	ldr	r3, [r7, #4]
 80037fa:	6d1b      	ldr	r3, [r3, #80]	; 0x50
 80037fc:	3b01      	subs	r3, #1
            RCC_PLL1DIVR_PLL1P_Pos) != (pRCC_OscInitStruct->PLL.PLLP - 1U)) ||
 80037fe:	429a      	cmp	r2, r3
 8003800:	d108      	bne.n	8003814 <HAL_RCC_OscConfig+0xd5c>
          ((READ_BIT(temp2_pllckcfg, RCC_PLL1DIVR_PLL1R) >> \
 8003802:	69bb      	ldr	r3, [r7, #24]
 8003804:	0e1b      	lsrs	r3, r3, #24
 8003806:	f003 027f 	and.w	r2, r3, #127	; 0x7f
            RCC_PLL1DIVR_PLL1R_Pos) != (pRCC_OscInitStruct->PLL.PLLR - 1U)))
 800380a:	687b      	ldr	r3, [r7, #4]
 800380c:	6d5b      	ldr	r3, [r3, #84]	; 0x54
 800380e:	3b01      	subs	r3, #1
            RCC_PLL1DIVR_PLL1Q_Pos) != (pRCC_OscInitStruct->PLL.PLLQ - 1U)) ||
 8003810:	429a      	cmp	r2, r3
 8003812:	d001      	beq.n	8003818 <HAL_RCC_OscConfig+0xd60>
      {
        return HAL_ERROR;
 8003814:	2301      	movs	r3, #1
 8003816:	e024      	b.n	8003862 <HAL_RCC_OscConfig+0xdaa>
      }

      /* FRACN1 on-the-fly value update */
      if ((READ_BIT(RCC->PLL1FRACR, RCC_PLL1FRACR_PLL1FRACN) >> \
 8003818:	4b14      	ldr	r3, [pc, #80]	; (800386c <HAL_RCC_OscConfig+0xdb4>)
 800381a:	6b9b      	ldr	r3, [r3, #56]	; 0x38
 800381c:	08db      	lsrs	r3, r3, #3
 800381e:	f3c3 020c 	ubfx	r2, r3, #0, #13
           RCC_PLL1FRACR_PLL1FRACN_Pos) != (pRCC_OscInitStruct->PLL.PLLFRACN))
 8003822:	687b      	ldr	r3, [r7, #4]
 8003824:	6ddb      	ldr	r3, [r3, #92]	; 0x5c
      if ((READ_BIT(RCC->PLL1FRACR, RCC_PLL1FRACR_PLL1FRACN) >> \
 8003826:	429a      	cmp	r2, r3
 8003828:	d01a      	beq.n	8003860 <HAL_RCC_OscConfig+0xda8>
      {
        assert_param(IS_RCC_PLL_FRACN_VALUE(pRCC_OscInitStruct->PLL.PLLFRACN));

        /* Disable PLL1FRACN. */
        __HAL_RCC_PLL_FRACN_DISABLE();
 800382a:	4b10      	ldr	r3, [pc, #64]	; (800386c <HAL_RCC_OscConfig+0xdb4>)
 800382c:	6a9b      	ldr	r3, [r3, #40]	; 0x28
 800382e:	4a0f      	ldr	r2, [pc, #60]	; (800386c <HAL_RCC_OscConfig+0xdb4>)
 8003830:	f023 0310 	bic.w	r3, r3, #16
 8003834:	6293      	str	r3, [r2, #40]	; 0x28

        /* Get Start Tick*/
        tickstart = HAL_GetTick();
 8003836:	f7fd f8c7 	bl	80009c8 <HAL_GetTick>
 800383a:	62b8      	str	r0, [r7, #40]	; 0x28

        /* Wait at least 2 CK_REF (PLL1 input source divided by M) period to make sure next latched value
           will be taken into account. */
        while ((HAL_GetTick() - tickstart) < PLL_FRAC_WAIT_VALUE)
 800383c:	bf00      	nop
 800383e:	f7fd f8c3 	bl	80009c8 <HAL_GetTick>
 8003842:	4602      	mov	r2, r0
 8003844:	6abb      	ldr	r3, [r7, #40]	; 0x28
 8003846:	4293      	cmp	r3, r2
 8003848:	d0f9      	beq.n	800383e <HAL_RCC_OscConfig+0xd86>
        {
        }

        /* Configure PLL PLL1FRACN */
        __HAL_RCC_PLL_FRACN_CONFIG(pRCC_OscInitStruct->PLL.PLLFRACN);
 800384a:	687b      	ldr	r3, [r7, #4]
 800384c:	6ddb      	ldr	r3, [r3, #92]	; 0x5c
 800384e:	4a07      	ldr	r2, [pc, #28]	; (800386c <HAL_RCC_OscConfig+0xdb4>)
 8003850:	00db      	lsls	r3, r3, #3
 8003852:	6393      	str	r3, [r2, #56]	; 0x38

        /* Enable PLL1FRACN to latch the new value. */
        __HAL_RCC_PLL_FRACN_ENABLE();
 8003854:	4b05      	ldr	r3, [pc, #20]	; (800386c <HAL_RCC_OscConfig+0xdb4>)
 8003856:	6a9b      	ldr	r3, [r3, #40]	; 0x28
 8003858:	4a04      	ldr	r2, [pc, #16]	; (800386c <HAL_RCC_OscConfig+0xdb4>)
 800385a:	f043 0310 	orr.w	r3, r3, #16
 800385e:	6293      	str	r3, [r2, #40]	; 0x28
      }
    }
  }
  return HAL_OK;
 8003860:	2300      	movs	r3, #0
}
 8003862:	4618      	mov	r0, r3
 8003864:	3738      	adds	r7, #56	; 0x38
 8003866:	46bd      	mov	sp, r7
 8003868:	bd80      	pop	{r7, pc}
 800386a:	bf00      	nop
 800386c:	46020c00 	.word	0x46020c00

08003870 <HAL_RCC_ClockConfig>:
  *         HPRE[3:0] bits to ensure that HCLK not exceed the maximum allowed frequency
  *         (for more details refer to section above "Initialization/de-initialization functions")
  * @retval HAL status
  */
HAL_StatusTypeDef HAL_RCC_ClockConfig(const RCC_ClkInitTypeDef   *const pRCC_ClkInitStruct, uint32_t FLatency)
{
 8003870:	b580      	push	{r7, lr}
 8003872:	b086      	sub	sp, #24
 8003874:	af00      	add	r7, sp, #0
 8003876:	6078      	str	r0, [r7, #4]
 8003878:	6039      	str	r1, [r7, #0]
  HAL_StatusTypeDef status;
  uint32_t tickstart;

  /* Check Null pointer */
  if (pRCC_ClkInitStruct == NULL)
 800387a:	687b      	ldr	r3, [r7, #4]
 800387c:	2b00      	cmp	r3, #0
 800387e:	d101      	bne.n	8003884 <HAL_RCC_ClockConfig+0x14>
  {
    return HAL_ERROR;
 8003880:	2301      	movs	r3, #1
 8003882:	e1d9      	b.n	8003c38 <HAL_RCC_ClockConfig+0x3c8>
  /* To correctly read data from FLASH memory, the number of wait states (LATENCY)
   must be correctly programmed according to the frequency of the CPU clock
   (HCLK) and the supply voltage of the device */

  /* Increasing the number of wait states because of higher CPU frequency */
  if (FLatency > __HAL_FLASH_GET_LATENCY())
 8003884:	4b9b      	ldr	r3, [pc, #620]	; (8003af4 <HAL_RCC_ClockConfig+0x284>)
 8003886:	681b      	ldr	r3, [r3, #0]
 8003888:	f003 030f 	and.w	r3, r3, #15
 800388c:	683a      	ldr	r2, [r7, #0]
 800388e:	429a      	cmp	r2, r3
 8003890:	d910      	bls.n	80038b4 <HAL_RCC_ClockConfig+0x44>
  {
    /* Program the new number of wait states to the LATENCY bits in the FLASH_ACR register */
    __HAL_FLASH_SET_LATENCY(FLatency);
 8003892:	4b98      	ldr	r3, [pc, #608]	; (8003af4 <HAL_RCC_ClockConfig+0x284>)
 8003894:	681b      	ldr	r3, [r3, #0]
 8003896:	f023 020f 	bic.w	r2, r3, #15
 800389a:	4996      	ldr	r1, [pc, #600]	; (8003af4 <HAL_RCC_ClockConfig+0x284>)
 800389c:	683b      	ldr	r3, [r7, #0]
 800389e:	4313      	orrs	r3, r2
 80038a0:	600b      	str	r3, [r1, #0]

    /* Check that the new number of wait states is taken into account to access the Flash
    memory by reading the FLASH_ACR register */
    if (__HAL_FLASH_GET_LATENCY() != FLatency)
 80038a2:	4b94      	ldr	r3, [pc, #592]	; (8003af4 <HAL_RCC_ClockConfig+0x284>)
 80038a4:	681b      	ldr	r3, [r3, #0]
 80038a6:	f003 030f 	and.w	r3, r3, #15
 80038aa:	683a      	ldr	r2, [r7, #0]
 80038ac:	429a      	cmp	r2, r3
 80038ae:	d001      	beq.n	80038b4 <HAL_RCC_ClockConfig+0x44>
    {
      return HAL_ERROR;
 80038b0:	2301      	movs	r3, #1
 80038b2:	e1c1      	b.n	8003c38 <HAL_RCC_ClockConfig+0x3c8>
    }
  }

  /* Increasing the BUS frequency divider */
  /*-------------------------- PCLK3 Configuration ---------------------------*/
  if (((pRCC_ClkInitStruct->ClockType) & RCC_CLOCKTYPE_PCLK3) == RCC_CLOCKTYPE_PCLK3)
 80038b4:	687b      	ldr	r3, [r7, #4]
 80038b6:	681b      	ldr	r3, [r3, #0]
 80038b8:	f003 0310 	and.w	r3, r3, #16
 80038bc:	2b00      	cmp	r3, #0
 80038be:	d010      	beq.n	80038e2 <HAL_RCC_ClockConfig+0x72>
  {
    if ((pRCC_ClkInitStruct->APB3CLKDivider) > (RCC->CFGR3 & RCC_CFGR3_PPRE3))
 80038c0:	687b      	ldr	r3, [r7, #4]
 80038c2:	695a      	ldr	r2, [r3, #20]
 80038c4:	4b8c      	ldr	r3, [pc, #560]	; (8003af8 <HAL_RCC_ClockConfig+0x288>)
 80038c6:	6a5b      	ldr	r3, [r3, #36]	; 0x24
 80038c8:	f003 0370 	and.w	r3, r3, #112	; 0x70
 80038cc:	429a      	cmp	r2, r3
 80038ce:	d908      	bls.n	80038e2 <HAL_RCC_ClockConfig+0x72>
    {
      assert_param(IS_RCC_PCLK(pRCC_ClkInitStruct->APB3CLKDivider));
      MODIFY_REG(RCC->CFGR3, RCC_CFGR3_PPRE3, pRCC_ClkInitStruct->APB3CLKDivider);
 80038d0:	4b89      	ldr	r3, [pc, #548]	; (8003af8 <HAL_RCC_ClockConfig+0x288>)
 80038d2:	6a5b      	ldr	r3, [r3, #36]	; 0x24
 80038d4:	f023 0270 	bic.w	r2, r3, #112	; 0x70
 80038d8:	687b      	ldr	r3, [r7, #4]
 80038da:	695b      	ldr	r3, [r3, #20]
 80038dc:	4986      	ldr	r1, [pc, #536]	; (8003af8 <HAL_RCC_ClockConfig+0x288>)
 80038de:	4313      	orrs	r3, r2
 80038e0:	624b      	str	r3, [r1, #36]	; 0x24
    }
  }
  /*-------------------------- PCLK2 Configuration ---------------------------*/
  if (((pRCC_ClkInitStruct->ClockType) & RCC_CLOCKTYPE_PCLK2) == RCC_CLOCKTYPE_PCLK2)
 80038e2:	687b      	ldr	r3, [r7, #4]
 80038e4:	681b      	ldr	r3, [r3, #0]
 80038e6:	f003 0308 	and.w	r3, r3, #8
 80038ea:	2b00      	cmp	r3, #0
 80038ec:	d012      	beq.n	8003914 <HAL_RCC_ClockConfig+0xa4>
  {
    if ((pRCC_ClkInitStruct->APB2CLKDivider) > ((RCC->CFGR2 & RCC_CFGR2_PPRE2) >> 4))
 80038ee:	687b      	ldr	r3, [r7, #4]
 80038f0:	691a      	ldr	r2, [r3, #16]
 80038f2:	4b81      	ldr	r3, [pc, #516]	; (8003af8 <HAL_RCC_ClockConfig+0x288>)
 80038f4:	6a1b      	ldr	r3, [r3, #32]
 80038f6:	091b      	lsrs	r3, r3, #4
 80038f8:	f003 0370 	and.w	r3, r3, #112	; 0x70
 80038fc:	429a      	cmp	r2, r3
 80038fe:	d909      	bls.n	8003914 <HAL_RCC_ClockConfig+0xa4>
    {
      assert_param(IS_RCC_PCLK(pRCC_ClkInitStruct->APB2CLKDivider));
      MODIFY_REG(RCC->CFGR2, RCC_CFGR2_PPRE2, ((pRCC_ClkInitStruct->APB2CLKDivider) << 4));
 8003900:	4b7d      	ldr	r3, [pc, #500]	; (8003af8 <HAL_RCC_ClockConfig+0x288>)
 8003902:	6a1b      	ldr	r3, [r3, #32]
 8003904:	f423 62e0 	bic.w	r2, r3, #1792	; 0x700
 8003908:	687b      	ldr	r3, [r7, #4]
 800390a:	691b      	ldr	r3, [r3, #16]
 800390c:	011b      	lsls	r3, r3, #4
 800390e:	497a      	ldr	r1, [pc, #488]	; (8003af8 <HAL_RCC_ClockConfig+0x288>)
 8003910:	4313      	orrs	r3, r2
 8003912:	620b      	str	r3, [r1, #32]
    }
  }

  /*-------------------------- PCLK1 Configuration ---------------------------*/
  if (((pRCC_ClkInitStruct->ClockType) & RCC_CLOCKTYPE_PCLK1) == RCC_CLOCKTYPE_PCLK1)
 8003914:	687b      	ldr	r3, [r7, #4]
 8003916:	681b      	ldr	r3, [r3, #0]
 8003918:	f003 0304 	and.w	r3, r3, #4
 800391c:	2b00      	cmp	r3, #0
 800391e:	d010      	beq.n	8003942 <HAL_RCC_ClockConfig+0xd2>
  {
    if ((pRCC_ClkInitStruct->APB1CLKDivider) > (RCC->CFGR2 & RCC_CFGR2_PPRE1))
 8003920:	687b      	ldr	r3, [r7, #4]
 8003922:	68da      	ldr	r2, [r3, #12]
 8003924:	4b74      	ldr	r3, [pc, #464]	; (8003af8 <HAL_RCC_ClockConfig+0x288>)
 8003926:	6a1b      	ldr	r3, [r3, #32]
 8003928:	f003 0370 	and.w	r3, r3, #112	; 0x70
 800392c:	429a      	cmp	r2, r3
 800392e:	d908      	bls.n	8003942 <HAL_RCC_ClockConfig+0xd2>
    {
      assert_param(IS_RCC_PCLK(pRCC_ClkInitStruct->APB1CLKDivider));
      MODIFY_REG(RCC->CFGR2, RCC_CFGR2_PPRE1, pRCC_ClkInitStruct->APB1CLKDivider);
 8003930:	4b71      	ldr	r3, [pc, #452]	; (8003af8 <HAL_RCC_ClockConfig+0x288>)
 8003932:	6a1b      	ldr	r3, [r3, #32]
 8003934:	f023 0270 	bic.w	r2, r3, #112	; 0x70
 8003938:	687b      	ldr	r3, [r7, #4]
 800393a:	68db      	ldr	r3, [r3, #12]
 800393c:	496e      	ldr	r1, [pc, #440]	; (8003af8 <HAL_RCC_ClockConfig+0x288>)
 800393e:	4313      	orrs	r3, r2
 8003940:	620b      	str	r3, [r1, #32]
    }
  }

  /*-------------------------- HCLK Configuration --------------------------*/
  if (((pRCC_ClkInitStruct->ClockType) & RCC_CLOCKTYPE_HCLK) == RCC_CLOCKTYPE_HCLK)
 8003942:	687b      	ldr	r3, [r7, #4]
 8003944:	681b      	ldr	r3, [r3, #0]
 8003946:	f003 0302 	and.w	r3, r3, #2
 800394a:	2b00      	cmp	r3, #0
 800394c:	d010      	beq.n	8003970 <HAL_RCC_ClockConfig+0x100>
  {
    if ((pRCC_ClkInitStruct->AHBCLKDivider) > (RCC->CFGR2 & RCC_CFGR2_HPRE))
 800394e:	687b      	ldr	r3, [r7, #4]
 8003950:	689a      	ldr	r2, [r3, #8]
 8003952:	4b69      	ldr	r3, [pc, #420]	; (8003af8 <HAL_RCC_ClockConfig+0x288>)
 8003954:	6a1b      	ldr	r3, [r3, #32]
 8003956:	f003 030f 	and.w	r3, r3, #15
 800395a:	429a      	cmp	r2, r3
 800395c:	d908      	bls.n	8003970 <HAL_RCC_ClockConfig+0x100>
    {
      assert_param(IS_RCC_HCLK(pRCC_ClkInitStruct->AHBCLKDivider));
      MODIFY_REG(RCC->CFGR2, RCC_CFGR2_HPRE, pRCC_ClkInitStruct->AHBCLKDivider);
 800395e:	4b66      	ldr	r3, [pc, #408]	; (8003af8 <HAL_RCC_ClockConfig+0x288>)
 8003960:	6a1b      	ldr	r3, [r3, #32]
 8003962:	f023 020f 	bic.w	r2, r3, #15
 8003966:	687b      	ldr	r3, [r7, #4]
 8003968:	689b      	ldr	r3, [r3, #8]
 800396a:	4963      	ldr	r1, [pc, #396]	; (8003af8 <HAL_RCC_ClockConfig+0x288>)
 800396c:	4313      	orrs	r3, r2
 800396e:	620b      	str	r3, [r1, #32]
    }
  }

  /*------------------------- SYSCLK Configuration ---------------------------*/
  if (((pRCC_ClkInitStruct->ClockType) & RCC_CLOCKTYPE_SYSCLK) == RCC_CLOCKTYPE_SYSCLK)
 8003970:	687b      	ldr	r3, [r7, #4]
 8003972:	681b      	ldr	r3, [r3, #0]
 8003974:	f003 0301 	and.w	r3, r3, #1
 8003978:	2b00      	cmp	r3, #0
 800397a:	f000 80d2 	beq.w	8003b22 <HAL_RCC_ClockConfig+0x2b2>
  {
    assert_param(IS_RCC_SYSCLKSOURCE(pRCC_ClkInitStruct->SYSCLKSource));
    FlagStatus  pwrclkchanged = RESET;
 800397e:	2300      	movs	r3, #0
 8003980:	75fb      	strb	r3, [r7, #23]

    /* PLL is selected as System Clock Source */
    if (pRCC_ClkInitStruct->SYSCLKSource == RCC_SYSCLKSOURCE_PLLCLK)
 8003982:	687b      	ldr	r3, [r7, #4]
 8003984:	685b      	ldr	r3, [r3, #4]
 8003986:	2b03      	cmp	r3, #3
 8003988:	d143      	bne.n	8003a12 <HAL_RCC_ClockConfig+0x1a2>
    {
      if (__HAL_RCC_PWR_IS_CLK_DISABLED())
 800398a:	4b5b      	ldr	r3, [pc, #364]	; (8003af8 <HAL_RCC_ClockConfig+0x288>)
 800398c:	f8d3 3094 	ldr.w	r3, [r3, #148]	; 0x94
 8003990:	f003 0304 	and.w	r3, r3, #4
 8003994:	2b00      	cmp	r3, #0
 8003996:	d110      	bne.n	80039ba <HAL_RCC_ClockConfig+0x14a>
      {
        __HAL_RCC_PWR_CLK_ENABLE();
 8003998:	4b57      	ldr	r3, [pc, #348]	; (8003af8 <HAL_RCC_ClockConfig+0x288>)
 800399a:	f8d3 3094 	ldr.w	r3, [r3, #148]	; 0x94
 800399e:	4a56      	ldr	r2, [pc, #344]	; (8003af8 <HAL_RCC_ClockConfig+0x288>)
 80039a0:	f043 0304 	orr.w	r3, r3, #4
 80039a4:	f8c2 3094 	str.w	r3, [r2, #148]	; 0x94
 80039a8:	4b53      	ldr	r3, [pc, #332]	; (8003af8 <HAL_RCC_ClockConfig+0x288>)
 80039aa:	f8d3 3094 	ldr.w	r3, [r3, #148]	; 0x94
 80039ae:	f003 0304 	and.w	r3, r3, #4
 80039b2:	60bb      	str	r3, [r7, #8]
 80039b4:	68bb      	ldr	r3, [r7, #8]
        pwrclkchanged = SET;
 80039b6:	2301      	movs	r3, #1
 80039b8:	75fb      	strb	r3, [r7, #23]
      }
      tickstart = HAL_GetTick();
 80039ba:	f7fd f805 	bl	80009c8 <HAL_GetTick>
 80039be:	6138      	str	r0, [r7, #16]
      /* Check if EPOD is enabled */
      if (READ_BIT(PWR->VOSR, PWR_VOSR_BOOSTEN) != 0U)
 80039c0:	4b4e      	ldr	r3, [pc, #312]	; (8003afc <HAL_RCC_ClockConfig+0x28c>)
 80039c2:	68db      	ldr	r3, [r3, #12]
 80039c4:	f403 2380 	and.w	r3, r3, #262144	; 0x40000
 80039c8:	2b00      	cmp	r3, #0
 80039ca:	d00f      	beq.n	80039ec <HAL_RCC_ClockConfig+0x17c>
      {
        /* Wait till BOOST is ready */
        while (READ_BIT(PWR->VOSR, PWR_VOSR_BOOSTRDY) == 0U)
 80039cc:	e008      	b.n	80039e0 <HAL_RCC_ClockConfig+0x170>
        {
          if ((HAL_GetTick() - tickstart) > EPOD_TIMEOUT_VALUE)
 80039ce:	f7fc fffb 	bl	80009c8 <HAL_GetTick>
 80039d2:	4602      	mov	r2, r0
 80039d4:	693b      	ldr	r3, [r7, #16]
 80039d6:	1ad3      	subs	r3, r2, r3
 80039d8:	2b02      	cmp	r3, #2
 80039da:	d901      	bls.n	80039e0 <HAL_RCC_ClockConfig+0x170>
          {
            return HAL_TIMEOUT;
 80039dc:	2303      	movs	r3, #3
 80039de:	e12b      	b.n	8003c38 <HAL_RCC_ClockConfig+0x3c8>
        while (READ_BIT(PWR->VOSR, PWR_VOSR_BOOSTRDY) == 0U)
 80039e0:	4b46      	ldr	r3, [pc, #280]	; (8003afc <HAL_RCC_ClockConfig+0x28c>)
 80039e2:	68db      	ldr	r3, [r3, #12]
 80039e4:	f403 4380 	and.w	r3, r3, #16384	; 0x4000
 80039e8:	2b00      	cmp	r3, #0
 80039ea:	d0f0      	beq.n	80039ce <HAL_RCC_ClockConfig+0x15e>
          }
        }
      }

      /* Restore clock configuration if changed */
      if (pwrclkchanged == SET)
 80039ec:	7dfb      	ldrb	r3, [r7, #23]
 80039ee:	2b01      	cmp	r3, #1
 80039f0:	d107      	bne.n	8003a02 <HAL_RCC_ClockConfig+0x192>
      {
        __HAL_RCC_PWR_CLK_DISABLE();
 80039f2:	4b41      	ldr	r3, [pc, #260]	; (8003af8 <HAL_RCC_ClockConfig+0x288>)
 80039f4:	f8d3 3094 	ldr.w	r3, [r3, #148]	; 0x94
 80039f8:	4a3f      	ldr	r2, [pc, #252]	; (8003af8 <HAL_RCC_ClockConfig+0x288>)
 80039fa:	f023 0304 	bic.w	r3, r3, #4
 80039fe:	f8c2 3094 	str.w	r3, [r2, #148]	; 0x94
      }

      /* Check the PLL ready flag */
      if (READ_BIT(RCC->CR, RCC_CR_PLL1RDY) == 0U)
 8003a02:	4b3d      	ldr	r3, [pc, #244]	; (8003af8 <HAL_RCC_ClockConfig+0x288>)
 8003a04:	681b      	ldr	r3, [r3, #0]
 8003a06:	f003 7300 	and.w	r3, r3, #33554432	; 0x2000000
 8003a0a:	2b00      	cmp	r3, #0
 8003a0c:	d121      	bne.n	8003a52 <HAL_RCC_ClockConfig+0x1e2>
      {
        return HAL_ERROR;
 8003a0e:	2301      	movs	r3, #1
 8003a10:	e112      	b.n	8003c38 <HAL_RCC_ClockConfig+0x3c8>
      }
    }
    else
    {
      /* HSE is selected as System Clock Source */
      if (pRCC_ClkInitStruct->SYSCLKSource == RCC_SYSCLKSOURCE_HSE)
 8003a12:	687b      	ldr	r3, [r7, #4]
 8003a14:	685b      	ldr	r3, [r3, #4]
 8003a16:	2b02      	cmp	r3, #2
 8003a18:	d107      	bne.n	8003a2a <HAL_RCC_ClockConfig+0x1ba>
      {
        /* Check the HSE ready flag */
        if (READ_BIT(RCC->CR, RCC_CR_HSERDY) == 0U)
 8003a1a:	4b37      	ldr	r3, [pc, #220]	; (8003af8 <HAL_RCC_ClockConfig+0x288>)
 8003a1c:	681b      	ldr	r3, [r3, #0]
 8003a1e:	f403 3300 	and.w	r3, r3, #131072	; 0x20000
 8003a22:	2b00      	cmp	r3, #0
 8003a24:	d115      	bne.n	8003a52 <HAL_RCC_ClockConfig+0x1e2>
        {
          return HAL_ERROR;
 8003a26:	2301      	movs	r3, #1
 8003a28:	e106      	b.n	8003c38 <HAL_RCC_ClockConfig+0x3c8>
        }
      }
      /* MSI is selected as System Clock Source */
      else if (pRCC_ClkInitStruct->SYSCLKSource == RCC_SYSCLKSOURCE_MSI)
 8003a2a:	687b      	ldr	r3, [r7, #4]
 8003a2c:	685b      	ldr	r3, [r3, #4]
 8003a2e:	2b00      	cmp	r3, #0
 8003a30:	d107      	bne.n	8003a42 <HAL_RCC_ClockConfig+0x1d2>
      {
        /* Check the MSI ready flag */
        if (READ_BIT(RCC->CR, RCC_CR_MSISRDY) == 0U)
 8003a32:	4b31      	ldr	r3, [pc, #196]	; (8003af8 <HAL_RCC_ClockConfig+0x288>)
 8003a34:	681b      	ldr	r3, [r3, #0]
 8003a36:	f003 0304 	and.w	r3, r3, #4
 8003a3a:	2b00      	cmp	r3, #0
 8003a3c:	d109      	bne.n	8003a52 <HAL_RCC_ClockConfig+0x1e2>
        {
          return HAL_ERROR;
 8003a3e:	2301      	movs	r3, #1
 8003a40:	e0fa      	b.n	8003c38 <HAL_RCC_ClockConfig+0x3c8>
      }
      /* HSI is selected as System Clock Source */
      else
      {
        /* Check the HSI ready flag */
        if (READ_BIT(RCC->CR, RCC_CR_HSIRDY) == 0U)
 8003a42:	4b2d      	ldr	r3, [pc, #180]	; (8003af8 <HAL_RCC_ClockConfig+0x288>)
 8003a44:	681b      	ldr	r3, [r3, #0]
 8003a46:	f403 6380 	and.w	r3, r3, #1024	; 0x400
 8003a4a:	2b00      	cmp	r3, #0
 8003a4c:	d101      	bne.n	8003a52 <HAL_RCC_ClockConfig+0x1e2>
        {
          return HAL_ERROR;
 8003a4e:	2301      	movs	r3, #1
 8003a50:	e0f2      	b.n	8003c38 <HAL_RCC_ClockConfig+0x3c8>
        }
      }
    }

    MODIFY_REG(RCC->CFGR1, RCC_CFGR1_SW, pRCC_ClkInitStruct->SYSCLKSource);
 8003a52:	4b29      	ldr	r3, [pc, #164]	; (8003af8 <HAL_RCC_ClockConfig+0x288>)
 8003a54:	69db      	ldr	r3, [r3, #28]
 8003a56:	f023 0203 	bic.w	r2, r3, #3
 8003a5a:	687b      	ldr	r3, [r7, #4]
 8003a5c:	685b      	ldr	r3, [r3, #4]
 8003a5e:	4926      	ldr	r1, [pc, #152]	; (8003af8 <HAL_RCC_ClockConfig+0x288>)
 8003a60:	4313      	orrs	r3, r2
 8003a62:	61cb      	str	r3, [r1, #28]

    tickstart = HAL_GetTick();
 8003a64:	f7fc ffb0 	bl	80009c8 <HAL_GetTick>
 8003a68:	6138      	str	r0, [r7, #16]

    if (pRCC_ClkInitStruct->SYSCLKSource == RCC_SYSCLKSOURCE_PLLCLK)
 8003a6a:	687b      	ldr	r3, [r7, #4]
 8003a6c:	685b      	ldr	r3, [r3, #4]
 8003a6e:	2b03      	cmp	r3, #3
 8003a70:	d112      	bne.n	8003a98 <HAL_RCC_ClockConfig+0x228>
    {
      while (__HAL_RCC_GET_SYSCLK_SOURCE() != RCC_SYSCLKSOURCE_STATUS_PLLCLK)
 8003a72:	e00a      	b.n	8003a8a <HAL_RCC_ClockConfig+0x21a>
      {
        if ((HAL_GetTick() - tickstart) > CLOCKSWITCH_TIMEOUT_VALUE)
 8003a74:	f7fc ffa8 	bl	80009c8 <HAL_GetTick>
 8003a78:	4602      	mov	r2, r0
 8003a7a:	693b      	ldr	r3, [r7, #16]
 8003a7c:	1ad3      	subs	r3, r2, r3
 8003a7e:	f241 3288 	movw	r2, #5000	; 0x1388
 8003a82:	4293      	cmp	r3, r2
 8003a84:	d901      	bls.n	8003a8a <HAL_RCC_ClockConfig+0x21a>
        {
          return HAL_TIMEOUT;
 8003a86:	2303      	movs	r3, #3
 8003a88:	e0d6      	b.n	8003c38 <HAL_RCC_ClockConfig+0x3c8>
      while (__HAL_RCC_GET_SYSCLK_SOURCE() != RCC_SYSCLKSOURCE_STATUS_PLLCLK)
 8003a8a:	4b1b      	ldr	r3, [pc, #108]	; (8003af8 <HAL_RCC_ClockConfig+0x288>)
 8003a8c:	69db      	ldr	r3, [r3, #28]
 8003a8e:	f003 030c 	and.w	r3, r3, #12
 8003a92:	2b0c      	cmp	r3, #12
 8003a94:	d1ee      	bne.n	8003a74 <HAL_RCC_ClockConfig+0x204>
 8003a96:	e044      	b.n	8003b22 <HAL_RCC_ClockConfig+0x2b2>
        }
      }
    }
    else
    {
      if (pRCC_ClkInitStruct->SYSCLKSource == RCC_SYSCLKSOURCE_HSE)
 8003a98:	687b      	ldr	r3, [r7, #4]
 8003a9a:	685b      	ldr	r3, [r3, #4]
 8003a9c:	2b02      	cmp	r3, #2
 8003a9e:	d112      	bne.n	8003ac6 <HAL_RCC_ClockConfig+0x256>
      {
        while (__HAL_RCC_GET_SYSCLK_SOURCE() != RCC_SYSCLKSOURCE_STATUS_HSE)
 8003aa0:	e00a      	b.n	8003ab8 <HAL_RCC_ClockConfig+0x248>
        {
          if ((HAL_GetTick() - tickstart) > CLOCKSWITCH_TIMEOUT_VALUE)
 8003aa2:	f7fc ff91 	bl	80009c8 <HAL_GetTick>
 8003aa6:	4602      	mov	r2, r0
 8003aa8:	693b      	ldr	r3, [r7, #16]
 8003aaa:	1ad3      	subs	r3, r2, r3
 8003aac:	f241 3288 	movw	r2, #5000	; 0x1388
 8003ab0:	4293      	cmp	r3, r2
 8003ab2:	d901      	bls.n	8003ab8 <HAL_RCC_ClockConfig+0x248>
          {
            return HAL_TIMEOUT;
 8003ab4:	2303      	movs	r3, #3
 8003ab6:	e0bf      	b.n	8003c38 <HAL_RCC_ClockConfig+0x3c8>
        while (__HAL_RCC_GET_SYSCLK_SOURCE() != RCC_SYSCLKSOURCE_STATUS_HSE)
 8003ab8:	4b0f      	ldr	r3, [pc, #60]	; (8003af8 <HAL_RCC_ClockConfig+0x288>)
 8003aba:	69db      	ldr	r3, [r3, #28]
 8003abc:	f003 030c 	and.w	r3, r3, #12
 8003ac0:	2b08      	cmp	r3, #8
 8003ac2:	d1ee      	bne.n	8003aa2 <HAL_RCC_ClockConfig+0x232>
 8003ac4:	e02d      	b.n	8003b22 <HAL_RCC_ClockConfig+0x2b2>
          }
        }
      }
      else if (pRCC_ClkInitStruct->SYSCLKSource == RCC_SYSCLKSOURCE_MSI)
 8003ac6:	687b      	ldr	r3, [r7, #4]
 8003ac8:	685b      	ldr	r3, [r3, #4]
 8003aca:	2b00      	cmp	r3, #0
 8003acc:	d123      	bne.n	8003b16 <HAL_RCC_ClockConfig+0x2a6>
      {
        while (__HAL_RCC_GET_SYSCLK_SOURCE() != RCC_SYSCLKSOURCE_STATUS_MSI)
 8003ace:	e00a      	b.n	8003ae6 <HAL_RCC_ClockConfig+0x276>
        {
          if ((HAL_GetTick() - tickstart) > CLOCKSWITCH_TIMEOUT_VALUE)
 8003ad0:	f7fc ff7a 	bl	80009c8 <HAL_GetTick>
 8003ad4:	4602      	mov	r2, r0
 8003ad6:	693b      	ldr	r3, [r7, #16]
 8003ad8:	1ad3      	subs	r3, r2, r3
 8003ada:	f241 3288 	movw	r2, #5000	; 0x1388
 8003ade:	4293      	cmp	r3, r2
 8003ae0:	d901      	bls.n	8003ae6 <HAL_RCC_ClockConfig+0x276>
          {
            return HAL_TIMEOUT;
 8003ae2:	2303      	movs	r3, #3
 8003ae4:	e0a8      	b.n	8003c38 <HAL_RCC_ClockConfig+0x3c8>
        while (__HAL_RCC_GET_SYSCLK_SOURCE() != RCC_SYSCLKSOURCE_STATUS_MSI)
 8003ae6:	4b04      	ldr	r3, [pc, #16]	; (8003af8 <HAL_RCC_ClockConfig+0x288>)
 8003ae8:	69db      	ldr	r3, [r3, #28]
 8003aea:	f003 030c 	and.w	r3, r3, #12
 8003aee:	2b00      	cmp	r3, #0
 8003af0:	d1ee      	bne.n	8003ad0 <HAL_RCC_ClockConfig+0x260>
 8003af2:	e016      	b.n	8003b22 <HAL_RCC_ClockConfig+0x2b2>
 8003af4:	40022000 	.word	0x40022000
 8003af8:	46020c00 	.word	0x46020c00
 8003afc:	46020800 	.word	0x46020800
      }
      else
      {
        while (__HAL_RCC_GET_SYSCLK_SOURCE() != RCC_SYSCLKSOURCE_STATUS_HSI)
        {
          if ((HAL_GetTick() - tickstart) > CLOCKSWITCH_TIMEOUT_VALUE)
 8003b00:	f7fc ff62 	bl	80009c8 <HAL_GetTick>
 8003b04:	4602      	mov	r2, r0
 8003b06:	693b      	ldr	r3, [r7, #16]
 8003b08:	1ad3      	subs	r3, r2, r3
 8003b0a:	f241 3288 	movw	r2, #5000	; 0x1388
 8003b0e:	4293      	cmp	r3, r2
 8003b10:	d901      	bls.n	8003b16 <HAL_RCC_ClockConfig+0x2a6>
          {
            return HAL_TIMEOUT;
 8003b12:	2303      	movs	r3, #3
 8003b14:	e090      	b.n	8003c38 <HAL_RCC_ClockConfig+0x3c8>
        while (__HAL_RCC_GET_SYSCLK_SOURCE() != RCC_SYSCLKSOURCE_STATUS_HSI)
 8003b16:	4b4a      	ldr	r3, [pc, #296]	; (8003c40 <HAL_RCC_ClockConfig+0x3d0>)
 8003b18:	69db      	ldr	r3, [r3, #28]
 8003b1a:	f003 030c 	and.w	r3, r3, #12
 8003b1e:	2b04      	cmp	r3, #4
 8003b20:	d1ee      	bne.n	8003b00 <HAL_RCC_ClockConfig+0x290>
    }
  }

  /* Decreasing the BUS frequency divider */
  /*-------------------------- HCLK Configuration --------------------------*/
  if (((pRCC_ClkInitStruct->ClockType) & RCC_CLOCKTYPE_HCLK) == RCC_CLOCKTYPE_HCLK)
 8003b22:	687b      	ldr	r3, [r7, #4]
 8003b24:	681b      	ldr	r3, [r3, #0]
 8003b26:	f003 0302 	and.w	r3, r3, #2
 8003b2a:	2b00      	cmp	r3, #0
 8003b2c:	d010      	beq.n	8003b50 <HAL_RCC_ClockConfig+0x2e0>
  {
    if ((pRCC_ClkInitStruct->AHBCLKDivider) < (RCC->CFGR2 & RCC_CFGR2_HPRE))
 8003b2e:	687b      	ldr	r3, [r7, #4]
 8003b30:	689a      	ldr	r2, [r3, #8]
 8003b32:	4b43      	ldr	r3, [pc, #268]	; (8003c40 <HAL_RCC_ClockConfig+0x3d0>)
 8003b34:	6a1b      	ldr	r3, [r3, #32]
 8003b36:	f003 030f 	and.w	r3, r3, #15
 8003b3a:	429a      	cmp	r2, r3
 8003b3c:	d208      	bcs.n	8003b50 <HAL_RCC_ClockConfig+0x2e0>
    {
      assert_param(IS_RCC_HCLK(pRCC_ClkInitStruct->AHBCLKDivider));
      MODIFY_REG(RCC->CFGR2, RCC_CFGR2_HPRE, pRCC_ClkInitStruct->AHBCLKDivider);
 8003b3e:	4b40      	ldr	r3, [pc, #256]	; (8003c40 <HAL_RCC_ClockConfig+0x3d0>)
 8003b40:	6a1b      	ldr	r3, [r3, #32]
 8003b42:	f023 020f 	bic.w	r2, r3, #15
 8003b46:	687b      	ldr	r3, [r7, #4]
 8003b48:	689b      	ldr	r3, [r3, #8]
 8003b4a:	493d      	ldr	r1, [pc, #244]	; (8003c40 <HAL_RCC_ClockConfig+0x3d0>)
 8003b4c:	4313      	orrs	r3, r2
 8003b4e:	620b      	str	r3, [r1, #32]
    }
  }

  /* Decreasing the number of wait states because of lower CPU frequency */
  if (FLatency < __HAL_FLASH_GET_LATENCY())
 8003b50:	4b3c      	ldr	r3, [pc, #240]	; (8003c44 <HAL_RCC_ClockConfig+0x3d4>)
 8003b52:	681b      	ldr	r3, [r3, #0]
 8003b54:	f003 030f 	and.w	r3, r3, #15
 8003b58:	683a      	ldr	r2, [r7, #0]
 8003b5a:	429a      	cmp	r2, r3
 8003b5c:	d210      	bcs.n	8003b80 <HAL_RCC_ClockConfig+0x310>
  {
    /* Program the new number of wait states to the LATENCY bits in the FLASH_ACR register */
    __HAL_FLASH_SET_LATENCY(FLatency);
 8003b5e:	4b39      	ldr	r3, [pc, #228]	; (8003c44 <HAL_RCC_ClockConfig+0x3d4>)
 8003b60:	681b      	ldr	r3, [r3, #0]
 8003b62:	f023 020f 	bic.w	r2, r3, #15
 8003b66:	4937      	ldr	r1, [pc, #220]	; (8003c44 <HAL_RCC_ClockConfig+0x3d4>)
 8003b68:	683b      	ldr	r3, [r7, #0]
 8003b6a:	4313      	orrs	r3, r2
 8003b6c:	600b      	str	r3, [r1, #0]

    /* Check that the new number of wait states is taken into account to access the Flash
    memory by reading the FLASH_ACR register */
    if (__HAL_FLASH_GET_LATENCY() != FLatency)
 8003b6e:	4b35      	ldr	r3, [pc, #212]	; (8003c44 <HAL_RCC_ClockConfig+0x3d4>)
 8003b70:	681b      	ldr	r3, [r3, #0]
 8003b72:	f003 030f 	and.w	r3, r3, #15
 8003b76:	683a      	ldr	r2, [r7, #0]
 8003b78:	429a      	cmp	r2, r3
 8003b7a:	d001      	beq.n	8003b80 <HAL_RCC_ClockConfig+0x310>
    {
      return HAL_ERROR;
 8003b7c:	2301      	movs	r3, #1
 8003b7e:	e05b      	b.n	8003c38 <HAL_RCC_ClockConfig+0x3c8>
    }
  }

  /*-------------------------- PCLK1 Configuration ---------------------------*/
  if (((pRCC_ClkInitStruct->ClockType) & RCC_CLOCKTYPE_PCLK1) == RCC_CLOCKTYPE_PCLK1)
 8003b80:	687b      	ldr	r3, [r7, #4]
 8003b82:	681b      	ldr	r3, [r3, #0]
 8003b84:	f003 0304 	and.w	r3, r3, #4
 8003b88:	2b00      	cmp	r3, #0
 8003b8a:	d010      	beq.n	8003bae <HAL_RCC_ClockConfig+0x33e>
  {
    if ((pRCC_ClkInitStruct->APB1CLKDivider) < (RCC->CFGR2 & RCC_CFGR2_PPRE1))
 8003b8c:	687b      	ldr	r3, [r7, #4]
 8003b8e:	68da      	ldr	r2, [r3, #12]
 8003b90:	4b2b      	ldr	r3, [pc, #172]	; (8003c40 <HAL_RCC_ClockConfig+0x3d0>)
 8003b92:	6a1b      	ldr	r3, [r3, #32]
 8003b94:	f003 0370 	and.w	r3, r3, #112	; 0x70
 8003b98:	429a      	cmp	r2, r3
 8003b9a:	d208      	bcs.n	8003bae <HAL_RCC_ClockConfig+0x33e>
    {
      assert_param(IS_RCC_PCLK(pRCC_ClkInitStruct->APB1CLKDivider));
      MODIFY_REG(RCC->CFGR2, RCC_CFGR2_PPRE1, pRCC_ClkInitStruct->APB1CLKDivider);
 8003b9c:	4b28      	ldr	r3, [pc, #160]	; (8003c40 <HAL_RCC_ClockConfig+0x3d0>)
 8003b9e:	6a1b      	ldr	r3, [r3, #32]
 8003ba0:	f023 0270 	bic.w	r2, r3, #112	; 0x70
 8003ba4:	687b      	ldr	r3, [r7, #4]
 8003ba6:	68db      	ldr	r3, [r3, #12]
 8003ba8:	4925      	ldr	r1, [pc, #148]	; (8003c40 <HAL_RCC_ClockConfig+0x3d0>)
 8003baa:	4313      	orrs	r3, r2
 8003bac:	620b      	str	r3, [r1, #32]
    }
  }

  /*-------------------------- PCLK2 Configuration ---------------------------*/
  if (((pRCC_ClkInitStruct->ClockType) & RCC_CLOCKTYPE_PCLK2) == RCC_CLOCKTYPE_PCLK2)
 8003bae:	687b      	ldr	r3, [r7, #4]
 8003bb0:	681b      	ldr	r3, [r3, #0]
 8003bb2:	f003 0308 	and.w	r3, r3, #8
 8003bb6:	2b00      	cmp	r3, #0
 8003bb8:	d012      	beq.n	8003be0 <HAL_RCC_ClockConfig+0x370>
  {
    if ((pRCC_ClkInitStruct->APB2CLKDivider) < ((RCC->CFGR2 & RCC_CFGR2_PPRE2) >> 4))
 8003bba:	687b      	ldr	r3, [r7, #4]
 8003bbc:	691a      	ldr	r2, [r3, #16]
 8003bbe:	4b20      	ldr	r3, [pc, #128]	; (8003c40 <HAL_RCC_ClockConfig+0x3d0>)
 8003bc0:	6a1b      	ldr	r3, [r3, #32]
 8003bc2:	091b      	lsrs	r3, r3, #4
 8003bc4:	f003 0370 	and.w	r3, r3, #112	; 0x70
 8003bc8:	429a      	cmp	r2, r3
 8003bca:	d209      	bcs.n	8003be0 <HAL_RCC_ClockConfig+0x370>
    {
      assert_param(IS_RCC_PCLK(pRCC_ClkInitStruct->APB2CLKDivider));
      MODIFY_REG(RCC->CFGR2, RCC_CFGR2_PPRE2, ((pRCC_ClkInitStruct->APB2CLKDivider) << 4));
 8003bcc:	4b1c      	ldr	r3, [pc, #112]	; (8003c40 <HAL_RCC_ClockConfig+0x3d0>)
 8003bce:	6a1b      	ldr	r3, [r3, #32]
 8003bd0:	f423 62e0 	bic.w	r2, r3, #1792	; 0x700
 8003bd4:	687b      	ldr	r3, [r7, #4]
 8003bd6:	691b      	ldr	r3, [r3, #16]
 8003bd8:	011b      	lsls	r3, r3, #4
 8003bda:	4919      	ldr	r1, [pc, #100]	; (8003c40 <HAL_RCC_ClockConfig+0x3d0>)
 8003bdc:	4313      	orrs	r3, r2
 8003bde:	620b      	str	r3, [r1, #32]
    }
  }

  /*-------------------------- PCLK3 Configuration ---------------------------*/
  if (((pRCC_ClkInitStruct->ClockType) & RCC_CLOCKTYPE_PCLK3) == RCC_CLOCKTYPE_PCLK3)
 8003be0:	687b      	ldr	r3, [r7, #4]
 8003be2:	681b      	ldr	r3, [r3, #0]
 8003be4:	f003 0310 	and.w	r3, r3, #16
 8003be8:	2b00      	cmp	r3, #0
 8003bea:	d010      	beq.n	8003c0e <HAL_RCC_ClockConfig+0x39e>
  {
    if ((pRCC_ClkInitStruct->APB3CLKDivider) < (RCC->CFGR3 & RCC_CFGR3_PPRE3))
 8003bec:	687b      	ldr	r3, [r7, #4]
 8003bee:	695a      	ldr	r2, [r3, #20]
 8003bf0:	4b13      	ldr	r3, [pc, #76]	; (8003c40 <HAL_RCC_ClockConfig+0x3d0>)
 8003bf2:	6a5b      	ldr	r3, [r3, #36]	; 0x24
 8003bf4:	f003 0370 	and.w	r3, r3, #112	; 0x70
 8003bf8:	429a      	cmp	r2, r3
 8003bfa:	d208      	bcs.n	8003c0e <HAL_RCC_ClockConfig+0x39e>
    {
      assert_param(IS_RCC_PCLK(pRCC_ClkInitStruct->APB3CLKDivider));
      MODIFY_REG(RCC->CFGR3, RCC_CFGR3_PPRE3, (pRCC_ClkInitStruct->APB3CLKDivider));
 8003bfc:	4b10      	ldr	r3, [pc, #64]	; (8003c40 <HAL_RCC_ClockConfig+0x3d0>)
 8003bfe:	6a5b      	ldr	r3, [r3, #36]	; 0x24
 8003c00:	f023 0270 	bic.w	r2, r3, #112	; 0x70
 8003c04:	687b      	ldr	r3, [r7, #4]
 8003c06:	695b      	ldr	r3, [r3, #20]
 8003c08:	490d      	ldr	r1, [pc, #52]	; (8003c40 <HAL_RCC_ClockConfig+0x3d0>)
 8003c0a:	4313      	orrs	r3, r2
 8003c0c:	624b      	str	r3, [r1, #36]	; 0x24
    }
  }

  /* Update the SystemCoreClock global variable */
  SystemCoreClock = HAL_RCC_GetSysClockFreq() >> AHBPrescTable[(RCC->CFGR2 & RCC_CFGR2_HPRE) >> RCC_CFGR2_HPRE_Pos];
 8003c0e:	f000 f821 	bl	8003c54 <HAL_RCC_GetSysClockFreq>
 8003c12:	4602      	mov	r2, r0
 8003c14:	4b0a      	ldr	r3, [pc, #40]	; (8003c40 <HAL_RCC_ClockConfig+0x3d0>)
 8003c16:	6a1b      	ldr	r3, [r3, #32]
 8003c18:	f003 030f 	and.w	r3, r3, #15
 8003c1c:	490a      	ldr	r1, [pc, #40]	; (8003c48 <HAL_RCC_ClockConfig+0x3d8>)
 8003c1e:	5ccb      	ldrb	r3, [r1, r3]
 8003c20:	fa22 f303 	lsr.w	r3, r2, r3
 8003c24:	4a09      	ldr	r2, [pc, #36]	; (8003c4c <HAL_RCC_ClockConfig+0x3dc>)
 8003c26:	6013      	str	r3, [r2, #0]

  /* Configure the source of time base considering new system clocks settings*/
  status = HAL_InitTick(uwTickPrio);
 8003c28:	4b09      	ldr	r3, [pc, #36]	; (8003c50 <HAL_RCC_ClockConfig+0x3e0>)
 8003c2a:	681b      	ldr	r3, [r3, #0]
 8003c2c:	4618      	mov	r0, r3
 8003c2e:	f7fc fe81 	bl	8000934 <HAL_InitTick>
 8003c32:	4603      	mov	r3, r0
 8003c34:	73fb      	strb	r3, [r7, #15]

  return status;
 8003c36:	7bfb      	ldrb	r3, [r7, #15]
}
 8003c38:	4618      	mov	r0, r3
 8003c3a:	3718      	adds	r7, #24
 8003c3c:	46bd      	mov	sp, r7
 8003c3e:	bd80      	pop	{r7, pc}
 8003c40:	46020c00 	.word	0x46020c00
 8003c44:	40022000 	.word	0x40022000
 8003c48:	08004f74 	.word	0x08004f74
 8003c4c:	20000108 	.word	0x20000108
 8003c50:	2000010c 	.word	0x2000010c

08003c54 <HAL_RCC_GetSysClockFreq>:
  * @note   Each time SYSCLK changes, this function must be called to update the
  *         right SYSCLK value. Otherwise, any configuration based on this function will be incorrect.
  * @retval SYSCLK frequency
  */
uint32_t HAL_RCC_GetSysClockFreq(void)
{
 8003c54:	b480      	push	{r7}
 8003c56:	b08b      	sub	sp, #44	; 0x2c
 8003c58:	af00      	add	r7, sp, #0
  uint32_t msirange = 0U;
 8003c5a:	2300      	movs	r3, #0
 8003c5c:	627b      	str	r3, [r7, #36]	; 0x24
  uint32_t pllsource;
  uint32_t pllr;
  uint32_t pllm;
  uint32_t pllfracen;
  uint32_t sysclockfreq = 0U;
 8003c5e:	2300      	movs	r3, #0
 8003c60:	623b      	str	r3, [r7, #32]
  uint32_t sysclk_source;
  uint32_t pll_oscsource;
  float_t fracn1;
  float_t pllvco;

  sysclk_source = __HAL_RCC_GET_SYSCLK_SOURCE();
 8003c62:	4b78      	ldr	r3, [pc, #480]	; (8003e44 <HAL_RCC_GetSysClockFreq+0x1f0>)
 8003c64:	69db      	ldr	r3, [r3, #28]
 8003c66:	f003 030c 	and.w	r3, r3, #12
 8003c6a:	61bb      	str	r3, [r7, #24]
  pll_oscsource = __HAL_RCC_GET_PLL_OSCSOURCE();
 8003c6c:	4b75      	ldr	r3, [pc, #468]	; (8003e44 <HAL_RCC_GetSysClockFreq+0x1f0>)
 8003c6e:	6a9b      	ldr	r3, [r3, #40]	; 0x28
 8003c70:	f003 0303 	and.w	r3, r3, #3
 8003c74:	617b      	str	r3, [r7, #20]

  if ((sysclk_source == RCC_SYSCLKSOURCE_STATUS_MSI) ||
 8003c76:	69bb      	ldr	r3, [r7, #24]
 8003c78:	2b00      	cmp	r3, #0
 8003c7a:	d005      	beq.n	8003c88 <HAL_RCC_GetSysClockFreq+0x34>
 8003c7c:	69bb      	ldr	r3, [r7, #24]
 8003c7e:	2b0c      	cmp	r3, #12
 8003c80:	d121      	bne.n	8003cc6 <HAL_RCC_GetSysClockFreq+0x72>
      ((sysclk_source == RCC_SYSCLKSOURCE_STATUS_PLLCLK) && (pll_oscsource == RCC_PLLSOURCE_MSI)))
 8003c82:	697b      	ldr	r3, [r7, #20]
 8003c84:	2b01      	cmp	r3, #1
 8003c86:	d11e      	bne.n	8003cc6 <HAL_RCC_GetSysClockFreq+0x72>
  {
    /* MSI or PLL with MSI source used as system clock source */

    /* Get SYSCLK source */
    if (READ_BIT(RCC->ICSCR1, RCC_ICSCR1_MSIRGSEL) == 0U)
 8003c88:	4b6e      	ldr	r3, [pc, #440]	; (8003e44 <HAL_RCC_GetSysClockFreq+0x1f0>)
 8003c8a:	689b      	ldr	r3, [r3, #8]
 8003c8c:	f403 0300 	and.w	r3, r3, #8388608	; 0x800000
 8003c90:	2b00      	cmp	r3, #0
 8003c92:	d107      	bne.n	8003ca4 <HAL_RCC_GetSysClockFreq+0x50>
    {
      /* MSISRANGE from RCC_CSR applies */
      msirange = (RCC->CSR & RCC_CSR_MSISSRANGE) >> RCC_CSR_MSISSRANGE_Pos;
 8003c94:	4b6b      	ldr	r3, [pc, #428]	; (8003e44 <HAL_RCC_GetSysClockFreq+0x1f0>)
 8003c96:	f8d3 30f4 	ldr.w	r3, [r3, #244]	; 0xf4
 8003c9a:	0b1b      	lsrs	r3, r3, #12
 8003c9c:	f003 030f 	and.w	r3, r3, #15
 8003ca0:	627b      	str	r3, [r7, #36]	; 0x24
 8003ca2:	e005      	b.n	8003cb0 <HAL_RCC_GetSysClockFreq+0x5c>
    }
    else
    {
      /* MSIRANGE from RCC_CR applies */
      msirange = (RCC->ICSCR1 & RCC_ICSCR1_MSISRANGE) >> RCC_ICSCR1_MSISRANGE_Pos;
 8003ca4:	4b67      	ldr	r3, [pc, #412]	; (8003e44 <HAL_RCC_GetSysClockFreq+0x1f0>)
 8003ca6:	689b      	ldr	r3, [r3, #8]
 8003ca8:	0f1b      	lsrs	r3, r3, #28
 8003caa:	f003 030f 	and.w	r3, r3, #15
 8003cae:	627b      	str	r3, [r7, #36]	; 0x24
    }
    /*MSI frequency range in HZ*/
    msirange = MSIRangeTable[msirange];
 8003cb0:	4a65      	ldr	r2, [pc, #404]	; (8003e48 <HAL_RCC_GetSysClockFreq+0x1f4>)
 8003cb2:	6a7b      	ldr	r3, [r7, #36]	; 0x24
 8003cb4:	f852 3023 	ldr.w	r3, [r2, r3, lsl #2]
 8003cb8:	627b      	str	r3, [r7, #36]	; 0x24

    if (sysclk_source == RCC_SYSCLKSOURCE_STATUS_MSI)
 8003cba:	69bb      	ldr	r3, [r7, #24]
 8003cbc:	2b00      	cmp	r3, #0
 8003cbe:	d110      	bne.n	8003ce2 <HAL_RCC_GetSysClockFreq+0x8e>
    {
      /* MSI used as system clock source */
      sysclockfreq = msirange;
 8003cc0:	6a7b      	ldr	r3, [r7, #36]	; 0x24
 8003cc2:	623b      	str	r3, [r7, #32]
    if (sysclk_source == RCC_SYSCLKSOURCE_STATUS_MSI)
 8003cc4:	e00d      	b.n	8003ce2 <HAL_RCC_GetSysClockFreq+0x8e>
    }
  }
  else if (__HAL_RCC_GET_SYSCLK_SOURCE() == RCC_SYSCLKSOURCE_STATUS_HSI)
 8003cc6:	4b5f      	ldr	r3, [pc, #380]	; (8003e44 <HAL_RCC_GetSysClockFreq+0x1f0>)
 8003cc8:	69db      	ldr	r3, [r3, #28]
 8003cca:	f003 030c 	and.w	r3, r3, #12
 8003cce:	2b04      	cmp	r3, #4
 8003cd0:	d102      	bne.n	8003cd8 <HAL_RCC_GetSysClockFreq+0x84>
  {
    /* HSI used as system clock source */
    sysclockfreq = HSI_VALUE;
 8003cd2:	4b5e      	ldr	r3, [pc, #376]	; (8003e4c <HAL_RCC_GetSysClockFreq+0x1f8>)
 8003cd4:	623b      	str	r3, [r7, #32]
 8003cd6:	e004      	b.n	8003ce2 <HAL_RCC_GetSysClockFreq+0x8e>
  }
  else if (sysclk_source == RCC_SYSCLKSOURCE_STATUS_HSE)
 8003cd8:	69bb      	ldr	r3, [r7, #24]
 8003cda:	2b08      	cmp	r3, #8
 8003cdc:	d101      	bne.n	8003ce2 <HAL_RCC_GetSysClockFreq+0x8e>
  {
    /* HSE used as system clock source */
    sysclockfreq = HSE_VALUE;
 8003cde:	4b5b      	ldr	r3, [pc, #364]	; (8003e4c <HAL_RCC_GetSysClockFreq+0x1f8>)
 8003ce0:	623b      	str	r3, [r7, #32]
  else
  {
    /* Nothing to do */
  }

  if (sysclk_source == RCC_SYSCLKSOURCE_STATUS_PLLCLK)
 8003ce2:	69bb      	ldr	r3, [r7, #24]
 8003ce4:	2b0c      	cmp	r3, #12
 8003ce6:	f040 80a5 	bne.w	8003e34 <HAL_RCC_GetSysClockFreq+0x1e0>
  {
    /* PLL used as system clock  source
       PLL_VCO = (HSE_VALUE or HSI_VALUE or MSI_VALUE/ PLLM) * PLLN
       SYSCLK = PLL_VCO / PLLR
    */
    pllsource = (RCC->PLL1CFGR & RCC_PLL1CFGR_PLL1SRC);
 8003cea:	4b56      	ldr	r3, [pc, #344]	; (8003e44 <HAL_RCC_GetSysClockFreq+0x1f0>)
 8003cec:	6a9b      	ldr	r3, [r3, #40]	; 0x28
 8003cee:	f003 0303 	and.w	r3, r3, #3
 8003cf2:	613b      	str	r3, [r7, #16]
    pllm = ((RCC->PLL1CFGR & RCC_PLL1CFGR_PLL1M) >> RCC_PLL1CFGR_PLL1M_Pos) + 1U;
 8003cf4:	4b53      	ldr	r3, [pc, #332]	; (8003e44 <HAL_RCC_GetSysClockFreq+0x1f0>)
 8003cf6:	6a9b      	ldr	r3, [r3, #40]	; 0x28
 8003cf8:	0a1b      	lsrs	r3, r3, #8
 8003cfa:	f003 030f 	and.w	r3, r3, #15
 8003cfe:	3301      	adds	r3, #1
 8003d00:	60fb      	str	r3, [r7, #12]
    pllfracen = ((RCC->PLL1CFGR & RCC_PLL1CFGR_PLL1FRACEN) >> RCC_PLL1CFGR_PLL1FRACEN_Pos);
 8003d02:	4b50      	ldr	r3, [pc, #320]	; (8003e44 <HAL_RCC_GetSysClockFreq+0x1f0>)
 8003d04:	6a9b      	ldr	r3, [r3, #40]	; 0x28
 8003d06:	091b      	lsrs	r3, r3, #4
 8003d08:	f003 0301 	and.w	r3, r3, #1
 8003d0c:	60bb      	str	r3, [r7, #8]
    fracn1 = (float_t)(uint32_t)(pllfracen * ((RCC->PLL1FRACR & RCC_PLL1FRACR_PLL1FRACN) >> \
 8003d0e:	4b4d      	ldr	r3, [pc, #308]	; (8003e44 <HAL_RCC_GetSysClockFreq+0x1f0>)
 8003d10:	6b9b      	ldr	r3, [r3, #56]	; 0x38
 8003d12:	08db      	lsrs	r3, r3, #3
 8003d14:	f3c3 030c 	ubfx	r3, r3, #0, #13
 8003d18:	68ba      	ldr	r2, [r7, #8]
 8003d1a:	fb02 f303 	mul.w	r3, r2, r3
 8003d1e:	ee07 3a90 	vmov	s15, r3
 8003d22:	eef8 7a67 	vcvt.f32.u32	s15, s15
 8003d26:	edc7 7a01 	vstr	s15, [r7, #4]
                                              RCC_PLL1FRACR_PLL1FRACN_Pos));

    switch (pllsource)
 8003d2a:	693b      	ldr	r3, [r7, #16]
 8003d2c:	2b02      	cmp	r3, #2
 8003d2e:	d003      	beq.n	8003d38 <HAL_RCC_GetSysClockFreq+0xe4>
 8003d30:	693b      	ldr	r3, [r7, #16]
 8003d32:	2b03      	cmp	r3, #3
 8003d34:	d022      	beq.n	8003d7c <HAL_RCC_GetSysClockFreq+0x128>
 8003d36:	e043      	b.n	8003dc0 <HAL_RCC_GetSysClockFreq+0x16c>
    {
      case RCC_PLLSOURCE_HSI:  /* HSI used as PLL clock source */
        pllvco = ((float_t)HSI_VALUE / (float_t)pllm) * ((float_t)(uint32_t)(RCC->PLL1DIVR & RCC_PLL1DIVR_PLL1N) + \
 8003d38:	68fb      	ldr	r3, [r7, #12]
 8003d3a:	ee07 3a90 	vmov	s15, r3
 8003d3e:	eef8 7a67 	vcvt.f32.u32	s15, s15
 8003d42:	eddf 6a43 	vldr	s13, [pc, #268]	; 8003e50 <HAL_RCC_GetSysClockFreq+0x1fc>
 8003d46:	ee86 7aa7 	vdiv.f32	s14, s13, s15
 8003d4a:	4b3e      	ldr	r3, [pc, #248]	; (8003e44 <HAL_RCC_GetSysClockFreq+0x1f0>)
 8003d4c:	6b5b      	ldr	r3, [r3, #52]	; 0x34
 8003d4e:	f3c3 0308 	ubfx	r3, r3, #0, #9
 8003d52:	ee07 3a90 	vmov	s15, r3
 8003d56:	eef8 6a67 	vcvt.f32.u32	s13, s15
                                                         (fracn1 / (float_t)0x2000) + (float_t)1U);
 8003d5a:	ed97 6a01 	vldr	s12, [r7, #4]
 8003d5e:	eddf 5a3d 	vldr	s11, [pc, #244]	; 8003e54 <HAL_RCC_GetSysClockFreq+0x200>
 8003d62:	eec6 7a25 	vdiv.f32	s15, s12, s11
        pllvco = ((float_t)HSI_VALUE / (float_t)pllm) * ((float_t)(uint32_t)(RCC->PLL1DIVR & RCC_PLL1DIVR_PLL1N) + \
 8003d66:	ee76 7aa7 	vadd.f32	s15, s13, s15
                                                         (fracn1 / (float_t)0x2000) + (float_t)1U);
 8003d6a:	eef7 6a00 	vmov.f32	s13, #112	; 0x3f800000  1.0
 8003d6e:	ee77 7aa6 	vadd.f32	s15, s15, s13
        pllvco = ((float_t)HSI_VALUE / (float_t)pllm) * ((float_t)(uint32_t)(RCC->PLL1DIVR & RCC_PLL1DIVR_PLL1N) + \
 8003d72:	ee67 7a27 	vmul.f32	s15, s14, s15
 8003d76:	edc7 7a07 	vstr	s15, [r7, #28]
        break;
 8003d7a:	e046      	b.n	8003e0a <HAL_RCC_GetSysClockFreq+0x1b6>

      case RCC_PLLSOURCE_HSE:  /* HSE used as PLL clock source */
        pllvco = ((float_t)HSE_VALUE / (float_t)pllm) * ((float_t)(uint32_t)(RCC->PLL1DIVR & RCC_PLL1DIVR_PLL1N) + \
 8003d7c:	68fb      	ldr	r3, [r7, #12]
 8003d7e:	ee07 3a90 	vmov	s15, r3
 8003d82:	eef8 7a67 	vcvt.f32.u32	s15, s15
 8003d86:	eddf 6a32 	vldr	s13, [pc, #200]	; 8003e50 <HAL_RCC_GetSysClockFreq+0x1fc>
 8003d8a:	ee86 7aa7 	vdiv.f32	s14, s13, s15
 8003d8e:	4b2d      	ldr	r3, [pc, #180]	; (8003e44 <HAL_RCC_GetSysClockFreq+0x1f0>)
 8003d90:	6b5b      	ldr	r3, [r3, #52]	; 0x34
 8003d92:	f3c3 0308 	ubfx	r3, r3, #0, #9
 8003d96:	ee07 3a90 	vmov	s15, r3
 8003d9a:	eef8 6a67 	vcvt.f32.u32	s13, s15
                                                         (fracn1 / (float_t)0x2000) + (float_t)1U);
 8003d9e:	ed97 6a01 	vldr	s12, [r7, #4]
 8003da2:	eddf 5a2c 	vldr	s11, [pc, #176]	; 8003e54 <HAL_RCC_GetSysClockFreq+0x200>
 8003da6:	eec6 7a25 	vdiv.f32	s15, s12, s11
        pllvco = ((float_t)HSE_VALUE / (float_t)pllm) * ((float_t)(uint32_t)(RCC->PLL1DIVR & RCC_PLL1DIVR_PLL1N) + \
 8003daa:	ee76 7aa7 	vadd.f32	s15, s13, s15
                                                         (fracn1 / (float_t)0x2000) + (float_t)1U);
 8003dae:	eef7 6a00 	vmov.f32	s13, #112	; 0x3f800000  1.0
 8003db2:	ee77 7aa6 	vadd.f32	s15, s15, s13
        pllvco = ((float_t)HSE_VALUE / (float_t)pllm) * ((float_t)(uint32_t)(RCC->PLL1DIVR & RCC_PLL1DIVR_PLL1N) + \
 8003db6:	ee67 7a27 	vmul.f32	s15, s14, s15
 8003dba:	edc7 7a07 	vstr	s15, [r7, #28]
        break;
 8003dbe:	e024      	b.n	8003e0a <HAL_RCC_GetSysClockFreq+0x1b6>

      case RCC_PLLSOURCE_MSI:  /* MSI used as PLL clock source */
      default:
        pllvco = ((float_t) msirange / (float_t)pllm) * ((float_t)(uint32_t)(RCC->PLL1DIVR & RCC_PLL1DIVR_PLL1N) + \
 8003dc0:	6a7b      	ldr	r3, [r7, #36]	; 0x24
 8003dc2:	ee07 3a90 	vmov	s15, r3
 8003dc6:	eef8 6a67 	vcvt.f32.u32	s13, s15
 8003dca:	68fb      	ldr	r3, [r7, #12]
 8003dcc:	ee07 3a90 	vmov	s15, r3
 8003dd0:	eef8 7a67 	vcvt.f32.u32	s15, s15
 8003dd4:	ee86 7aa7 	vdiv.f32	s14, s13, s15
 8003dd8:	4b1a      	ldr	r3, [pc, #104]	; (8003e44 <HAL_RCC_GetSysClockFreq+0x1f0>)
 8003dda:	6b5b      	ldr	r3, [r3, #52]	; 0x34
 8003ddc:	f3c3 0308 	ubfx	r3, r3, #0, #9
 8003de0:	ee07 3a90 	vmov	s15, r3
 8003de4:	eef8 6a67 	vcvt.f32.u32	s13, s15
                                                         (fracn1 / (float_t)0x2000) + (float_t)1U);
 8003de8:	ed97 6a01 	vldr	s12, [r7, #4]
 8003dec:	eddf 5a19 	vldr	s11, [pc, #100]	; 8003e54 <HAL_RCC_GetSysClockFreq+0x200>
 8003df0:	eec6 7a25 	vdiv.f32	s15, s12, s11
        pllvco = ((float_t) msirange / (float_t)pllm) * ((float_t)(uint32_t)(RCC->PLL1DIVR & RCC_PLL1DIVR_PLL1N) + \
 8003df4:	ee76 7aa7 	vadd.f32	s15, s13, s15
                                                         (fracn1 / (float_t)0x2000) + (float_t)1U);
 8003df8:	eef7 6a00 	vmov.f32	s13, #112	; 0x3f800000  1.0
 8003dfc:	ee77 7aa6 	vadd.f32	s15, s15, s13
        pllvco = ((float_t) msirange / (float_t)pllm) * ((float_t)(uint32_t)(RCC->PLL1DIVR & RCC_PLL1DIVR_PLL1N) + \
 8003e00:	ee67 7a27 	vmul.f32	s15, s14, s15
 8003e04:	edc7 7a07 	vstr	s15, [r7, #28]
        break;
 8003e08:	bf00      	nop
    }

    pllr = (((RCC->PLL1DIVR & RCC_PLL1DIVR_PLL1R) >> RCC_PLL1DIVR_PLL1R_Pos) + 1U);
 8003e0a:	4b0e      	ldr	r3, [pc, #56]	; (8003e44 <HAL_RCC_GetSysClockFreq+0x1f0>)
 8003e0c:	6b5b      	ldr	r3, [r3, #52]	; 0x34
 8003e0e:	0e1b      	lsrs	r3, r3, #24
 8003e10:	f003 037f 	and.w	r3, r3, #127	; 0x7f
 8003e14:	3301      	adds	r3, #1
 8003e16:	603b      	str	r3, [r7, #0]
    sysclockfreq = (uint32_t)(float_t)((float_t)pllvco / (float_t)pllr);
 8003e18:	683b      	ldr	r3, [r7, #0]
 8003e1a:	ee07 3a90 	vmov	s15, r3
 8003e1e:	eeb8 7a67 	vcvt.f32.u32	s14, s15
 8003e22:	edd7 6a07 	vldr	s13, [r7, #28]
 8003e26:	eec6 7a87 	vdiv.f32	s15, s13, s14
 8003e2a:	eefc 7ae7 	vcvt.u32.f32	s15, s15
 8003e2e:	ee17 3a90 	vmov	r3, s15
 8003e32:	623b      	str	r3, [r7, #32]
  }

  return sysclockfreq;
 8003e34:	6a3b      	ldr	r3, [r7, #32]
}
 8003e36:	4618      	mov	r0, r3
 8003e38:	372c      	adds	r7, #44	; 0x2c
 8003e3a:	46bd      	mov	sp, r7
 8003e3c:	f85d 7b04 	ldr.w	r7, [sp], #4
 8003e40:	4770      	bx	lr
 8003e42:	bf00      	nop
 8003e44:	46020c00 	.word	0x46020c00
 8003e48:	08004f84 	.word	0x08004f84
 8003e4c:	00f42400 	.word	0x00f42400
 8003e50:	4b742400 	.word	0x4b742400
 8003e54:	46000000 	.word	0x46000000

08003e58 <HAL_RCC_GetHCLKFreq>:
  *
  * @note   The SystemCoreClock CMSIS variable is used to store System Clock Frequency.
  * @retval HCLK frequency in Hz
  */
uint32_t HAL_RCC_GetHCLKFreq(void)
{
 8003e58:	b580      	push	{r7, lr}
 8003e5a:	af00      	add	r7, sp, #0
  SystemCoreClock = HAL_RCC_GetSysClockFreq() >> AHBPrescTable[(RCC->CFGR2 & RCC_CFGR2_HPRE) >> RCC_CFGR2_HPRE_Pos];
 8003e5c:	f7ff fefa 	bl	8003c54 <HAL_RCC_GetSysClockFreq>
 8003e60:	4602      	mov	r2, r0
 8003e62:	4b07      	ldr	r3, [pc, #28]	; (8003e80 <HAL_RCC_GetHCLKFreq+0x28>)
 8003e64:	6a1b      	ldr	r3, [r3, #32]
 8003e66:	f003 030f 	and.w	r3, r3, #15
 8003e6a:	4906      	ldr	r1, [pc, #24]	; (8003e84 <HAL_RCC_GetHCLKFreq+0x2c>)
 8003e6c:	5ccb      	ldrb	r3, [r1, r3]
 8003e6e:	fa22 f303 	lsr.w	r3, r2, r3
 8003e72:	4a05      	ldr	r2, [pc, #20]	; (8003e88 <HAL_RCC_GetHCLKFreq+0x30>)
 8003e74:	6013      	str	r3, [r2, #0]
  return SystemCoreClock;
 8003e76:	4b04      	ldr	r3, [pc, #16]	; (8003e88 <HAL_RCC_GetHCLKFreq+0x30>)
 8003e78:	681b      	ldr	r3, [r3, #0]
}
 8003e7a:	4618      	mov	r0, r3
 8003e7c:	bd80      	pop	{r7, pc}
 8003e7e:	bf00      	nop
 8003e80:	46020c00 	.word	0x46020c00
 8003e84:	08004f74 	.word	0x08004f74
 8003e88:	20000108 	.word	0x20000108

08003e8c <RCC_SetFlashLatencyFromMSIRange>:
            voltage range.
  * @param  msirange  MSI range value from RCC_MSIRANGE_0 to RCC_MSIRANGE_15
  * @retval HAL status
  */
static HAL_StatusTypeDef RCC_SetFlashLatencyFromMSIRange(uint32_t msirange)
{
 8003e8c:	b580      	push	{r7, lr}
 8003e8e:	b086      	sub	sp, #24
 8003e90:	af00      	add	r7, sp, #0
 8003e92:	6078      	str	r0, [r7, #4]
  uint32_t vos;
  uint32_t latency;  /* default value 0WS */

  if (__HAL_RCC_PWR_IS_CLK_ENABLED())
 8003e94:	4b3e      	ldr	r3, [pc, #248]	; (8003f90 <RCC_SetFlashLatencyFromMSIRange+0x104>)
 8003e96:	f8d3 3094 	ldr.w	r3, [r3, #148]	; 0x94
 8003e9a:	f003 0304 	and.w	r3, r3, #4
 8003e9e:	2b00      	cmp	r3, #0
 8003ea0:	d003      	beq.n	8003eaa <RCC_SetFlashLatencyFromMSIRange+0x1e>
  {
    vos = HAL_PWREx_GetVoltageRange();
 8003ea2:	f7fe fd9b 	bl	80029dc <HAL_PWREx_GetVoltageRange>
 8003ea6:	6178      	str	r0, [r7, #20]
 8003ea8:	e019      	b.n	8003ede <RCC_SetFlashLatencyFromMSIRange+0x52>
  }
  else
  {
    __HAL_RCC_PWR_CLK_ENABLE();
 8003eaa:	4b39      	ldr	r3, [pc, #228]	; (8003f90 <RCC_SetFlashLatencyFromMSIRange+0x104>)
 8003eac:	f8d3 3094 	ldr.w	r3, [r3, #148]	; 0x94
 8003eb0:	4a37      	ldr	r2, [pc, #220]	; (8003f90 <RCC_SetFlashLatencyFromMSIRange+0x104>)
 8003eb2:	f043 0304 	orr.w	r3, r3, #4
 8003eb6:	f8c2 3094 	str.w	r3, [r2, #148]	; 0x94
 8003eba:	4b35      	ldr	r3, [pc, #212]	; (8003f90 <RCC_SetFlashLatencyFromMSIRange+0x104>)
 8003ebc:	f8d3 3094 	ldr.w	r3, [r3, #148]	; 0x94
 8003ec0:	f003 0304 	and.w	r3, r3, #4
 8003ec4:	60fb      	str	r3, [r7, #12]
 8003ec6:	68fb      	ldr	r3, [r7, #12]
    vos = HAL_PWREx_GetVoltageRange();
 8003ec8:	f7fe fd88 	bl	80029dc <HAL_PWREx_GetVoltageRange>
 8003ecc:	6178      	str	r0, [r7, #20]
    __HAL_RCC_PWR_CLK_DISABLE();
 8003ece:	4b30      	ldr	r3, [pc, #192]	; (8003f90 <RCC_SetFlashLatencyFromMSIRange+0x104>)
 8003ed0:	f8d3 3094 	ldr.w	r3, [r3, #148]	; 0x94
 8003ed4:	4a2e      	ldr	r2, [pc, #184]	; (8003f90 <RCC_SetFlashLatencyFromMSIRange+0x104>)
 8003ed6:	f023 0304 	bic.w	r3, r3, #4
 8003eda:	f8c2 3094 	str.w	r3, [r2, #148]	; 0x94
  }

  if ((vos == PWR_REGULATOR_VOLTAGE_SCALE1) || (vos == PWR_REGULATOR_VOLTAGE_SCALE2))
 8003ede:	697b      	ldr	r3, [r7, #20]
 8003ee0:	f5b3 3f40 	cmp.w	r3, #196608	; 0x30000
 8003ee4:	d003      	beq.n	8003eee <RCC_SetFlashLatencyFromMSIRange+0x62>
 8003ee6:	697b      	ldr	r3, [r7, #20]
 8003ee8:	f5b3 3f00 	cmp.w	r3, #131072	; 0x20000
 8003eec:	d109      	bne.n	8003f02 <RCC_SetFlashLatencyFromMSIRange+0x76>
  {

    if (msirange < RCC_MSIRANGE_1)
 8003eee:	687b      	ldr	r3, [r7, #4]
 8003ef0:	f1b3 5f80 	cmp.w	r3, #268435456	; 0x10000000
 8003ef4:	d202      	bcs.n	8003efc <RCC_SetFlashLatencyFromMSIRange+0x70>
    {
      /* MSI = 48Mhz */
      latency = FLASH_LATENCY_1; /* 1WS */
 8003ef6:	2301      	movs	r3, #1
 8003ef8:	613b      	str	r3, [r7, #16]
    if (msirange < RCC_MSIRANGE_1)
 8003efa:	e033      	b.n	8003f64 <RCC_SetFlashLatencyFromMSIRange+0xd8>
    }
    else
    {
      /*  MSI < 48Mhz */
      latency = FLASH_LATENCY_0; /* 0WS */
 8003efc:	2300      	movs	r3, #0
 8003efe:	613b      	str	r3, [r7, #16]
    if (msirange < RCC_MSIRANGE_1)
 8003f00:	e030      	b.n	8003f64 <RCC_SetFlashLatencyFromMSIRange+0xd8>
    }
  }
  else
  {
    if (msirange < RCC_MSIRANGE_1)
 8003f02:	687b      	ldr	r3, [r7, #4]
 8003f04:	f1b3 5f80 	cmp.w	r3, #268435456	; 0x10000000
 8003f08:	d208      	bcs.n	8003f1c <RCC_SetFlashLatencyFromMSIRange+0x90>
    {
      /* MSI = 48Mhz */
      if (vos == PWR_REGULATOR_VOLTAGE_SCALE3)
 8003f0a:	697b      	ldr	r3, [r7, #20]
 8003f0c:	f5b3 3f80 	cmp.w	r3, #65536	; 0x10000
 8003f10:	d102      	bne.n	8003f18 <RCC_SetFlashLatencyFromMSIRange+0x8c>
      {
        latency = FLASH_LATENCY_3; /* 3WS */
 8003f12:	2303      	movs	r3, #3
 8003f14:	613b      	str	r3, [r7, #16]
 8003f16:	e025      	b.n	8003f64 <RCC_SetFlashLatencyFromMSIRange+0xd8>
      }
      else
      {
        return HAL_ERROR;
 8003f18:	2301      	movs	r3, #1
 8003f1a:	e035      	b.n	8003f88 <RCC_SetFlashLatencyFromMSIRange+0xfc>
      }
    }
    else
    {
      if (msirange > RCC_MSIRANGE_2)
 8003f1c:	687b      	ldr	r3, [r7, #4]
 8003f1e:	f1b3 5f00 	cmp.w	r3, #536870912	; 0x20000000
 8003f22:	d90f      	bls.n	8003f44 <RCC_SetFlashLatencyFromMSIRange+0xb8>
      {
        if (vos == PWR_REGULATOR_VOLTAGE_SCALE4)
 8003f24:	697b      	ldr	r3, [r7, #20]
 8003f26:	2b00      	cmp	r3, #0
 8003f28:	d109      	bne.n	8003f3e <RCC_SetFlashLatencyFromMSIRange+0xb2>
        {
          if (msirange > RCC_MSIRANGE_3)
 8003f2a:	687b      	ldr	r3, [r7, #4]
 8003f2c:	f1b3 5f40 	cmp.w	r3, #805306368	; 0x30000000
 8003f30:	d902      	bls.n	8003f38 <RCC_SetFlashLatencyFromMSIRange+0xac>
          {
            latency = FLASH_LATENCY_0; /* 1WS */
 8003f32:	2300      	movs	r3, #0
 8003f34:	613b      	str	r3, [r7, #16]
 8003f36:	e015      	b.n	8003f64 <RCC_SetFlashLatencyFromMSIRange+0xd8>
          }
          else
          {
            latency = FLASH_LATENCY_1; /* 0WS */
 8003f38:	2301      	movs	r3, #1
 8003f3a:	613b      	str	r3, [r7, #16]
 8003f3c:	e012      	b.n	8003f64 <RCC_SetFlashLatencyFromMSIRange+0xd8>
          }
        }
        else
        {
          latency = FLASH_LATENCY_0; /* 0WS */
 8003f3e:	2300      	movs	r3, #0
 8003f40:	613b      	str	r3, [r7, #16]
 8003f42:	e00f      	b.n	8003f64 <RCC_SetFlashLatencyFromMSIRange+0xd8>
        }
      }
      else
      {
        if (msirange == RCC_MSIRANGE_1)
 8003f44:	687b      	ldr	r3, [r7, #4]
 8003f46:	f1b3 5f80 	cmp.w	r3, #268435456	; 0x10000000
 8003f4a:	d109      	bne.n	8003f60 <RCC_SetFlashLatencyFromMSIRange+0xd4>
        {
          if (vos == PWR_REGULATOR_VOLTAGE_SCALE3)
 8003f4c:	697b      	ldr	r3, [r7, #20]
 8003f4e:	f5b3 3f80 	cmp.w	r3, #65536	; 0x10000
 8003f52:	d102      	bne.n	8003f5a <RCC_SetFlashLatencyFromMSIRange+0xce>
          {
            latency = FLASH_LATENCY_1; /* 1WS */
 8003f54:	2301      	movs	r3, #1
 8003f56:	613b      	str	r3, [r7, #16]
 8003f58:	e004      	b.n	8003f64 <RCC_SetFlashLatencyFromMSIRange+0xd8>
          }
          else
          {
            latency = FLASH_LATENCY_2; /* 2WS */
 8003f5a:	2302      	movs	r3, #2
 8003f5c:	613b      	str	r3, [r7, #16]
 8003f5e:	e001      	b.n	8003f64 <RCC_SetFlashLatencyFromMSIRange+0xd8>
          }
        }
        else
        {
          latency = FLASH_LATENCY_1; /* 1WS */
 8003f60:	2301      	movs	r3, #1
 8003f62:	613b      	str	r3, [r7, #16]
        }
      }
    }
  }

  __HAL_FLASH_SET_LATENCY(latency);
 8003f64:	4b0b      	ldr	r3, [pc, #44]	; (8003f94 <RCC_SetFlashLatencyFromMSIRange+0x108>)
 8003f66:	681b      	ldr	r3, [r3, #0]
 8003f68:	f023 020f 	bic.w	r2, r3, #15
 8003f6c:	4909      	ldr	r1, [pc, #36]	; (8003f94 <RCC_SetFlashLatencyFromMSIRange+0x108>)
 8003f6e:	693b      	ldr	r3, [r7, #16]
 8003f70:	4313      	orrs	r3, r2
 8003f72:	600b      	str	r3, [r1, #0]

  /* Check that the new number of wait states is taken into account to access the Flash
  memory by reading the FLASH_ACR register */
  if ((FLASH->ACR & FLASH_ACR_LATENCY) != latency)
 8003f74:	4b07      	ldr	r3, [pc, #28]	; (8003f94 <RCC_SetFlashLatencyFromMSIRange+0x108>)
 8003f76:	681b      	ldr	r3, [r3, #0]
 8003f78:	f003 030f 	and.w	r3, r3, #15
 8003f7c:	693a      	ldr	r2, [r7, #16]
 8003f7e:	429a      	cmp	r2, r3
 8003f80:	d001      	beq.n	8003f86 <RCC_SetFlashLatencyFromMSIRange+0xfa>
  {
    return HAL_ERROR;
 8003f82:	2301      	movs	r3, #1
 8003f84:	e000      	b.n	8003f88 <RCC_SetFlashLatencyFromMSIRange+0xfc>
  }

  return HAL_OK;
 8003f86:	2300      	movs	r3, #0
}
 8003f88:	4618      	mov	r0, r3
 8003f8a:	3718      	adds	r7, #24
 8003f8c:	46bd      	mov	sp, r7
 8003f8e:	bd80      	pop	{r7, pc}
 8003f90:	46020c00 	.word	0x46020c00
 8003f94:	40022000 	.word	0x40022000

08003f98 <HAL_RCCEx_PeriphCLKConfig>:
  * @retval HAL status
  *
  *         (*) value not defined in all devices.
  */
HAL_StatusTypeDef HAL_RCCEx_PeriphCLKConfig(const RCC_PeriphCLKInitTypeDef  *pPeriphClkInit)
{
 8003f98:	e92d 4fb0 	stmdb	sp!, {r4, r5, r7, r8, r9, sl, fp, lr}
 8003f9c:	b0ba      	sub	sp, #232	; 0xe8
 8003f9e:	af00      	add	r7, sp, #0
 8003fa0:	f8c7 00d4 	str.w	r0, [r7, #212]	; 0xd4
  uint32_t tmpregister;
  uint32_t tickstart;
  HAL_StatusTypeDef ret = HAL_OK;      /* Intermediate status */
 8003fa4:	2300      	movs	r3, #0
 8003fa6:	f887 30e3 	strb.w	r3, [r7, #227]	; 0xe3
  HAL_StatusTypeDef status = HAL_OK;   /* Final status */
 8003faa:	2300      	movs	r3, #0
 8003fac:	f887 30e2 	strb.w	r3, [r7, #226]	; 0xe2

  /* Check the parameters */
  assert_param(IS_RCC_PERIPHCLOCK(pPeriphClkInit->PeriphClockSelection));

  /*-------------------------- USART1 clock source configuration -------------------*/
  if (((pPeriphClkInit->PeriphClockSelection) & RCC_PERIPHCLK_USART1) == RCC_PERIPHCLK_USART1)
 8003fb0:	f8d7 30d4 	ldr.w	r3, [r7, #212]	; 0xd4
 8003fb4:	e9d3 2300 	ldrd	r2, r3, [r3]
 8003fb8:	f002 0401 	and.w	r4, r2, #1
 8003fbc:	2500      	movs	r5, #0
 8003fbe:	ea54 0305 	orrs.w	r3, r4, r5
 8003fc2:	d00b      	beq.n	8003fdc <HAL_RCCEx_PeriphCLKConfig+0x44>
  {
    /* Check the parameters */
    assert_param(IS_RCC_USART1CLKSOURCE(pPeriphClkInit->Usart1ClockSelection));

    /* Configure the USART1 clock source */
    __HAL_RCC_USART1_CONFIG(pPeriphClkInit->Usart1ClockSelection);
 8003fc4:	4bcb      	ldr	r3, [pc, #812]	; (80042f4 <HAL_RCCEx_PeriphCLKConfig+0x35c>)
 8003fc6:	f8d3 30e0 	ldr.w	r3, [r3, #224]	; 0xe0
 8003fca:	f023 0103 	bic.w	r1, r3, #3
 8003fce:	f8d7 30d4 	ldr.w	r3, [r7, #212]	; 0xd4
 8003fd2:	6d1b      	ldr	r3, [r3, #80]	; 0x50
 8003fd4:	4ac7      	ldr	r2, [pc, #796]	; (80042f4 <HAL_RCCEx_PeriphCLKConfig+0x35c>)
 8003fd6:	430b      	orrs	r3, r1
 8003fd8:	f8c2 30e0 	str.w	r3, [r2, #224]	; 0xe0
  }

#if defined(USART2)
  /*-------------------------- USART2 clock source configuration -------------------*/
  if (((pPeriphClkInit->PeriphClockSelection) & RCC_PERIPHCLK_USART2) == RCC_PERIPHCLK_USART2)
 8003fdc:	f8d7 30d4 	ldr.w	r3, [r7, #212]	; 0xd4
 8003fe0:	e9d3 2300 	ldrd	r2, r3, [r3]
 8003fe4:	f002 0802 	and.w	r8, r2, #2
 8003fe8:	f04f 0900 	mov.w	r9, #0
 8003fec:	ea58 0309 	orrs.w	r3, r8, r9
 8003ff0:	d00b      	beq.n	800400a <HAL_RCCEx_PeriphCLKConfig+0x72>
  {
    /* Check the parameters */
    assert_param(IS_RCC_USART2CLKSOURCE(pPeriphClkInit->Usart2ClockSelection));

    /* Configure the USART2 clock source */
    __HAL_RCC_USART2_CONFIG(pPeriphClkInit->Usart2ClockSelection);
 8003ff2:	4bc0      	ldr	r3, [pc, #768]	; (80042f4 <HAL_RCCEx_PeriphCLKConfig+0x35c>)
 8003ff4:	f8d3 30e0 	ldr.w	r3, [r3, #224]	; 0xe0
 8003ff8:	f023 010c 	bic.w	r1, r3, #12
 8003ffc:	f8d7 30d4 	ldr.w	r3, [r7, #212]	; 0xd4
 8004000:	6d5b      	ldr	r3, [r3, #84]	; 0x54
 8004002:	4abc      	ldr	r2, [pc, #752]	; (80042f4 <HAL_RCCEx_PeriphCLKConfig+0x35c>)
 8004004:	430b      	orrs	r3, r1
 8004006:	f8c2 30e0 	str.w	r3, [r2, #224]	; 0xe0
  }
#endif /* USART2 */

  /*-------------------------- USART3 clock source configuration -------------------*/
  if (((pPeriphClkInit->PeriphClockSelection) & RCC_PERIPHCLK_USART3) == RCC_PERIPHCLK_USART3)
 800400a:	f8d7 30d4 	ldr.w	r3, [r7, #212]	; 0xd4
 800400e:	e9d3 2300 	ldrd	r2, r3, [r3]
 8004012:	f002 0a04 	and.w	sl, r2, #4
 8004016:	f04f 0b00 	mov.w	fp, #0
 800401a:	ea5a 030b 	orrs.w	r3, sl, fp
 800401e:	d00b      	beq.n	8004038 <HAL_RCCEx_PeriphCLKConfig+0xa0>
  {
    /* Check the parameters */
    assert_param(IS_RCC_USART3CLKSOURCE(pPeriphClkInit->Usart3ClockSelection));

    /* Configure the USART3 clock source */
    __HAL_RCC_USART3_CONFIG(pPeriphClkInit->Usart3ClockSelection);
 8004020:	4bb4      	ldr	r3, [pc, #720]	; (80042f4 <HAL_RCCEx_PeriphCLKConfig+0x35c>)
 8004022:	f8d3 30e0 	ldr.w	r3, [r3, #224]	; 0xe0
 8004026:	f023 0130 	bic.w	r1, r3, #48	; 0x30
 800402a:	f8d7 30d4 	ldr.w	r3, [r7, #212]	; 0xd4
 800402e:	6d9b      	ldr	r3, [r3, #88]	; 0x58
 8004030:	4ab0      	ldr	r2, [pc, #704]	; (80042f4 <HAL_RCCEx_PeriphCLKConfig+0x35c>)
 8004032:	430b      	orrs	r3, r1
 8004034:	f8c2 30e0 	str.w	r3, [r2, #224]	; 0xe0
  }

  /*-------------------------- UART4 clock source configuration --------------------*/
  if (((pPeriphClkInit->PeriphClockSelection) & RCC_PERIPHCLK_UART4) == RCC_PERIPHCLK_UART4)
 8004038:	f8d7 30d4 	ldr.w	r3, [r7, #212]	; 0xd4
 800403c:	e9d3 2300 	ldrd	r2, r3, [r3]
 8004040:	f002 0308 	and.w	r3, r2, #8
 8004044:	f8c7 30c8 	str.w	r3, [r7, #200]	; 0xc8
 8004048:	2300      	movs	r3, #0
 800404a:	f8c7 30cc 	str.w	r3, [r7, #204]	; 0xcc
 800404e:	e9d7 1232 	ldrd	r1, r2, [r7, #200]	; 0xc8
 8004052:	460b      	mov	r3, r1
 8004054:	4313      	orrs	r3, r2
 8004056:	d00b      	beq.n	8004070 <HAL_RCCEx_PeriphCLKConfig+0xd8>
  {
    /* Check the parameters */
    assert_param(IS_RCC_UART4CLKSOURCE(pPeriphClkInit->Uart4ClockSelection));

    /* Configure the UART4 clock source */
    __HAL_RCC_UART4_CONFIG(pPeriphClkInit->Uart4ClockSelection);
 8004058:	4ba6      	ldr	r3, [pc, #664]	; (80042f4 <HAL_RCCEx_PeriphCLKConfig+0x35c>)
 800405a:	f8d3 30e0 	ldr.w	r3, [r3, #224]	; 0xe0
 800405e:	f023 01c0 	bic.w	r1, r3, #192	; 0xc0
 8004062:	f8d7 30d4 	ldr.w	r3, [r7, #212]	; 0xd4
 8004066:	6ddb      	ldr	r3, [r3, #92]	; 0x5c
 8004068:	4aa2      	ldr	r2, [pc, #648]	; (80042f4 <HAL_RCCEx_PeriphCLKConfig+0x35c>)
 800406a:	430b      	orrs	r3, r1
 800406c:	f8c2 30e0 	str.w	r3, [r2, #224]	; 0xe0
  }

  /*-------------------------- UART5 clock source configuration --------------------*/
  if (((pPeriphClkInit->PeriphClockSelection) & RCC_PERIPHCLK_UART5) == RCC_PERIPHCLK_UART5)
 8004070:	f8d7 30d4 	ldr.w	r3, [r7, #212]	; 0xd4
 8004074:	e9d3 2300 	ldrd	r2, r3, [r3]
 8004078:	f002 0310 	and.w	r3, r2, #16
 800407c:	f8c7 30c0 	str.w	r3, [r7, #192]	; 0xc0
 8004080:	2300      	movs	r3, #0
 8004082:	f8c7 30c4 	str.w	r3, [r7, #196]	; 0xc4
 8004086:	e9d7 1230 	ldrd	r1, r2, [r7, #192]	; 0xc0
 800408a:	460b      	mov	r3, r1
 800408c:	4313      	orrs	r3, r2
 800408e:	d00b      	beq.n	80040a8 <HAL_RCCEx_PeriphCLKConfig+0x110>
  {
    /* Check the parameters */
    assert_param(IS_RCC_UART5CLKSOURCE(pPeriphClkInit->Uart5ClockSelection));

    /* Configure the UART5 clock source */
    __HAL_RCC_UART5_CONFIG(pPeriphClkInit->Uart5ClockSelection);
 8004090:	4b98      	ldr	r3, [pc, #608]	; (80042f4 <HAL_RCCEx_PeriphCLKConfig+0x35c>)
 8004092:	f8d3 30e0 	ldr.w	r3, [r3, #224]	; 0xe0
 8004096:	f423 7140 	bic.w	r1, r3, #768	; 0x300
 800409a:	f8d7 30d4 	ldr.w	r3, [r7, #212]	; 0xd4
 800409e:	6e1b      	ldr	r3, [r3, #96]	; 0x60
 80040a0:	4a94      	ldr	r2, [pc, #592]	; (80042f4 <HAL_RCCEx_PeriphCLKConfig+0x35c>)
 80040a2:	430b      	orrs	r3, r1
 80040a4:	f8c2 30e0 	str.w	r3, [r2, #224]	; 0xe0
    __HAL_RCC_USART6_CONFIG(pPeriphClkInit->Usart6ClockSelection);
  }
#endif /* USART6 */

  /*-------------------------- LPUART1 clock source configuration ------------------*/
  if (((pPeriphClkInit->PeriphClockSelection) & RCC_PERIPHCLK_LPUART1) == RCC_PERIPHCLK_LPUART1)
 80040a8:	f8d7 30d4 	ldr.w	r3, [r7, #212]	; 0xd4
 80040ac:	e9d3 2300 	ldrd	r2, r3, [r3]
 80040b0:	f002 0320 	and.w	r3, r2, #32
 80040b4:	f8c7 30b8 	str.w	r3, [r7, #184]	; 0xb8
 80040b8:	2300      	movs	r3, #0
 80040ba:	f8c7 30bc 	str.w	r3, [r7, #188]	; 0xbc
 80040be:	e9d7 122e 	ldrd	r1, r2, [r7, #184]	; 0xb8
 80040c2:	460b      	mov	r3, r1
 80040c4:	4313      	orrs	r3, r2
 80040c6:	d00b      	beq.n	80040e0 <HAL_RCCEx_PeriphCLKConfig+0x148>
  {
    /* Check the parameters */
    assert_param(IS_RCC_LPUART1CLKSOURCE(pPeriphClkInit->Lpuart1ClockSelection));

    /* Configure the LPUART1 clock source */
    __HAL_RCC_LPUART1_CONFIG(pPeriphClkInit->Lpuart1ClockSelection);
 80040c8:	4b8a      	ldr	r3, [pc, #552]	; (80042f4 <HAL_RCCEx_PeriphCLKConfig+0x35c>)
 80040ca:	f8d3 30e8 	ldr.w	r3, [r3, #232]	; 0xe8
 80040ce:	f023 0107 	bic.w	r1, r3, #7
 80040d2:	f8d7 30d4 	ldr.w	r3, [r7, #212]	; 0xd4
 80040d6:	6e5b      	ldr	r3, [r3, #100]	; 0x64
 80040d8:	4a86      	ldr	r2, [pc, #536]	; (80042f4 <HAL_RCCEx_PeriphCLKConfig+0x35c>)
 80040da:	430b      	orrs	r3, r1
 80040dc:	f8c2 30e8 	str.w	r3, [r2, #232]	; 0xe8
  }

  /*-------------------------- I2C1 clock source configuration ---------------------*/
  if (((pPeriphClkInit->PeriphClockSelection) & RCC_PERIPHCLK_I2C1) == RCC_PERIPHCLK_I2C1)
 80040e0:	f8d7 30d4 	ldr.w	r3, [r7, #212]	; 0xd4
 80040e4:	e9d3 2300 	ldrd	r2, r3, [r3]
 80040e8:	f002 0340 	and.w	r3, r2, #64	; 0x40
 80040ec:	f8c7 30b0 	str.w	r3, [r7, #176]	; 0xb0
 80040f0:	2300      	movs	r3, #0
 80040f2:	f8c7 30b4 	str.w	r3, [r7, #180]	; 0xb4
 80040f6:	e9d7 122c 	ldrd	r1, r2, [r7, #176]	; 0xb0
 80040fa:	460b      	mov	r3, r1
 80040fc:	4313      	orrs	r3, r2
 80040fe:	d00b      	beq.n	8004118 <HAL_RCCEx_PeriphCLKConfig+0x180>
  {
    /* Check the parameters */
    assert_param(IS_RCC_I2C1CLKSOURCE(pPeriphClkInit->I2c1ClockSelection));

    /* Configure the I2C1 clock source */
    __HAL_RCC_I2C1_CONFIG(pPeriphClkInit->I2c1ClockSelection);
 8004100:	4b7c      	ldr	r3, [pc, #496]	; (80042f4 <HAL_RCCEx_PeriphCLKConfig+0x35c>)
 8004102:	f8d3 30e0 	ldr.w	r3, [r3, #224]	; 0xe0
 8004106:	f423 6140 	bic.w	r1, r3, #3072	; 0xc00
 800410a:	f8d7 30d4 	ldr.w	r3, [r7, #212]	; 0xd4
 800410e:	6e9b      	ldr	r3, [r3, #104]	; 0x68
 8004110:	4a78      	ldr	r2, [pc, #480]	; (80042f4 <HAL_RCCEx_PeriphCLKConfig+0x35c>)
 8004112:	430b      	orrs	r3, r1
 8004114:	f8c2 30e0 	str.w	r3, [r2, #224]	; 0xe0
  }

  /*-------------------------- I2C2 clock source configuration ---------------------*/
  if (((pPeriphClkInit->PeriphClockSelection) & RCC_PERIPHCLK_I2C2) == RCC_PERIPHCLK_I2C2)
 8004118:	f8d7 30d4 	ldr.w	r3, [r7, #212]	; 0xd4
 800411c:	e9d3 2300 	ldrd	r2, r3, [r3]
 8004120:	f002 0380 	and.w	r3, r2, #128	; 0x80
 8004124:	f8c7 30a8 	str.w	r3, [r7, #168]	; 0xa8
 8004128:	2300      	movs	r3, #0
 800412a:	f8c7 30ac 	str.w	r3, [r7, #172]	; 0xac
 800412e:	e9d7 122a 	ldrd	r1, r2, [r7, #168]	; 0xa8
 8004132:	460b      	mov	r3, r1
 8004134:	4313      	orrs	r3, r2
 8004136:	d00b      	beq.n	8004150 <HAL_RCCEx_PeriphCLKConfig+0x1b8>
  {
    /* Check the parameters */
    assert_param(IS_RCC_I2C2CLKSOURCE(pPeriphClkInit->I2c2ClockSelection));

    /* Configure the I2C2 clock source */
    __HAL_RCC_I2C2_CONFIG(pPeriphClkInit->I2c2ClockSelection);
 8004138:	4b6e      	ldr	r3, [pc, #440]	; (80042f4 <HAL_RCCEx_PeriphCLKConfig+0x35c>)
 800413a:	f8d3 30e0 	ldr.w	r3, [r3, #224]	; 0xe0
 800413e:	f423 5140 	bic.w	r1, r3, #12288	; 0x3000
 8004142:	f8d7 30d4 	ldr.w	r3, [r7, #212]	; 0xd4
 8004146:	6edb      	ldr	r3, [r3, #108]	; 0x6c
 8004148:	4a6a      	ldr	r2, [pc, #424]	; (80042f4 <HAL_RCCEx_PeriphCLKConfig+0x35c>)
 800414a:	430b      	orrs	r3, r1
 800414c:	f8c2 30e0 	str.w	r3, [r2, #224]	; 0xe0
  }

  /*-------------------------- I2C3 clock source configuration ---------------------*/
  if (((pPeriphClkInit->PeriphClockSelection) & RCC_PERIPHCLK_I2C3) == RCC_PERIPHCLK_I2C3)
 8004150:	f8d7 30d4 	ldr.w	r3, [r7, #212]	; 0xd4
 8004154:	e9d3 2300 	ldrd	r2, r3, [r3]
 8004158:	f402 7380 	and.w	r3, r2, #256	; 0x100
 800415c:	f8c7 30a0 	str.w	r3, [r7, #160]	; 0xa0
 8004160:	2300      	movs	r3, #0
 8004162:	f8c7 30a4 	str.w	r3, [r7, #164]	; 0xa4
 8004166:	e9d7 1228 	ldrd	r1, r2, [r7, #160]	; 0xa0
 800416a:	460b      	mov	r3, r1
 800416c:	4313      	orrs	r3, r2
 800416e:	d00b      	beq.n	8004188 <HAL_RCCEx_PeriphCLKConfig+0x1f0>
  {
    /* Check the parameters */
    assert_param(IS_RCC_I2C3CLKSOURCE(pPeriphClkInit->I2c3ClockSelection));

    /* Configure the I2C3 clock source */
    __HAL_RCC_I2C3_CONFIG(pPeriphClkInit->I2c3ClockSelection);
 8004170:	4b60      	ldr	r3, [pc, #384]	; (80042f4 <HAL_RCCEx_PeriphCLKConfig+0x35c>)
 8004172:	f8d3 30e8 	ldr.w	r3, [r3, #232]	; 0xe8
 8004176:	f023 01c0 	bic.w	r1, r3, #192	; 0xc0
 800417a:	f8d7 30d4 	ldr.w	r3, [r7, #212]	; 0xd4
 800417e:	6f1b      	ldr	r3, [r3, #112]	; 0x70
 8004180:	4a5c      	ldr	r2, [pc, #368]	; (80042f4 <HAL_RCCEx_PeriphCLKConfig+0x35c>)
 8004182:	430b      	orrs	r3, r1
 8004184:	f8c2 30e8 	str.w	r3, [r2, #232]	; 0xe8
  }

  /*-------------------------- I2C4 clock source configuration ---------------------*/
  if (((pPeriphClkInit->PeriphClockSelection) & RCC_PERIPHCLK_I2C4) == RCC_PERIPHCLK_I2C4)
 8004188:	f8d7 30d4 	ldr.w	r3, [r7, #212]	; 0xd4
 800418c:	e9d3 2300 	ldrd	r2, r3, [r3]
 8004190:	f402 0380 	and.w	r3, r2, #4194304	; 0x400000
 8004194:	f8c7 3098 	str.w	r3, [r7, #152]	; 0x98
 8004198:	2300      	movs	r3, #0
 800419a:	f8c7 309c 	str.w	r3, [r7, #156]	; 0x9c
 800419e:	e9d7 1226 	ldrd	r1, r2, [r7, #152]	; 0x98
 80041a2:	460b      	mov	r3, r1
 80041a4:	4313      	orrs	r3, r2
 80041a6:	d00b      	beq.n	80041c0 <HAL_RCCEx_PeriphCLKConfig+0x228>
  {
    /* Check the parameters */
    assert_param(IS_RCC_I2C4CLKSOURCE(pPeriphClkInit->I2c4ClockSelection));

    /* Configure the I2C4 clock source */
    __HAL_RCC_I2C4_CONFIG(pPeriphClkInit->I2c4ClockSelection);
 80041a8:	4b52      	ldr	r3, [pc, #328]	; (80042f4 <HAL_RCCEx_PeriphCLKConfig+0x35c>)
 80041aa:	f8d3 30e0 	ldr.w	r3, [r3, #224]	; 0xe0
 80041ae:	f423 4140 	bic.w	r1, r3, #49152	; 0xc000
 80041b2:	f8d7 30d4 	ldr.w	r3, [r7, #212]	; 0xd4
 80041b6:	6f5b      	ldr	r3, [r3, #116]	; 0x74
 80041b8:	4a4e      	ldr	r2, [pc, #312]	; (80042f4 <HAL_RCCEx_PeriphCLKConfig+0x35c>)
 80041ba:	430b      	orrs	r3, r1
 80041bc:	f8c2 30e0 	str.w	r3, [r2, #224]	; 0xe0
    __HAL_RCC_I2C6_CONFIG(pPeriphClkInit->I2c6ClockSelection);
  }
#endif /* I2C6 */

  /*-------------------------- LPTIM1 clock source configuration -------------------*/
  if (((pPeriphClkInit->PeriphClockSelection) & RCC_PERIPHCLK_LPTIM1) == (RCC_PERIPHCLK_LPTIM1))
 80041c0:	f8d7 30d4 	ldr.w	r3, [r7, #212]	; 0xd4
 80041c4:	e9d3 2300 	ldrd	r2, r3, [r3]
 80041c8:	f402 7300 	and.w	r3, r2, #512	; 0x200
 80041cc:	f8c7 3090 	str.w	r3, [r7, #144]	; 0x90
 80041d0:	2300      	movs	r3, #0
 80041d2:	f8c7 3094 	str.w	r3, [r7, #148]	; 0x94
 80041d6:	e9d7 1224 	ldrd	r1, r2, [r7, #144]	; 0x90
 80041da:	460b      	mov	r3, r1
 80041dc:	4313      	orrs	r3, r2
 80041de:	d00b      	beq.n	80041f8 <HAL_RCCEx_PeriphCLKConfig+0x260>
  {
    assert_param(IS_RCC_LPTIM1CLK(pPeriphClkInit->Lptim1ClockSelection));
    __HAL_RCC_LPTIM1_CONFIG(pPeriphClkInit->Lptim1ClockSelection);
 80041e0:	4b44      	ldr	r3, [pc, #272]	; (80042f4 <HAL_RCCEx_PeriphCLKConfig+0x35c>)
 80041e2:	f8d3 30e8 	ldr.w	r3, [r3, #232]	; 0xe8
 80041e6:	f423 6140 	bic.w	r1, r3, #3072	; 0xc00
 80041ea:	f8d7 30d4 	ldr.w	r3, [r7, #212]	; 0xd4
 80041ee:	6f9b      	ldr	r3, [r3, #120]	; 0x78
 80041f0:	4a40      	ldr	r2, [pc, #256]	; (80042f4 <HAL_RCCEx_PeriphCLKConfig+0x35c>)
 80041f2:	430b      	orrs	r3, r1
 80041f4:	f8c2 30e8 	str.w	r3, [r2, #232]	; 0xe8
  }

  /*-------------------------- LPTIM2 clock source configuration -------------------*/
  if (((pPeriphClkInit->PeriphClockSelection) & RCC_PERIPHCLK_LPTIM2) == (RCC_PERIPHCLK_LPTIM2))
 80041f8:	f8d7 30d4 	ldr.w	r3, [r7, #212]	; 0xd4
 80041fc:	e9d3 2300 	ldrd	r2, r3, [r3]
 8004200:	f402 6380 	and.w	r3, r2, #1024	; 0x400
 8004204:	f8c7 3088 	str.w	r3, [r7, #136]	; 0x88
 8004208:	2300      	movs	r3, #0
 800420a:	f8c7 308c 	str.w	r3, [r7, #140]	; 0x8c
 800420e:	e9d7 1222 	ldrd	r1, r2, [r7, #136]	; 0x88
 8004212:	460b      	mov	r3, r1
 8004214:	4313      	orrs	r3, r2
 8004216:	d00b      	beq.n	8004230 <HAL_RCCEx_PeriphCLKConfig+0x298>
  {
    assert_param(IS_RCC_LPTIM2CLK(pPeriphClkInit->Lptim2ClockSelection));
    __HAL_RCC_LPTIM2_CONFIG(pPeriphClkInit->Lptim2ClockSelection);
 8004218:	4b36      	ldr	r3, [pc, #216]	; (80042f4 <HAL_RCCEx_PeriphCLKConfig+0x35c>)
 800421a:	f8d3 30e0 	ldr.w	r3, [r3, #224]	; 0xe0
 800421e:	f423 2140 	bic.w	r1, r3, #786432	; 0xc0000
 8004222:	f8d7 30d4 	ldr.w	r3, [r7, #212]	; 0xd4
 8004226:	6fdb      	ldr	r3, [r3, #124]	; 0x7c
 8004228:	4a32      	ldr	r2, [pc, #200]	; (80042f4 <HAL_RCCEx_PeriphCLKConfig+0x35c>)
 800422a:	430b      	orrs	r3, r1
 800422c:	f8c2 30e0 	str.w	r3, [r2, #224]	; 0xe0
  }

  /*-------------------------- LPTIM34 clock source configuration -------------------*/
  if (((pPeriphClkInit->PeriphClockSelection) & RCC_PERIPHCLK_LPTIM34) == (RCC_PERIPHCLK_LPTIM34))
 8004230:	f8d7 30d4 	ldr.w	r3, [r7, #212]	; 0xd4
 8004234:	e9d3 2300 	ldrd	r2, r3, [r3]
 8004238:	f402 6300 	and.w	r3, r2, #2048	; 0x800
 800423c:	f8c7 3080 	str.w	r3, [r7, #128]	; 0x80
 8004240:	2300      	movs	r3, #0
 8004242:	f8c7 3084 	str.w	r3, [r7, #132]	; 0x84
 8004246:	e9d7 1220 	ldrd	r1, r2, [r7, #128]	; 0x80
 800424a:	460b      	mov	r3, r1
 800424c:	4313      	orrs	r3, r2
 800424e:	d00c      	beq.n	800426a <HAL_RCCEx_PeriphCLKConfig+0x2d2>
  {
    assert_param(IS_RCC_LPTIM34CLK(pPeriphClkInit->Lptim34ClockSelection));
    __HAL_RCC_LPTIM34_CONFIG(pPeriphClkInit->Lptim34ClockSelection);
 8004250:	4b28      	ldr	r3, [pc, #160]	; (80042f4 <HAL_RCCEx_PeriphCLKConfig+0x35c>)
 8004252:	f8d3 30e8 	ldr.w	r3, [r3, #232]	; 0xe8
 8004256:	f423 7140 	bic.w	r1, r3, #768	; 0x300
 800425a:	f8d7 30d4 	ldr.w	r3, [r7, #212]	; 0xd4
 800425e:	f8d3 3080 	ldr.w	r3, [r3, #128]	; 0x80
 8004262:	4a24      	ldr	r2, [pc, #144]	; (80042f4 <HAL_RCCEx_PeriphCLKConfig+0x35c>)
 8004264:	430b      	orrs	r3, r1
 8004266:	f8c2 30e8 	str.w	r3, [r2, #232]	; 0xe8
  }

  /*-------------------------- SAI1 clock source configuration ---------------------*/
  if ((((pPeriphClkInit->PeriphClockSelection) & RCC_PERIPHCLK_SAI1) == RCC_PERIPHCLK_SAI1))
 800426a:	f8d7 30d4 	ldr.w	r3, [r7, #212]	; 0xd4
 800426e:	e9d3 2300 	ldrd	r2, r3, [r3]
 8004272:	f402 5300 	and.w	r3, r2, #8192	; 0x2000
 8004276:	67bb      	str	r3, [r7, #120]	; 0x78
 8004278:	2300      	movs	r3, #0
 800427a:	67fb      	str	r3, [r7, #124]	; 0x7c
 800427c:	e9d7 121e 	ldrd	r1, r2, [r7, #120]	; 0x78
 8004280:	460b      	mov	r3, r1
 8004282:	4313      	orrs	r3, r2
 8004284:	d04f      	beq.n	8004326 <HAL_RCCEx_PeriphCLKConfig+0x38e>
  {
    /* Check the parameters */
    assert_param(IS_RCC_SAI1CLK(pPeriphClkInit->Sai1ClockSelection));

    switch (pPeriphClkInit->Sai1ClockSelection)
 8004286:	f8d7 30d4 	ldr.w	r3, [r7, #212]	; 0xd4
 800428a:	f8d3 3090 	ldr.w	r3, [r3, #144]	; 0x90
 800428e:	2b80      	cmp	r3, #128	; 0x80
 8004290:	d02d      	beq.n	80042ee <HAL_RCCEx_PeriphCLKConfig+0x356>
 8004292:	2b80      	cmp	r3, #128	; 0x80
 8004294:	d827      	bhi.n	80042e6 <HAL_RCCEx_PeriphCLKConfig+0x34e>
 8004296:	2b60      	cmp	r3, #96	; 0x60
 8004298:	d02e      	beq.n	80042f8 <HAL_RCCEx_PeriphCLKConfig+0x360>
 800429a:	2b60      	cmp	r3, #96	; 0x60
 800429c:	d823      	bhi.n	80042e6 <HAL_RCCEx_PeriphCLKConfig+0x34e>
 800429e:	2b40      	cmp	r3, #64	; 0x40
 80042a0:	d006      	beq.n	80042b0 <HAL_RCCEx_PeriphCLKConfig+0x318>
 80042a2:	2b40      	cmp	r3, #64	; 0x40
 80042a4:	d81f      	bhi.n	80042e6 <HAL_RCCEx_PeriphCLKConfig+0x34e>
 80042a6:	2b00      	cmp	r3, #0
 80042a8:	d009      	beq.n	80042be <HAL_RCCEx_PeriphCLKConfig+0x326>
 80042aa:	2b20      	cmp	r3, #32
 80042ac:	d011      	beq.n	80042d2 <HAL_RCCEx_PeriphCLKConfig+0x33a>
 80042ae:	e01a      	b.n	80042e6 <HAL_RCCEx_PeriphCLKConfig+0x34e>
    {
      case RCC_SAI1CLKSOURCE_PLL1:      /* PLL is used as clock source for SAI1*/
        /* Enable SAI Clock output generated from System PLL  */
        __HAL_RCC_PLLCLKOUT_ENABLE(RCC_PLL1_DIVP);
 80042b0:	4b10      	ldr	r3, [pc, #64]	; (80042f4 <HAL_RCCEx_PeriphCLKConfig+0x35c>)
 80042b2:	6a9b      	ldr	r3, [r3, #40]	; 0x28
 80042b4:	4a0f      	ldr	r2, [pc, #60]	; (80042f4 <HAL_RCCEx_PeriphCLKConfig+0x35c>)
 80042b6:	f443 3380 	orr.w	r3, r3, #65536	; 0x10000
 80042ba:	6293      	str	r3, [r2, #40]	; 0x28
        /* SAI1 clock source config set later after clock selection check */
        break;
 80042bc:	e01d      	b.n	80042fa <HAL_RCCEx_PeriphCLKConfig+0x362>

      case RCC_SAI1CLKSOURCE_PLL2:  /* PLL2 is used as clock source for SAI1*/
        /* PLL2 P input clock, parameters M, N & P configuration and clock output (PLL2ClockOut) */
        ret = RCCEx_PLL2_Config(&(pPeriphClkInit->PLL2));
 80042be:	f8d7 30d4 	ldr.w	r3, [r7, #212]	; 0xd4
 80042c2:	3308      	adds	r3, #8
 80042c4:	4618      	mov	r0, r3
 80042c6:	f000 fc27 	bl	8004b18 <RCCEx_PLL2_Config>
 80042ca:	4603      	mov	r3, r0
 80042cc:	f887 30e3 	strb.w	r3, [r7, #227]	; 0xe3
        /* SAI1 clock source config set later after clock selection check */
        break;
 80042d0:	e013      	b.n	80042fa <HAL_RCCEx_PeriphCLKConfig+0x362>

      case RCC_SAI1CLKSOURCE_PLL3:  /* PLL3 is used as clock source for SAI1*/
        /* PLL3 P input clock, parameters M, N & P configuration clock output (PLL3ClockOut) */
        ret = RCCEx_PLL3_Config(&(pPeriphClkInit->PLL3));
 80042d2:	f8d7 30d4 	ldr.w	r3, [r7, #212]	; 0xd4
 80042d6:	332c      	adds	r3, #44	; 0x2c
 80042d8:	4618      	mov	r0, r3
 80042da:	f000 fcb5 	bl	8004c48 <RCCEx_PLL3_Config>
 80042de:	4603      	mov	r3, r0
 80042e0:	f887 30e3 	strb.w	r3, [r7, #227]	; 0xe3
        /* SAI1 clock source config set later after clock selection check */
        break;
 80042e4:	e009      	b.n	80042fa <HAL_RCCEx_PeriphCLKConfig+0x362>
      case RCC_SAI1CLKSOURCE_HSI:      /* HSI is used as source of SAI1 clock*/
        /* SAI1 clock source config set later after clock selection check */
        break;

      default:
        ret = HAL_ERROR;
 80042e6:	2301      	movs	r3, #1
 80042e8:	f887 30e3 	strb.w	r3, [r7, #227]	; 0xe3
        break;
 80042ec:	e005      	b.n	80042fa <HAL_RCCEx_PeriphCLKConfig+0x362>
        break;
 80042ee:	bf00      	nop
 80042f0:	e003      	b.n	80042fa <HAL_RCCEx_PeriphCLKConfig+0x362>
 80042f2:	bf00      	nop
 80042f4:	46020c00 	.word	0x46020c00
        break;
 80042f8:	bf00      	nop
    }

    if (ret == HAL_OK)
 80042fa:	f897 30e3 	ldrb.w	r3, [r7, #227]	; 0xe3
 80042fe:	2b00      	cmp	r3, #0
 8004300:	d10d      	bne.n	800431e <HAL_RCCEx_PeriphCLKConfig+0x386>
    {
      /* Set the source of SAI1 clock*/
      __HAL_RCC_SAI1_CONFIG(pPeriphClkInit->Sai1ClockSelection);
 8004302:	4bb6      	ldr	r3, [pc, #728]	; (80045dc <HAL_RCCEx_PeriphCLKConfig+0x644>)
 8004304:	f8d3 30e4 	ldr.w	r3, [r3, #228]	; 0xe4
 8004308:	f023 01e0 	bic.w	r1, r3, #224	; 0xe0
 800430c:	f8d7 30d4 	ldr.w	r3, [r7, #212]	; 0xd4
 8004310:	f8d3 3090 	ldr.w	r3, [r3, #144]	; 0x90
 8004314:	4ab1      	ldr	r2, [pc, #708]	; (80045dc <HAL_RCCEx_PeriphCLKConfig+0x644>)
 8004316:	430b      	orrs	r3, r1
 8004318:	f8c2 30e4 	str.w	r3, [r2, #228]	; 0xe4
 800431c:	e003      	b.n	8004326 <HAL_RCCEx_PeriphCLKConfig+0x38e>
    }
    else
    {
      /* set overall return value */
      status = ret;
 800431e:	f897 30e3 	ldrb.w	r3, [r7, #227]	; 0xe3
 8004322:	f887 30e2 	strb.w	r3, [r7, #226]	; 0xe2
    }
  }

#if defined(SAI2)
  /*-------------------------- SAI2 clock source configuration ---------------------*/
  if ((((pPeriphClkInit->PeriphClockSelection) & RCC_PERIPHCLK_SAI2) == RCC_PERIPHCLK_SAI2))
 8004326:	f8d7 30d4 	ldr.w	r3, [r7, #212]	; 0xd4
 800432a:	e9d3 2300 	ldrd	r2, r3, [r3]
 800432e:	f402 4380 	and.w	r3, r2, #16384	; 0x4000
 8004332:	673b      	str	r3, [r7, #112]	; 0x70
 8004334:	2300      	movs	r3, #0
 8004336:	677b      	str	r3, [r7, #116]	; 0x74
 8004338:	e9d7 121c 	ldrd	r1, r2, [r7, #112]	; 0x70
 800433c:	460b      	mov	r3, r1
 800433e:	4313      	orrs	r3, r2
 8004340:	d053      	beq.n	80043ea <HAL_RCCEx_PeriphCLKConfig+0x452>
  {
    /* Check the parameters */
    assert_param(IS_RCC_SAI2CLK(pPeriphClkInit->Sai2ClockSelection));

    switch (pPeriphClkInit->Sai2ClockSelection)
 8004342:	f8d7 30d4 	ldr.w	r3, [r7, #212]	; 0xd4
 8004346:	f8d3 3094 	ldr.w	r3, [r3, #148]	; 0x94
 800434a:	f5b3 6f80 	cmp.w	r3, #1024	; 0x400
 800434e:	d033      	beq.n	80043b8 <HAL_RCCEx_PeriphCLKConfig+0x420>
 8004350:	f5b3 6f80 	cmp.w	r3, #1024	; 0x400
 8004354:	d82c      	bhi.n	80043b0 <HAL_RCCEx_PeriphCLKConfig+0x418>
 8004356:	f5b3 7f40 	cmp.w	r3, #768	; 0x300
 800435a:	d02f      	beq.n	80043bc <HAL_RCCEx_PeriphCLKConfig+0x424>
 800435c:	f5b3 7f40 	cmp.w	r3, #768	; 0x300
 8004360:	d826      	bhi.n	80043b0 <HAL_RCCEx_PeriphCLKConfig+0x418>
 8004362:	f5b3 7f00 	cmp.w	r3, #512	; 0x200
 8004366:	d008      	beq.n	800437a <HAL_RCCEx_PeriphCLKConfig+0x3e2>
 8004368:	f5b3 7f00 	cmp.w	r3, #512	; 0x200
 800436c:	d820      	bhi.n	80043b0 <HAL_RCCEx_PeriphCLKConfig+0x418>
 800436e:	2b00      	cmp	r3, #0
 8004370:	d00a      	beq.n	8004388 <HAL_RCCEx_PeriphCLKConfig+0x3f0>
 8004372:	f5b3 7f80 	cmp.w	r3, #256	; 0x100
 8004376:	d011      	beq.n	800439c <HAL_RCCEx_PeriphCLKConfig+0x404>
 8004378:	e01a      	b.n	80043b0 <HAL_RCCEx_PeriphCLKConfig+0x418>
    {
      case RCC_SAI2CLKSOURCE_PLL1:      /* PLL is used as clock source for SAI2*/
        /* Enable SAI Clock output generated from System PLL  */
        __HAL_RCC_PLLCLKOUT_ENABLE(RCC_PLL1_DIVP);
 800437a:	4b98      	ldr	r3, [pc, #608]	; (80045dc <HAL_RCCEx_PeriphCLKConfig+0x644>)
 800437c:	6a9b      	ldr	r3, [r3, #40]	; 0x28
 800437e:	4a97      	ldr	r2, [pc, #604]	; (80045dc <HAL_RCCEx_PeriphCLKConfig+0x644>)
 8004380:	f443 3380 	orr.w	r3, r3, #65536	; 0x10000
 8004384:	6293      	str	r3, [r2, #40]	; 0x28
        /* SAI2 clock source config set later after clock selection check */
        break;
 8004386:	e01a      	b.n	80043be <HAL_RCCEx_PeriphCLKConfig+0x426>

      case RCC_SAI2CLKSOURCE_PLL2: /* PLL2 is used as clock source for SAI2*/
        /* PLL2 P input clock, parameters M, N & P configuration and clock output (PLL2ClockOut) */
        ret = RCCEx_PLL2_Config(&(pPeriphClkInit->PLL2));
 8004388:	f8d7 30d4 	ldr.w	r3, [r7, #212]	; 0xd4
 800438c:	3308      	adds	r3, #8
 800438e:	4618      	mov	r0, r3
 8004390:	f000 fbc2 	bl	8004b18 <RCCEx_PLL2_Config>
 8004394:	4603      	mov	r3, r0
 8004396:	f887 30e3 	strb.w	r3, [r7, #227]	; 0xe3
        /* SAI2 clock source config set later after clock selection check */
        break;
 800439a:	e010      	b.n	80043be <HAL_RCCEx_PeriphCLKConfig+0x426>

      case RCC_SAI2CLKSOURCE_PLL3:  /* PLL3 is used as clock source for SAI2*/
        /* PLL3 P input clock, parameters M, N & P configuration and clock output (PLL3ClockOut) */
        ret = RCCEx_PLL3_Config(&(pPeriphClkInit->PLL3));
 800439c:	f8d7 30d4 	ldr.w	r3, [r7, #212]	; 0xd4
 80043a0:	332c      	adds	r3, #44	; 0x2c
 80043a2:	4618      	mov	r0, r3
 80043a4:	f000 fc50 	bl	8004c48 <RCCEx_PLL3_Config>
 80043a8:	4603      	mov	r3, r0
 80043aa:	f887 30e3 	strb.w	r3, [r7, #227]	; 0xe3
        /* SAI2 clock source config set later after clock selection check */
        break;
 80043ae:	e006      	b.n	80043be <HAL_RCCEx_PeriphCLKConfig+0x426>
      case RCC_SAI2CLKSOURCE_HSI:      /* HSI is used as source of SAI2 clock*/
        /* SAI2 clock source config set later after clock selection check */
        break;

      default:
        ret = HAL_ERROR;
 80043b0:	2301      	movs	r3, #1
 80043b2:	f887 30e3 	strb.w	r3, [r7, #227]	; 0xe3
        break;
 80043b6:	e002      	b.n	80043be <HAL_RCCEx_PeriphCLKConfig+0x426>
        break;
 80043b8:	bf00      	nop
 80043ba:	e000      	b.n	80043be <HAL_RCCEx_PeriphCLKConfig+0x426>
        break;
 80043bc:	bf00      	nop
    }

    if (ret == HAL_OK)
 80043be:	f897 30e3 	ldrb.w	r3, [r7, #227]	; 0xe3
 80043c2:	2b00      	cmp	r3, #0
 80043c4:	d10d      	bne.n	80043e2 <HAL_RCCEx_PeriphCLKConfig+0x44a>
    {
      /* Set the source of SAI2 clock*/
      __HAL_RCC_SAI2_CONFIG(pPeriphClkInit->Sai2ClockSelection);
 80043c6:	4b85      	ldr	r3, [pc, #532]	; (80045dc <HAL_RCCEx_PeriphCLKConfig+0x644>)
 80043c8:	f8d3 30e4 	ldr.w	r3, [r3, #228]	; 0xe4
 80043cc:	f423 61e0 	bic.w	r1, r3, #1792	; 0x700
 80043d0:	f8d7 30d4 	ldr.w	r3, [r7, #212]	; 0xd4
 80043d4:	f8d3 3094 	ldr.w	r3, [r3, #148]	; 0x94
 80043d8:	4a80      	ldr	r2, [pc, #512]	; (80045dc <HAL_RCCEx_PeriphCLKConfig+0x644>)
 80043da:	430b      	orrs	r3, r1
 80043dc:	f8c2 30e4 	str.w	r3, [r2, #228]	; 0xe4
 80043e0:	e003      	b.n	80043ea <HAL_RCCEx_PeriphCLKConfig+0x452>
    }
    else
    {
      /* set overall return value */
      status = ret;
 80043e2:	f897 30e3 	ldrb.w	r3, [r7, #227]	; 0xe3
 80043e6:	f887 30e2 	strb.w	r3, [r7, #226]	; 0xe2
    }
  }
#endif /* SAI2 */

  /*-------------------------- ADCDAC clock source configuration ----------------------*/
  if (((pPeriphClkInit->PeriphClockSelection) & RCC_PERIPHCLK_ADCDAC) == RCC_PERIPHCLK_ADCDAC)
 80043ea:	f8d7 30d4 	ldr.w	r3, [r7, #212]	; 0xd4
 80043ee:	e9d3 2300 	ldrd	r2, r3, [r3]
 80043f2:	f402 4300 	and.w	r3, r2, #32768	; 0x8000
 80043f6:	66bb      	str	r3, [r7, #104]	; 0x68
 80043f8:	2300      	movs	r3, #0
 80043fa:	66fb      	str	r3, [r7, #108]	; 0x6c
 80043fc:	e9d7 121a 	ldrd	r1, r2, [r7, #104]	; 0x68
 8004400:	460b      	mov	r3, r1
 8004402:	4313      	orrs	r3, r2
 8004404:	d046      	beq.n	8004494 <HAL_RCCEx_PeriphCLKConfig+0x4fc>
  {
    /* Check the parameters */
    assert_param(IS_RCC_ADCDACCLKSOURCE(pPeriphClkInit->AdcDacClockSelection));

    switch (pPeriphClkInit->AdcDacClockSelection)
 8004406:	f8d7 30d4 	ldr.w	r3, [r7, #212]	; 0xd4
 800440a:	f8d3 30a8 	ldr.w	r3, [r3, #168]	; 0xa8
 800440e:	f5b3 4fa0 	cmp.w	r3, #20480	; 0x5000
 8004412:	d028      	beq.n	8004466 <HAL_RCCEx_PeriphCLKConfig+0x4ce>
 8004414:	f5b3 4fa0 	cmp.w	r3, #20480	; 0x5000
 8004418:	d821      	bhi.n	800445e <HAL_RCCEx_PeriphCLKConfig+0x4c6>
 800441a:	f5b3 4f80 	cmp.w	r3, #16384	; 0x4000
 800441e:	d022      	beq.n	8004466 <HAL_RCCEx_PeriphCLKConfig+0x4ce>
 8004420:	f5b3 4f80 	cmp.w	r3, #16384	; 0x4000
 8004424:	d81b      	bhi.n	800445e <HAL_RCCEx_PeriphCLKConfig+0x4c6>
 8004426:	f5b3 5f40 	cmp.w	r3, #12288	; 0x3000
 800442a:	d01c      	beq.n	8004466 <HAL_RCCEx_PeriphCLKConfig+0x4ce>
 800442c:	f5b3 5f40 	cmp.w	r3, #12288	; 0x3000
 8004430:	d815      	bhi.n	800445e <HAL_RCCEx_PeriphCLKConfig+0x4c6>
 8004432:	f5b3 5f00 	cmp.w	r3, #8192	; 0x2000
 8004436:	d008      	beq.n	800444a <HAL_RCCEx_PeriphCLKConfig+0x4b2>
 8004438:	f5b3 5f00 	cmp.w	r3, #8192	; 0x2000
 800443c:	d80f      	bhi.n	800445e <HAL_RCCEx_PeriphCLKConfig+0x4c6>
 800443e:	2b00      	cmp	r3, #0
 8004440:	d011      	beq.n	8004466 <HAL_RCCEx_PeriphCLKConfig+0x4ce>
 8004442:	f5b3 5f80 	cmp.w	r3, #4096	; 0x1000
 8004446:	d00e      	beq.n	8004466 <HAL_RCCEx_PeriphCLKConfig+0x4ce>
 8004448:	e009      	b.n	800445e <HAL_RCCEx_PeriphCLKConfig+0x4c6>
    {
      case RCC_ADCDACCLKSOURCE_PLL2:
        /* PLL2 input clock, parameters M, N,P, & R configuration and clock output (PLL2ClockOut) */
        ret = RCCEx_PLL2_Config(&(pPeriphClkInit->PLL2));
 800444a:	f8d7 30d4 	ldr.w	r3, [r7, #212]	; 0xd4
 800444e:	3308      	adds	r3, #8
 8004450:	4618      	mov	r0, r3
 8004452:	f000 fb61 	bl	8004b18 <RCCEx_PLL2_Config>
 8004456:	4603      	mov	r3, r0
 8004458:	f887 30e3 	strb.w	r3, [r7, #227]	; 0xe3
        break;
 800445c:	e004      	b.n	8004468 <HAL_RCCEx_PeriphCLKConfig+0x4d0>
      case RCC_ADCDACCLKSOURCE_HSE:
      case RCC_ADCDACCLKSOURCE_HSI:
      case RCC_ADCDACCLKSOURCE_MSIK:
        break;
      default:
        ret = HAL_ERROR;
 800445e:	2301      	movs	r3, #1
 8004460:	f887 30e3 	strb.w	r3, [r7, #227]	; 0xe3
        break;
 8004464:	e000      	b.n	8004468 <HAL_RCCEx_PeriphCLKConfig+0x4d0>
        break;
 8004466:	bf00      	nop
    }

    if (ret == HAL_OK)
 8004468:	f897 30e3 	ldrb.w	r3, [r7, #227]	; 0xe3
 800446c:	2b00      	cmp	r3, #0
 800446e:	d10d      	bne.n	800448c <HAL_RCCEx_PeriphCLKConfig+0x4f4>
    {
      /* Configure the ADC1 interface clock source */
      __HAL_RCC_ADCDAC_CONFIG(pPeriphClkInit->AdcDacClockSelection);
 8004470:	4b5a      	ldr	r3, [pc, #360]	; (80045dc <HAL_RCCEx_PeriphCLKConfig+0x644>)
 8004472:	f8d3 30e8 	ldr.w	r3, [r3, #232]	; 0xe8
 8004476:	f423 41e0 	bic.w	r1, r3, #28672	; 0x7000
 800447a:	f8d7 30d4 	ldr.w	r3, [r7, #212]	; 0xd4
 800447e:	f8d3 30a8 	ldr.w	r3, [r3, #168]	; 0xa8
 8004482:	4a56      	ldr	r2, [pc, #344]	; (80045dc <HAL_RCCEx_PeriphCLKConfig+0x644>)
 8004484:	430b      	orrs	r3, r1
 8004486:	f8c2 30e8 	str.w	r3, [r2, #232]	; 0xe8
 800448a:	e003      	b.n	8004494 <HAL_RCCEx_PeriphCLKConfig+0x4fc>
    }
    else
    {
      /* set overall return value */
      status = ret;
 800448c:	f897 30e3 	ldrb.w	r3, [r7, #227]	; 0xe3
 8004490:	f887 30e2 	strb.w	r3, [r7, #226]	; 0xe2
    }
  }

  /*-------------------------- MDF1 clock source configuration -------------------*/
  if (((pPeriphClkInit->PeriphClockSelection) & RCC_PERIPHCLK_MDF1) == RCC_PERIPHCLK_MDF1)
 8004494:	f8d7 30d4 	ldr.w	r3, [r7, #212]	; 0xd4
 8004498:	e9d3 2300 	ldrd	r2, r3, [r3]
 800449c:	f402 3380 	and.w	r3, r2, #65536	; 0x10000
 80044a0:	663b      	str	r3, [r7, #96]	; 0x60
 80044a2:	2300      	movs	r3, #0
 80044a4:	667b      	str	r3, [r7, #100]	; 0x64
 80044a6:	e9d7 1218 	ldrd	r1, r2, [r7, #96]	; 0x60
 80044aa:	460b      	mov	r3, r1
 80044ac:	4313      	orrs	r3, r2
 80044ae:	d03f      	beq.n	8004530 <HAL_RCCEx_PeriphCLKConfig+0x598>
  {
    /* Check the parameters */
    assert_param(IS_RCC_MDF1CLKSOURCE(pPeriphClkInit->Mdf1ClockSelection));

    switch (pPeriphClkInit->Mdf1ClockSelection)
 80044b0:	f8d7 30d4 	ldr.w	r3, [r7, #212]	; 0xd4
 80044b4:	f8d3 3088 	ldr.w	r3, [r3, #136]	; 0x88
 80044b8:	2b04      	cmp	r3, #4
 80044ba:	d81e      	bhi.n	80044fa <HAL_RCCEx_PeriphCLKConfig+0x562>
 80044bc:	a201      	add	r2, pc, #4	; (adr r2, 80044c4 <HAL_RCCEx_PeriphCLKConfig+0x52c>)
 80044be:	f852 f023 	ldr.w	pc, [r2, r3, lsl #2]
 80044c2:	bf00      	nop
 80044c4:	08004503 	.word	0x08004503
 80044c8:	080044d9 	.word	0x080044d9
 80044cc:	080044e7 	.word	0x080044e7
 80044d0:	08004503 	.word	0x08004503
 80044d4:	08004503 	.word	0x08004503
    {
      case RCC_MDF1CLKSOURCE_PLL1:
        /* Enable PLL1 Clock output generated from System PLL  */
        __HAL_RCC_PLLCLKOUT_ENABLE(RCC_PLL1_DIVP);
 80044d8:	4b40      	ldr	r3, [pc, #256]	; (80045dc <HAL_RCCEx_PeriphCLKConfig+0x644>)
 80044da:	6a9b      	ldr	r3, [r3, #40]	; 0x28
 80044dc:	4a3f      	ldr	r2, [pc, #252]	; (80045dc <HAL_RCCEx_PeriphCLKConfig+0x644>)
 80044de:	f443 3380 	orr.w	r3, r3, #65536	; 0x10000
 80044e2:	6293      	str	r3, [r2, #40]	; 0x28
        break;
 80044e4:	e00e      	b.n	8004504 <HAL_RCCEx_PeriphCLKConfig+0x56c>
      case RCC_MDF1CLKSOURCE_PLL3:
        /* PLL3 Q input clock, parameters M, N & Q configuration and clock output (PLL3ClockOut) */
        ret = RCCEx_PLL3_Config(&(pPeriphClkInit->PLL3));
 80044e6:	f8d7 30d4 	ldr.w	r3, [r7, #212]	; 0xd4
 80044ea:	332c      	adds	r3, #44	; 0x2c
 80044ec:	4618      	mov	r0, r3
 80044ee:	f000 fbab 	bl	8004c48 <RCCEx_PLL3_Config>
 80044f2:	4603      	mov	r3, r0
 80044f4:	f887 30e3 	strb.w	r3, [r7, #227]	; 0xe3
        break;
 80044f8:	e004      	b.n	8004504 <HAL_RCCEx_PeriphCLKConfig+0x56c>
      case RCC_MDF1CLKSOURCE_PIN:
        break;
      case RCC_MDF1CLKSOURCE_MSIK:
        break;
      default:
        ret = HAL_ERROR;
 80044fa:	2301      	movs	r3, #1
 80044fc:	f887 30e3 	strb.w	r3, [r7, #227]	; 0xe3
        break;
 8004500:	e000      	b.n	8004504 <HAL_RCCEx_PeriphCLKConfig+0x56c>
        break;
 8004502:	bf00      	nop
    }
    if (ret == HAL_OK)
 8004504:	f897 30e3 	ldrb.w	r3, [r7, #227]	; 0xe3
 8004508:	2b00      	cmp	r3, #0
 800450a:	d10d      	bne.n	8004528 <HAL_RCCEx_PeriphCLKConfig+0x590>
    {
      /* Configure the MDF1 interface clock source */
      __HAL_RCC_MDF1_CONFIG(pPeriphClkInit->Mdf1ClockSelection);
 800450c:	4b33      	ldr	r3, [pc, #204]	; (80045dc <HAL_RCCEx_PeriphCLKConfig+0x644>)
 800450e:	f8d3 30e4 	ldr.w	r3, [r3, #228]	; 0xe4
 8004512:	f023 0107 	bic.w	r1, r3, #7
 8004516:	f8d7 30d4 	ldr.w	r3, [r7, #212]	; 0xd4
 800451a:	f8d3 3088 	ldr.w	r3, [r3, #136]	; 0x88
 800451e:	4a2f      	ldr	r2, [pc, #188]	; (80045dc <HAL_RCCEx_PeriphCLKConfig+0x644>)
 8004520:	430b      	orrs	r3, r1
 8004522:	f8c2 30e4 	str.w	r3, [r2, #228]	; 0xe4
 8004526:	e003      	b.n	8004530 <HAL_RCCEx_PeriphCLKConfig+0x598>
    }
    else
    {
      /* set overall return value */
      status = ret;
 8004528:	f897 30e3 	ldrb.w	r3, [r7, #227]	; 0xe3
 800452c:	f887 30e2 	strb.w	r3, [r7, #226]	; 0xe2
    }
  }

  /*-------------------------- ADF1 clock source configuration -------------------*/
  if (((pPeriphClkInit->PeriphClockSelection) & RCC_PERIPHCLK_ADF1) == RCC_PERIPHCLK_ADF1)
 8004530:	f8d7 30d4 	ldr.w	r3, [r7, #212]	; 0xd4
 8004534:	e9d3 2300 	ldrd	r2, r3, [r3]
 8004538:	f402 3300 	and.w	r3, r2, #131072	; 0x20000
 800453c:	65bb      	str	r3, [r7, #88]	; 0x58
 800453e:	2300      	movs	r3, #0
 8004540:	65fb      	str	r3, [r7, #92]	; 0x5c
 8004542:	e9d7 1216 	ldrd	r1, r2, [r7, #88]	; 0x58
 8004546:	460b      	mov	r3, r1
 8004548:	4313      	orrs	r3, r2
 800454a:	d04d      	beq.n	80045e8 <HAL_RCCEx_PeriphCLKConfig+0x650>
  {
    /* Check the parameters */
    assert_param(IS_RCC_ADF1CLKSOURCE(pPeriphClkInit->Adf1ClockSelection));
    switch (pPeriphClkInit->Adf1ClockSelection)
 800454c:	f8d7 30d4 	ldr.w	r3, [r7, #212]	; 0xd4
 8004550:	f8d3 308c 	ldr.w	r3, [r3, #140]	; 0x8c
 8004554:	f5b3 2f80 	cmp.w	r3, #262144	; 0x40000
 8004558:	d028      	beq.n	80045ac <HAL_RCCEx_PeriphCLKConfig+0x614>
 800455a:	f5b3 2f80 	cmp.w	r3, #262144	; 0x40000
 800455e:	d821      	bhi.n	80045a4 <HAL_RCCEx_PeriphCLKConfig+0x60c>
 8004560:	f5b3 3f40 	cmp.w	r3, #196608	; 0x30000
 8004564:	d024      	beq.n	80045b0 <HAL_RCCEx_PeriphCLKConfig+0x618>
 8004566:	f5b3 3f40 	cmp.w	r3, #196608	; 0x30000
 800456a:	d81b      	bhi.n	80045a4 <HAL_RCCEx_PeriphCLKConfig+0x60c>
 800456c:	f5b3 3f00 	cmp.w	r3, #131072	; 0x20000
 8004570:	d00e      	beq.n	8004590 <HAL_RCCEx_PeriphCLKConfig+0x5f8>
 8004572:	f5b3 3f00 	cmp.w	r3, #131072	; 0x20000
 8004576:	d815      	bhi.n	80045a4 <HAL_RCCEx_PeriphCLKConfig+0x60c>
 8004578:	2b00      	cmp	r3, #0
 800457a:	d01b      	beq.n	80045b4 <HAL_RCCEx_PeriphCLKConfig+0x61c>
 800457c:	f5b3 3f80 	cmp.w	r3, #65536	; 0x10000
 8004580:	d110      	bne.n	80045a4 <HAL_RCCEx_PeriphCLKConfig+0x60c>
    {
      case RCC_ADF1CLKSOURCE_PLL1:
        /* Enable PLL1 Clock output generated from System PLL  */
        __HAL_RCC_PLLCLKOUT_ENABLE(RCC_PLL1_DIVP);
 8004582:	4b16      	ldr	r3, [pc, #88]	; (80045dc <HAL_RCCEx_PeriphCLKConfig+0x644>)
 8004584:	6a9b      	ldr	r3, [r3, #40]	; 0x28
 8004586:	4a15      	ldr	r2, [pc, #84]	; (80045dc <HAL_RCCEx_PeriphCLKConfig+0x644>)
 8004588:	f443 3380 	orr.w	r3, r3, #65536	; 0x10000
 800458c:	6293      	str	r3, [r2, #40]	; 0x28
        break;
 800458e:	e012      	b.n	80045b6 <HAL_RCCEx_PeriphCLKConfig+0x61e>
      case RCC_ADF1CLKSOURCE_PLL3:
        /* PLL3 Q input clock, parameters M, N & Q configuration and clock output (PLL3ClockOut) */
        ret = RCCEx_PLL3_Config(&(pPeriphClkInit->PLL3));
 8004590:	f8d7 30d4 	ldr.w	r3, [r7, #212]	; 0xd4
 8004594:	332c      	adds	r3, #44	; 0x2c
 8004596:	4618      	mov	r0, r3
 8004598:	f000 fb56 	bl	8004c48 <RCCEx_PLL3_Config>
 800459c:	4603      	mov	r3, r0
 800459e:	f887 30e3 	strb.w	r3, [r7, #227]	; 0xe3
        break;
 80045a2:	e008      	b.n	80045b6 <HAL_RCCEx_PeriphCLKConfig+0x61e>
      case RCC_ADF1CLKSOURCE_PIN:
        break;
      case RCC_ADF1CLKSOURCE_MSIK:
        break;
      default:
        ret = HAL_ERROR;
 80045a4:	2301      	movs	r3, #1
 80045a6:	f887 30e3 	strb.w	r3, [r7, #227]	; 0xe3
        break;
 80045aa:	e004      	b.n	80045b6 <HAL_RCCEx_PeriphCLKConfig+0x61e>
        break;
 80045ac:	bf00      	nop
 80045ae:	e002      	b.n	80045b6 <HAL_RCCEx_PeriphCLKConfig+0x61e>
        break;
 80045b0:	bf00      	nop
 80045b2:	e000      	b.n	80045b6 <HAL_RCCEx_PeriphCLKConfig+0x61e>
        break;
 80045b4:	bf00      	nop
    }
    if (ret == HAL_OK)
 80045b6:	f897 30e3 	ldrb.w	r3, [r7, #227]	; 0xe3
 80045ba:	2b00      	cmp	r3, #0
 80045bc:	d110      	bne.n	80045e0 <HAL_RCCEx_PeriphCLKConfig+0x648>
    {
      /* Configure the ADF1 interface clock source */
      __HAL_RCC_ADF1_CONFIG(pPeriphClkInit->Adf1ClockSelection);
 80045be:	4b07      	ldr	r3, [pc, #28]	; (80045dc <HAL_RCCEx_PeriphCLKConfig+0x644>)
 80045c0:	f8d3 30e8 	ldr.w	r3, [r3, #232]	; 0xe8
 80045c4:	f423 21e0 	bic.w	r1, r3, #458752	; 0x70000
 80045c8:	f8d7 30d4 	ldr.w	r3, [r7, #212]	; 0xd4
 80045cc:	f8d3 308c 	ldr.w	r3, [r3, #140]	; 0x8c
 80045d0:	4a02      	ldr	r2, [pc, #8]	; (80045dc <HAL_RCCEx_PeriphCLKConfig+0x644>)
 80045d2:	430b      	orrs	r3, r1
 80045d4:	f8c2 30e8 	str.w	r3, [r2, #232]	; 0xe8
 80045d8:	e006      	b.n	80045e8 <HAL_RCCEx_PeriphCLKConfig+0x650>
 80045da:	bf00      	nop
 80045dc:	46020c00 	.word	0x46020c00
    }
    else
    {
      /* set overall return value */
      status = ret;
 80045e0:	f897 30e3 	ldrb.w	r3, [r7, #227]	; 0xe3
 80045e4:	f887 30e2 	strb.w	r3, [r7, #226]	; 0xe2
    }
  }

  /*-------------------------- RTC clock source configuration ----------------------*/
  if ((pPeriphClkInit->PeriphClockSelection & RCC_PERIPHCLK_RTC) == RCC_PERIPHCLK_RTC)
 80045e8:	f8d7 30d4 	ldr.w	r3, [r7, #212]	; 0xd4
 80045ec:	e9d3 2300 	ldrd	r2, r3, [r3]
 80045f0:	f402 2380 	and.w	r3, r2, #262144	; 0x40000
 80045f4:	653b      	str	r3, [r7, #80]	; 0x50
 80045f6:	2300      	movs	r3, #0
 80045f8:	657b      	str	r3, [r7, #84]	; 0x54
 80045fa:	e9d7 1214 	ldrd	r1, r2, [r7, #80]	; 0x50
 80045fe:	460b      	mov	r3, r1
 8004600:	4313      	orrs	r3, r2
 8004602:	f000 80b5 	beq.w	8004770 <HAL_RCCEx_PeriphCLKConfig+0x7d8>
  {
    FlagStatus       pwrclkchanged = RESET;
 8004606:	2300      	movs	r3, #0
 8004608:	f887 30e1 	strb.w	r3, [r7, #225]	; 0xe1
    /* Check for RTC Parameters used to output RTCCLK */
    assert_param(IS_RCC_RTCCLKSOURCE(pPeriphClkInit->RTCClockSelection));
    /* Enable Power Clock */
    if (__HAL_RCC_PWR_IS_CLK_DISABLED())
 800460c:	4b9d      	ldr	r3, [pc, #628]	; (8004884 <HAL_RCCEx_PeriphCLKConfig+0x8ec>)
 800460e:	f8d3 3094 	ldr.w	r3, [r3, #148]	; 0x94
 8004612:	f003 0304 	and.w	r3, r3, #4
 8004616:	2b00      	cmp	r3, #0
 8004618:	d113      	bne.n	8004642 <HAL_RCCEx_PeriphCLKConfig+0x6aa>
    {
      __HAL_RCC_PWR_CLK_ENABLE();
 800461a:	4b9a      	ldr	r3, [pc, #616]	; (8004884 <HAL_RCCEx_PeriphCLKConfig+0x8ec>)
 800461c:	f8d3 3094 	ldr.w	r3, [r3, #148]	; 0x94
 8004620:	4a98      	ldr	r2, [pc, #608]	; (8004884 <HAL_RCCEx_PeriphCLKConfig+0x8ec>)
 8004622:	f043 0304 	orr.w	r3, r3, #4
 8004626:	f8c2 3094 	str.w	r3, [r2, #148]	; 0x94
 800462a:	4b96      	ldr	r3, [pc, #600]	; (8004884 <HAL_RCCEx_PeriphCLKConfig+0x8ec>)
 800462c:	f8d3 3094 	ldr.w	r3, [r3, #148]	; 0x94
 8004630:	f003 0304 	and.w	r3, r3, #4
 8004634:	f8c7 30d8 	str.w	r3, [r7, #216]	; 0xd8
 8004638:	f8d7 30d8 	ldr.w	r3, [r7, #216]	; 0xd8
      pwrclkchanged = SET;
 800463c:	2301      	movs	r3, #1
 800463e:	f887 30e1 	strb.w	r3, [r7, #225]	; 0xe1
    }
    /* Enable write access to Backup domain */
    SET_BIT(PWR->DBPR, PWR_DBPR_DBP);
 8004642:	4b91      	ldr	r3, [pc, #580]	; (8004888 <HAL_RCCEx_PeriphCLKConfig+0x8f0>)
 8004644:	6a9b      	ldr	r3, [r3, #40]	; 0x28
 8004646:	4a90      	ldr	r2, [pc, #576]	; (8004888 <HAL_RCCEx_PeriphCLKConfig+0x8f0>)
 8004648:	f043 0301 	orr.w	r3, r3, #1
 800464c:	6293      	str	r3, [r2, #40]	; 0x28

    /* Wait for Backup domain Write protection disable */
    tickstart = HAL_GetTick();
 800464e:	f7fc f9bb 	bl	80009c8 <HAL_GetTick>
 8004652:	f8c7 00dc 	str.w	r0, [r7, #220]	; 0xdc

    while (HAL_IS_BIT_CLR(PWR->DBPR, PWR_DBPR_DBP))
 8004656:	e00b      	b.n	8004670 <HAL_RCCEx_PeriphCLKConfig+0x6d8>
    {
      if ((HAL_GetTick() - tickstart) > RCC_DBP_TIMEOUT_VALUE)
 8004658:	f7fc f9b6 	bl	80009c8 <HAL_GetTick>
 800465c:	4602      	mov	r2, r0
 800465e:	f8d7 30dc 	ldr.w	r3, [r7, #220]	; 0xdc
 8004662:	1ad3      	subs	r3, r2, r3
 8004664:	2b02      	cmp	r3, #2
 8004666:	d903      	bls.n	8004670 <HAL_RCCEx_PeriphCLKConfig+0x6d8>
      {
        ret = HAL_TIMEOUT;
 8004668:	2303      	movs	r3, #3
 800466a:	f887 30e3 	strb.w	r3, [r7, #227]	; 0xe3
        break;
 800466e:	e005      	b.n	800467c <HAL_RCCEx_PeriphCLKConfig+0x6e4>
    while (HAL_IS_BIT_CLR(PWR->DBPR, PWR_DBPR_DBP))
 8004670:	4b85      	ldr	r3, [pc, #532]	; (8004888 <HAL_RCCEx_PeriphCLKConfig+0x8f0>)
 8004672:	6a9b      	ldr	r3, [r3, #40]	; 0x28
 8004674:	f003 0301 	and.w	r3, r3, #1
 8004678:	2b00      	cmp	r3, #0
 800467a:	d0ed      	beq.n	8004658 <HAL_RCCEx_PeriphCLKConfig+0x6c0>
      }
    }

    if (ret == HAL_OK)
 800467c:	f897 30e3 	ldrb.w	r3, [r7, #227]	; 0xe3
 8004680:	2b00      	cmp	r3, #0
 8004682:	d165      	bne.n	8004750 <HAL_RCCEx_PeriphCLKConfig+0x7b8>
    {
      /* Reset the Backup domain only if the RTC Clock source selection is modified from default */
      tmpregister = READ_BIT(RCC->BDCR, RCC_BDCR_RTCSEL);
 8004684:	4b7f      	ldr	r3, [pc, #508]	; (8004884 <HAL_RCCEx_PeriphCLKConfig+0x8ec>)
 8004686:	f8d3 30f0 	ldr.w	r3, [r3, #240]	; 0xf0
 800468a:	f403 7340 	and.w	r3, r3, #768	; 0x300
 800468e:	f8c7 30e4 	str.w	r3, [r7, #228]	; 0xe4

      if ((tmpregister != RCC_RTCCLKSOURCE_NO_CLK) && (tmpregister != pPeriphClkInit->RTCClockSelection))
 8004692:	f8d7 30e4 	ldr.w	r3, [r7, #228]	; 0xe4
 8004696:	2b00      	cmp	r3, #0
 8004698:	d023      	beq.n	80046e2 <HAL_RCCEx_PeriphCLKConfig+0x74a>
 800469a:	f8d7 30d4 	ldr.w	r3, [r7, #212]	; 0xd4
 800469e:	f8d3 20c0 	ldr.w	r2, [r3, #192]	; 0xc0
 80046a2:	f8d7 30e4 	ldr.w	r3, [r7, #228]	; 0xe4
 80046a6:	4293      	cmp	r3, r2
 80046a8:	d01b      	beq.n	80046e2 <HAL_RCCEx_PeriphCLKConfig+0x74a>
      {
        /* Store the content of BDCR register before the reset of Backup Domain */
        tmpregister = READ_BIT(RCC->BDCR, ~(RCC_BDCR_RTCSEL));
 80046aa:	4b76      	ldr	r3, [pc, #472]	; (8004884 <HAL_RCCEx_PeriphCLKConfig+0x8ec>)
 80046ac:	f8d3 30f0 	ldr.w	r3, [r3, #240]	; 0xf0
 80046b0:	f423 7340 	bic.w	r3, r3, #768	; 0x300
 80046b4:	f8c7 30e4 	str.w	r3, [r7, #228]	; 0xe4
        /* RTC Clock selection can be changed only if the Backup Domain is reset */
        __HAL_RCC_BACKUPRESET_FORCE();
 80046b8:	4b72      	ldr	r3, [pc, #456]	; (8004884 <HAL_RCCEx_PeriphCLKConfig+0x8ec>)
 80046ba:	f8d3 30f0 	ldr.w	r3, [r3, #240]	; 0xf0
 80046be:	4a71      	ldr	r2, [pc, #452]	; (8004884 <HAL_RCCEx_PeriphCLKConfig+0x8ec>)
 80046c0:	f443 3380 	orr.w	r3, r3, #65536	; 0x10000
 80046c4:	f8c2 30f0 	str.w	r3, [r2, #240]	; 0xf0
        __HAL_RCC_BACKUPRESET_RELEASE();
 80046c8:	4b6e      	ldr	r3, [pc, #440]	; (8004884 <HAL_RCCEx_PeriphCLKConfig+0x8ec>)
 80046ca:	f8d3 30f0 	ldr.w	r3, [r3, #240]	; 0xf0
 80046ce:	4a6d      	ldr	r2, [pc, #436]	; (8004884 <HAL_RCCEx_PeriphCLKConfig+0x8ec>)
 80046d0:	f423 3380 	bic.w	r3, r3, #65536	; 0x10000
 80046d4:	f8c2 30f0 	str.w	r3, [r2, #240]	; 0xf0
        /* Restore the Content of BDCR register */
        RCC->BDCR = tmpregister;
 80046d8:	4a6a      	ldr	r2, [pc, #424]	; (8004884 <HAL_RCCEx_PeriphCLKConfig+0x8ec>)
 80046da:	f8d7 30e4 	ldr.w	r3, [r7, #228]	; 0xe4
 80046de:	f8c2 30f0 	str.w	r3, [r2, #240]	; 0xf0
      }

      /* Wait for LSE reactivation if LSE was enable prior to Backup Domain reset */
      if (HAL_IS_BIT_SET(tmpregister, RCC_BDCR_LSEON))
 80046e2:	f8d7 30e4 	ldr.w	r3, [r7, #228]	; 0xe4
 80046e6:	f003 0301 	and.w	r3, r3, #1
 80046ea:	2b00      	cmp	r3, #0
 80046ec:	d019      	beq.n	8004722 <HAL_RCCEx_PeriphCLKConfig+0x78a>
      {
        /* Get Start Tick*/
        tickstart = HAL_GetTick();
 80046ee:	f7fc f96b 	bl	80009c8 <HAL_GetTick>
 80046f2:	f8c7 00dc 	str.w	r0, [r7, #220]	; 0xdc

        /* Wait till LSE is ready */
        while (READ_BIT(RCC->BDCR, RCC_BDCR_LSERDY) == 0U)
 80046f6:	e00d      	b.n	8004714 <HAL_RCCEx_PeriphCLKConfig+0x77c>
        {
          if ((HAL_GetTick() - tickstart) > RCC_LSE_TIMEOUT_VALUE)
 80046f8:	f7fc f966 	bl	80009c8 <HAL_GetTick>
 80046fc:	4602      	mov	r2, r0
 80046fe:	f8d7 30dc 	ldr.w	r3, [r7, #220]	; 0xdc
 8004702:	1ad2      	subs	r2, r2, r3
 8004704:	f241 3388 	movw	r3, #5000	; 0x1388
 8004708:	429a      	cmp	r2, r3
 800470a:	d903      	bls.n	8004714 <HAL_RCCEx_PeriphCLKConfig+0x77c>
          {
            ret = HAL_TIMEOUT;
 800470c:	2303      	movs	r3, #3
 800470e:	f887 30e3 	strb.w	r3, [r7, #227]	; 0xe3
            break;
 8004712:	e006      	b.n	8004722 <HAL_RCCEx_PeriphCLKConfig+0x78a>
        while (READ_BIT(RCC->BDCR, RCC_BDCR_LSERDY) == 0U)
 8004714:	4b5b      	ldr	r3, [pc, #364]	; (8004884 <HAL_RCCEx_PeriphCLKConfig+0x8ec>)
 8004716:	f8d3 30f0 	ldr.w	r3, [r3, #240]	; 0xf0
 800471a:	f003 0302 	and.w	r3, r3, #2
 800471e:	2b00      	cmp	r3, #0
 8004720:	d0ea      	beq.n	80046f8 <HAL_RCCEx_PeriphCLKConfig+0x760>
          }
        }
      }

      if (ret == HAL_OK)
 8004722:	f897 30e3 	ldrb.w	r3, [r7, #227]	; 0xe3
 8004726:	2b00      	cmp	r3, #0
 8004728:	d10d      	bne.n	8004746 <HAL_RCCEx_PeriphCLKConfig+0x7ae>
      {
        /* Apply new RTC clock source selection */
        __HAL_RCC_RTC_CONFIG(pPeriphClkInit->RTCClockSelection);
 800472a:	4b56      	ldr	r3, [pc, #344]	; (8004884 <HAL_RCCEx_PeriphCLKConfig+0x8ec>)
 800472c:	f8d3 30f0 	ldr.w	r3, [r3, #240]	; 0xf0
 8004730:	f423 7140 	bic.w	r1, r3, #768	; 0x300
 8004734:	f8d7 30d4 	ldr.w	r3, [r7, #212]	; 0xd4
 8004738:	f8d3 30c0 	ldr.w	r3, [r3, #192]	; 0xc0
 800473c:	4a51      	ldr	r2, [pc, #324]	; (8004884 <HAL_RCCEx_PeriphCLKConfig+0x8ec>)
 800473e:	430b      	orrs	r3, r1
 8004740:	f8c2 30f0 	str.w	r3, [r2, #240]	; 0xf0
 8004744:	e008      	b.n	8004758 <HAL_RCCEx_PeriphCLKConfig+0x7c0>
      }
      else
      {
        /* set overall return value */
        status = ret;
 8004746:	f897 30e3 	ldrb.w	r3, [r7, #227]	; 0xe3
 800474a:	f887 30e2 	strb.w	r3, [r7, #226]	; 0xe2
 800474e:	e003      	b.n	8004758 <HAL_RCCEx_PeriphCLKConfig+0x7c0>
      }
    }
    else
    {
      /* set overall return value */
      status = ret;
 8004750:	f897 30e3 	ldrb.w	r3, [r7, #227]	; 0xe3
 8004754:	f887 30e2 	strb.w	r3, [r7, #226]	; 0xe2
    }

    /* Restore clock configuration if changed */
    if (pwrclkchanged == SET)
 8004758:	f897 30e1 	ldrb.w	r3, [r7, #225]	; 0xe1
 800475c:	2b01      	cmp	r3, #1
 800475e:	d107      	bne.n	8004770 <HAL_RCCEx_PeriphCLKConfig+0x7d8>
    {
      __HAL_RCC_PWR_CLK_DISABLE();
 8004760:	4b48      	ldr	r3, [pc, #288]	; (8004884 <HAL_RCCEx_PeriphCLKConfig+0x8ec>)
 8004762:	f8d3 3094 	ldr.w	r3, [r3, #148]	; 0x94
 8004766:	4a47      	ldr	r2, [pc, #284]	; (8004884 <HAL_RCCEx_PeriphCLKConfig+0x8ec>)
 8004768:	f023 0304 	bic.w	r3, r3, #4
 800476c:	f8c2 3094 	str.w	r3, [r2, #148]	; 0x94
    }
  }

  /*-------------------------------------- ICLK Configuration -----------------------------------*/
  if (((pPeriphClkInit->PeriphClockSelection) & RCC_PERIPHCLK_ICLK) == RCC_PERIPHCLK_ICLK)
 8004770:	f8d7 30d4 	ldr.w	r3, [r7, #212]	; 0xd4
 8004774:	e9d3 2300 	ldrd	r2, r3, [r3]
 8004778:	f402 1380 	and.w	r3, r2, #1048576	; 0x100000
 800477c:	64bb      	str	r3, [r7, #72]	; 0x48
 800477e:	2300      	movs	r3, #0
 8004780:	64fb      	str	r3, [r7, #76]	; 0x4c
 8004782:	e9d7 1212 	ldrd	r1, r2, [r7, #72]	; 0x48
 8004786:	460b      	mov	r3, r1
 8004788:	4313      	orrs	r3, r2
 800478a:	d042      	beq.n	8004812 <HAL_RCCEx_PeriphCLKConfig+0x87a>
  {
    /* Check the parameters */
    assert_param(IS_RCC_ICLKCLKSOURCE(pPeriphClkInit->IclkClockSelection));

    switch (pPeriphClkInit->IclkClockSelection)
 800478c:	f8d7 30d4 	ldr.w	r3, [r7, #212]	; 0xd4
 8004790:	f8d3 30a0 	ldr.w	r3, [r3, #160]	; 0xa0
 8004794:	f1b3 6f40 	cmp.w	r3, #201326592	; 0xc000000
 8004798:	d022      	beq.n	80047e0 <HAL_RCCEx_PeriphCLKConfig+0x848>
 800479a:	f1b3 6f40 	cmp.w	r3, #201326592	; 0xc000000
 800479e:	d81b      	bhi.n	80047d8 <HAL_RCCEx_PeriphCLKConfig+0x840>
 80047a0:	f1b3 6f00 	cmp.w	r3, #134217728	; 0x8000000
 80047a4:	d011      	beq.n	80047ca <HAL_RCCEx_PeriphCLKConfig+0x832>
 80047a6:	f1b3 6f00 	cmp.w	r3, #134217728	; 0x8000000
 80047aa:	d815      	bhi.n	80047d8 <HAL_RCCEx_PeriphCLKConfig+0x840>
 80047ac:	2b00      	cmp	r3, #0
 80047ae:	d019      	beq.n	80047e4 <HAL_RCCEx_PeriphCLKConfig+0x84c>
 80047b0:	f1b3 6f80 	cmp.w	r3, #67108864	; 0x4000000
 80047b4:	d110      	bne.n	80047d8 <HAL_RCCEx_PeriphCLKConfig+0x840>
    {
      case RCC_ICLK_CLKSOURCE_PLL2:
        /* PLL2 input clock, parameters M, N,P,Q & R configuration and clock output (PLL2ClockOut) */
        ret = RCCEx_PLL2_Config(&(pPeriphClkInit->PLL2));
 80047b6:	f8d7 30d4 	ldr.w	r3, [r7, #212]	; 0xd4
 80047ba:	3308      	adds	r3, #8
 80047bc:	4618      	mov	r0, r3
 80047be:	f000 f9ab 	bl	8004b18 <RCCEx_PLL2_Config>
 80047c2:	4603      	mov	r3, r0
 80047c4:	f887 30e3 	strb.w	r3, [r7, #227]	; 0xe3
        break;
 80047c8:	e00d      	b.n	80047e6 <HAL_RCCEx_PeriphCLKConfig+0x84e>
      case RCC_ICLK_CLKSOURCE_PLL1:
        /* Enable ICLK Clock output generated from System PLL  */
        __HAL_RCC_PLLCLKOUT_ENABLE(RCC_PLL1_DIVQ);
 80047ca:	4b2e      	ldr	r3, [pc, #184]	; (8004884 <HAL_RCCEx_PeriphCLKConfig+0x8ec>)
 80047cc:	6a9b      	ldr	r3, [r3, #40]	; 0x28
 80047ce:	4a2d      	ldr	r2, [pc, #180]	; (8004884 <HAL_RCCEx_PeriphCLKConfig+0x8ec>)
 80047d0:	f443 3300 	orr.w	r3, r3, #131072	; 0x20000
 80047d4:	6293      	str	r3, [r2, #40]	; 0x28
        break;
 80047d6:	e006      	b.n	80047e6 <HAL_RCCEx_PeriphCLKConfig+0x84e>
      case RCC_ICLK_CLKSOURCE_HSI48:
        break;
      case RCC_ICLK_CLKSOURCE_MSIK:
        break;
      default:
        ret = HAL_ERROR;
 80047d8:	2301      	movs	r3, #1
 80047da:	f887 30e3 	strb.w	r3, [r7, #227]	; 0xe3
        break;
 80047de:	e002      	b.n	80047e6 <HAL_RCCEx_PeriphCLKConfig+0x84e>
        break;
 80047e0:	bf00      	nop
 80047e2:	e000      	b.n	80047e6 <HAL_RCCEx_PeriphCLKConfig+0x84e>
        break;
 80047e4:	bf00      	nop
    }
    if (ret == HAL_OK)
 80047e6:	f897 30e3 	ldrb.w	r3, [r7, #227]	; 0xe3
 80047ea:	2b00      	cmp	r3, #0
 80047ec:	d10d      	bne.n	800480a <HAL_RCCEx_PeriphCLKConfig+0x872>
    {
      /* Configure the CLK48 source */
      __HAL_RCC_CLK48_CONFIG(pPeriphClkInit->IclkClockSelection);
 80047ee:	4b25      	ldr	r3, [pc, #148]	; (8004884 <HAL_RCCEx_PeriphCLKConfig+0x8ec>)
 80047f0:	f8d3 30e0 	ldr.w	r3, [r3, #224]	; 0xe0
 80047f4:	f023 6140 	bic.w	r1, r3, #201326592	; 0xc000000
 80047f8:	f8d7 30d4 	ldr.w	r3, [r7, #212]	; 0xd4
 80047fc:	f8d3 30a0 	ldr.w	r3, [r3, #160]	; 0xa0
 8004800:	4a20      	ldr	r2, [pc, #128]	; (8004884 <HAL_RCCEx_PeriphCLKConfig+0x8ec>)
 8004802:	430b      	orrs	r3, r1
 8004804:	f8c2 30e0 	str.w	r3, [r2, #224]	; 0xe0
 8004808:	e003      	b.n	8004812 <HAL_RCCEx_PeriphCLKConfig+0x87a>
    }
    else
    {
      /* set overall return value */
      status = ret;
 800480a:	f897 30e3 	ldrb.w	r3, [r7, #227]	; 0xe3
 800480e:	f887 30e2 	strb.w	r3, [r7, #226]	; 0xe2
    }
  }

  /*------------------------------ RNG Configuration -------------------------*/
  if (((pPeriphClkInit->PeriphClockSelection) & RCC_PERIPHCLK_RNG) == RCC_PERIPHCLK_RNG)
 8004812:	f8d7 30d4 	ldr.w	r3, [r7, #212]	; 0xd4
 8004816:	e9d3 2300 	ldrd	r2, r3, [r3]
 800481a:	f402 2300 	and.w	r3, r2, #524288	; 0x80000
 800481e:	643b      	str	r3, [r7, #64]	; 0x40
 8004820:	2300      	movs	r3, #0
 8004822:	647b      	str	r3, [r7, #68]	; 0x44
 8004824:	e9d7 1210 	ldrd	r1, r2, [r7, #64]	; 0x40
 8004828:	460b      	mov	r3, r1
 800482a:	4313      	orrs	r3, r2
 800482c:	d032      	beq.n	8004894 <HAL_RCCEx_PeriphCLKConfig+0x8fc>
  {

    /* Check the parameters */
    assert_param(IS_RCC_RNGCLKSOURCE(pPeriphClkInit->RngClockSelection));

    switch (pPeriphClkInit->RngClockSelection)
 800482e:	f8d7 30d4 	ldr.w	r3, [r7, #212]	; 0xd4
 8004832:	f8d3 3098 	ldr.w	r3, [r3, #152]	; 0x98
 8004836:	f5b3 5f00 	cmp.w	r3, #8192	; 0x2000
 800483a:	d00b      	beq.n	8004854 <HAL_RCCEx_PeriphCLKConfig+0x8bc>
 800483c:	f5b3 5f00 	cmp.w	r3, #8192	; 0x2000
 8004840:	d804      	bhi.n	800484c <HAL_RCCEx_PeriphCLKConfig+0x8b4>
 8004842:	2b00      	cmp	r3, #0
 8004844:	d008      	beq.n	8004858 <HAL_RCCEx_PeriphCLKConfig+0x8c0>
 8004846:	f5b3 5f80 	cmp.w	r3, #4096	; 0x1000
 800484a:	d007      	beq.n	800485c <HAL_RCCEx_PeriphCLKConfig+0x8c4>
      case RCC_RNGCLKSOURCE_HSI48:
        /* HSI48 oscillator is used as source of RNG clock */
        /* RNG clock source configuration done later after clock selection check */
        break;
      default:
        ret = HAL_ERROR;
 800484c:	2301      	movs	r3, #1
 800484e:	f887 30e3 	strb.w	r3, [r7, #227]	; 0xe3
        break;
 8004852:	e004      	b.n	800485e <HAL_RCCEx_PeriphCLKConfig+0x8c6>
        break;
 8004854:	bf00      	nop
 8004856:	e002      	b.n	800485e <HAL_RCCEx_PeriphCLKConfig+0x8c6>
        break;
 8004858:	bf00      	nop
 800485a:	e000      	b.n	800485e <HAL_RCCEx_PeriphCLKConfig+0x8c6>
        break;
 800485c:	bf00      	nop
    }
    if (ret == HAL_OK)
 800485e:	f897 30e3 	ldrb.w	r3, [r7, #227]	; 0xe3
 8004862:	2b00      	cmp	r3, #0
 8004864:	d112      	bne.n	800488c <HAL_RCCEx_PeriphCLKConfig+0x8f4>
    {
      /* Set the source of RNG clock*/
      __HAL_RCC_RNG_CONFIG(pPeriphClkInit->RngClockSelection);
 8004866:	4b07      	ldr	r3, [pc, #28]	; (8004884 <HAL_RCCEx_PeriphCLKConfig+0x8ec>)
 8004868:	f8d3 30e4 	ldr.w	r3, [r3, #228]	; 0xe4
 800486c:	f423 5140 	bic.w	r1, r3, #12288	; 0x3000
 8004870:	f8d7 30d4 	ldr.w	r3, [r7, #212]	; 0xd4
 8004874:	f8d3 3098 	ldr.w	r3, [r3, #152]	; 0x98
 8004878:	4a02      	ldr	r2, [pc, #8]	; (8004884 <HAL_RCCEx_PeriphCLKConfig+0x8ec>)
 800487a:	430b      	orrs	r3, r1
 800487c:	f8c2 30e4 	str.w	r3, [r2, #228]	; 0xe4
 8004880:	e008      	b.n	8004894 <HAL_RCCEx_PeriphCLKConfig+0x8fc>
 8004882:	bf00      	nop
 8004884:	46020c00 	.word	0x46020c00
 8004888:	46020800 	.word	0x46020800
    }
    else
    {
      /* set overall return value */
      status = ret;
 800488c:	f897 30e3 	ldrb.w	r3, [r7, #227]	; 0xe3
 8004890:	f887 30e2 	strb.w	r3, [r7, #226]	; 0xe2
    }
  }

#if defined(SAES)
  /*-------------------------- SAES clock source configuration ----------------*/
  if (((pPeriphClkInit->PeriphClockSelection) & RCC_PERIPHCLK_SAES) == RCC_PERIPHCLK_SAES)
 8004894:	f8d7 30d4 	ldr.w	r3, [r7, #212]	; 0xd4
 8004898:	e9d3 2300 	ldrd	r2, r3, [r3]
 800489c:	f402 5380 	and.w	r3, r2, #4096	; 0x1000
 80048a0:	63bb      	str	r3, [r7, #56]	; 0x38
 80048a2:	2300      	movs	r3, #0
 80048a4:	63fb      	str	r3, [r7, #60]	; 0x3c
 80048a6:	e9d7 120e 	ldrd	r1, r2, [r7, #56]	; 0x38
 80048aa:	460b      	mov	r3, r1
 80048ac:	4313      	orrs	r3, r2
 80048ae:	d00c      	beq.n	80048ca <HAL_RCCEx_PeriphCLKConfig+0x932>
  {
    /* Check the parameters */
    assert_param(IS_RCC_SAESCLKSOURCE(pPeriphClkInit->SaesClockSelection));

    /* Configure the SAES clock source */
    __HAL_RCC_SAES_CONFIG(pPeriphClkInit->SaesClockSelection);
 80048b0:	4b98      	ldr	r3, [pc, #608]	; (8004b14 <HAL_RCCEx_PeriphCLKConfig+0xb7c>)
 80048b2:	f8d3 30e4 	ldr.w	r3, [r3, #228]	; 0xe4
 80048b6:	f423 6100 	bic.w	r1, r3, #2048	; 0x800
 80048ba:	f8d7 30d4 	ldr.w	r3, [r7, #212]	; 0xd4
 80048be:	f8d3 309c 	ldr.w	r3, [r3, #156]	; 0x9c
 80048c2:	4a94      	ldr	r2, [pc, #592]	; (8004b14 <HAL_RCCEx_PeriphCLKConfig+0xb7c>)
 80048c4:	430b      	orrs	r3, r1
 80048c6:	f8c2 30e4 	str.w	r3, [r2, #228]	; 0xe4
  }
#endif /* SAES */

  /*-------------------------- SDMMC1/2 clock source configuration -------------------*/
  if (((pPeriphClkInit->PeriphClockSelection) & RCC_PERIPHCLK_SDMMC) == (RCC_PERIPHCLK_SDMMC))
 80048ca:	f8d7 30d4 	ldr.w	r3, [r7, #212]	; 0xd4
 80048ce:	e9d3 2300 	ldrd	r2, r3, [r3]
 80048d2:	f402 1300 	and.w	r3, r2, #2097152	; 0x200000
 80048d6:	633b      	str	r3, [r7, #48]	; 0x30
 80048d8:	2300      	movs	r3, #0
 80048da:	637b      	str	r3, [r7, #52]	; 0x34
 80048dc:	e9d7 120c 	ldrd	r1, r2, [r7, #48]	; 0x30
 80048e0:	460b      	mov	r3, r1
 80048e2:	4313      	orrs	r3, r2
 80048e4:	d019      	beq.n	800491a <HAL_RCCEx_PeriphCLKConfig+0x982>
  {
    /* Check the parameters */
    assert_param(IS_RCC_SDMMCCLKSOURCE(pPeriphClkInit->SdmmcClockSelection));

    if (pPeriphClkInit->SdmmcClockSelection == RCC_SDMMCCLKSOURCE_PLL1)
 80048e6:	f8d7 30d4 	ldr.w	r3, [r7, #212]	; 0xd4
 80048ea:	f8d3 30a4 	ldr.w	r3, [r3, #164]	; 0xa4
 80048ee:	f5b3 4f80 	cmp.w	r3, #16384	; 0x4000
 80048f2:	d105      	bne.n	8004900 <HAL_RCCEx_PeriphCLKConfig+0x968>
    {
      /* Enable PLL1 P CLK output */
      __HAL_RCC_PLLCLKOUT_ENABLE(RCC_PLL1_DIVP);
 80048f4:	4b87      	ldr	r3, [pc, #540]	; (8004b14 <HAL_RCCEx_PeriphCLKConfig+0xb7c>)
 80048f6:	6a9b      	ldr	r3, [r3, #40]	; 0x28
 80048f8:	4a86      	ldr	r2, [pc, #536]	; (8004b14 <HAL_RCCEx_PeriphCLKConfig+0xb7c>)
 80048fa:	f443 3380 	orr.w	r3, r3, #65536	; 0x10000
 80048fe:	6293      	str	r3, [r2, #40]	; 0x28
    }

    /* Configure the SDMMC1/2 clock source */
    __HAL_RCC_SDMMC_CONFIG(pPeriphClkInit->SdmmcClockSelection);
 8004900:	4b84      	ldr	r3, [pc, #528]	; (8004b14 <HAL_RCCEx_PeriphCLKConfig+0xb7c>)
 8004902:	f8d3 30e4 	ldr.w	r3, [r3, #228]	; 0xe4
 8004906:	f423 4180 	bic.w	r1, r3, #16384	; 0x4000
 800490a:	f8d7 30d4 	ldr.w	r3, [r7, #212]	; 0xd4
 800490e:	f8d3 30a4 	ldr.w	r3, [r3, #164]	; 0xa4
 8004912:	4a80      	ldr	r2, [pc, #512]	; (8004b14 <HAL_RCCEx_PeriphCLKConfig+0xb7c>)
 8004914:	430b      	orrs	r3, r1
 8004916:	f8c2 30e4 	str.w	r3, [r2, #228]	; 0xe4
  }

  /*-------------------------- SPI1 clock source configuration ----------------*/
  if (((pPeriphClkInit->PeriphClockSelection) & RCC_PERIPHCLK_SPI1) == RCC_PERIPHCLK_SPI1)
 800491a:	f8d7 30d4 	ldr.w	r3, [r7, #212]	; 0xd4
 800491e:	e9d3 2300 	ldrd	r2, r3, [r3]
 8004922:	f402 0300 	and.w	r3, r2, #8388608	; 0x800000
 8004926:	62bb      	str	r3, [r7, #40]	; 0x28
 8004928:	2300      	movs	r3, #0
 800492a:	62fb      	str	r3, [r7, #44]	; 0x2c
 800492c:	e9d7 120a 	ldrd	r1, r2, [r7, #40]	; 0x28
 8004930:	460b      	mov	r3, r1
 8004932:	4313      	orrs	r3, r2
 8004934:	d00c      	beq.n	8004950 <HAL_RCCEx_PeriphCLKConfig+0x9b8>
  {
    /* Check the parameters */
    assert_param(IS_RCC_SPI1CLKSOURCE(pPeriphClkInit->Spi1ClockSelection));

    /* Configure the SPI1 clock source */
    __HAL_RCC_SPI1_CONFIG(pPeriphClkInit->Spi1ClockSelection);
 8004936:	4b77      	ldr	r3, [pc, #476]	; (8004b14 <HAL_RCCEx_PeriphCLKConfig+0xb7c>)
 8004938:	f8d3 30e0 	ldr.w	r3, [r3, #224]	; 0xe0
 800493c:	f423 1240 	bic.w	r2, r3, #3145728	; 0x300000
 8004940:	f8d7 30d4 	ldr.w	r3, [r7, #212]	; 0xd4
 8004944:	f8d3 30b4 	ldr.w	r3, [r3, #180]	; 0xb4
 8004948:	4972      	ldr	r1, [pc, #456]	; (8004b14 <HAL_RCCEx_PeriphCLKConfig+0xb7c>)
 800494a:	4313      	orrs	r3, r2
 800494c:	f8c1 30e0 	str.w	r3, [r1, #224]	; 0xe0
  }

  /*-------------------------- SPI2 clock source configuration ----------------*/
  if (((pPeriphClkInit->PeriphClockSelection) & RCC_PERIPHCLK_SPI2) == RCC_PERIPHCLK_SPI2)
 8004950:	f8d7 30d4 	ldr.w	r3, [r7, #212]	; 0xd4
 8004954:	e9d3 2300 	ldrd	r2, r3, [r3]
 8004958:	f002 7380 	and.w	r3, r2, #16777216	; 0x1000000
 800495c:	623b      	str	r3, [r7, #32]
 800495e:	2300      	movs	r3, #0
 8004960:	627b      	str	r3, [r7, #36]	; 0x24
 8004962:	e9d7 1208 	ldrd	r1, r2, [r7, #32]
 8004966:	460b      	mov	r3, r1
 8004968:	4313      	orrs	r3, r2
 800496a:	d00c      	beq.n	8004986 <HAL_RCCEx_PeriphCLKConfig+0x9ee>
  {
    /* Check the parameters */
    assert_param(IS_RCC_SPI2CLKSOURCE(pPeriphClkInit->Spi2ClockSelection));

    /* Configure the SPI2 clock source */
    __HAL_RCC_SPI2_CONFIG(pPeriphClkInit->Spi2ClockSelection);
 800496c:	4b69      	ldr	r3, [pc, #420]	; (8004b14 <HAL_RCCEx_PeriphCLKConfig+0xb7c>)
 800496e:	f8d3 30e0 	ldr.w	r3, [r3, #224]	; 0xe0
 8004972:	f423 3240 	bic.w	r2, r3, #196608	; 0x30000
 8004976:	f8d7 30d4 	ldr.w	r3, [r7, #212]	; 0xd4
 800497a:	f8d3 30b8 	ldr.w	r3, [r3, #184]	; 0xb8
 800497e:	4965      	ldr	r1, [pc, #404]	; (8004b14 <HAL_RCCEx_PeriphCLKConfig+0xb7c>)
 8004980:	4313      	orrs	r3, r2
 8004982:	f8c1 30e0 	str.w	r3, [r1, #224]	; 0xe0
  }

  /*-------------------------- SPI3 clock source configuration ----------------*/
  if (((pPeriphClkInit->PeriphClockSelection) & RCC_PERIPHCLK_SPI3) == RCC_PERIPHCLK_SPI3)
 8004986:	f8d7 30d4 	ldr.w	r3, [r7, #212]	; 0xd4
 800498a:	e9d3 2300 	ldrd	r2, r3, [r3]
 800498e:	f002 7300 	and.w	r3, r2, #33554432	; 0x2000000
 8004992:	61bb      	str	r3, [r7, #24]
 8004994:	2300      	movs	r3, #0
 8004996:	61fb      	str	r3, [r7, #28]
 8004998:	e9d7 1206 	ldrd	r1, r2, [r7, #24]
 800499c:	460b      	mov	r3, r1
 800499e:	4313      	orrs	r3, r2
 80049a0:	d00c      	beq.n	80049bc <HAL_RCCEx_PeriphCLKConfig+0xa24>
  {
    /* Check the parameters */
    assert_param(IS_RCC_SPI3CLKSOURCE(pPeriphClkInit->Spi3ClockSelection));

    /* Configure the SPI3 clock source */
    __HAL_RCC_SPI3_CONFIG(pPeriphClkInit->Spi3ClockSelection);
 80049a2:	4b5c      	ldr	r3, [pc, #368]	; (8004b14 <HAL_RCCEx_PeriphCLKConfig+0xb7c>)
 80049a4:	f8d3 30e8 	ldr.w	r3, [r3, #232]	; 0xe8
 80049a8:	f023 0218 	bic.w	r2, r3, #24
 80049ac:	f8d7 30d4 	ldr.w	r3, [r7, #212]	; 0xd4
 80049b0:	f8d3 30bc 	ldr.w	r3, [r3, #188]	; 0xbc
 80049b4:	4957      	ldr	r1, [pc, #348]	; (8004b14 <HAL_RCCEx_PeriphCLKConfig+0xb7c>)
 80049b6:	4313      	orrs	r3, r2
 80049b8:	f8c1 30e8 	str.w	r3, [r1, #232]	; 0xe8
  }

  /*-------------------------- OctoSPIx clock source configuration ----------------*/
  if (((pPeriphClkInit->PeriphClockSelection) & RCC_PERIPHCLK_OSPI) == RCC_PERIPHCLK_OSPI)
 80049bc:	f8d7 30d4 	ldr.w	r3, [r7, #212]	; 0xd4
 80049c0:	e9d3 2300 	ldrd	r2, r3, [r3]
 80049c4:	f002 6380 	and.w	r3, r2, #67108864	; 0x4000000
 80049c8:	613b      	str	r3, [r7, #16]
 80049ca:	2300      	movs	r3, #0
 80049cc:	617b      	str	r3, [r7, #20]
 80049ce:	e9d7 1204 	ldrd	r1, r2, [r7, #16]
 80049d2:	460b      	mov	r3, r1
 80049d4:	4313      	orrs	r3, r2
 80049d6:	d032      	beq.n	8004a3e <HAL_RCCEx_PeriphCLKConfig+0xaa6>
  {
    /* Check the parameters */
    assert_param(IS_RCC_OSPICLKSOURCE(pPeriphClkInit->OspiClockSelection));

    if (pPeriphClkInit->OspiClockSelection == RCC_OSPICLKSOURCE_PLL1)
 80049d8:	f8d7 30d4 	ldr.w	r3, [r7, #212]	; 0xd4
 80049dc:	f8d3 30b0 	ldr.w	r3, [r3, #176]	; 0xb0
 80049e0:	f5b3 1f00 	cmp.w	r3, #2097152	; 0x200000
 80049e4:	d105      	bne.n	80049f2 <HAL_RCCEx_PeriphCLKConfig+0xa5a>
    {
      /* Enable PLL1 Q CLK output */
      __HAL_RCC_PLLCLKOUT_ENABLE(RCC_PLL1_DIVQ);
 80049e6:	4b4b      	ldr	r3, [pc, #300]	; (8004b14 <HAL_RCCEx_PeriphCLKConfig+0xb7c>)
 80049e8:	6a9b      	ldr	r3, [r3, #40]	; 0x28
 80049ea:	4a4a      	ldr	r2, [pc, #296]	; (8004b14 <HAL_RCCEx_PeriphCLKConfig+0xb7c>)
 80049ec:	f443 3300 	orr.w	r3, r3, #131072	; 0x20000
 80049f0:	6293      	str	r3, [r2, #40]	; 0x28
    }
    if (pPeriphClkInit->OspiClockSelection == RCC_OSPICLKSOURCE_PLL2)
 80049f2:	f8d7 30d4 	ldr.w	r3, [r7, #212]	; 0xd4
 80049f6:	f8d3 30b0 	ldr.w	r3, [r3, #176]	; 0xb0
 80049fa:	f5b3 1f40 	cmp.w	r3, #3145728	; 0x300000
 80049fe:	d108      	bne.n	8004a12 <HAL_RCCEx_PeriphCLKConfig+0xa7a>
    {
      /* PLL2 input clock, parameters M, N & Q configuration and clock output (PLL2ClockOut) */
      ret = RCCEx_PLL2_Config(&(pPeriphClkInit->PLL2));
 8004a00:	f8d7 30d4 	ldr.w	r3, [r7, #212]	; 0xd4
 8004a04:	3308      	adds	r3, #8
 8004a06:	4618      	mov	r0, r3
 8004a08:	f000 f886 	bl	8004b18 <RCCEx_PLL2_Config>
 8004a0c:	4603      	mov	r3, r0
 8004a0e:	f887 30e3 	strb.w	r3, [r7, #227]	; 0xe3
    }
    if (ret == HAL_OK)
 8004a12:	f897 30e3 	ldrb.w	r3, [r7, #227]	; 0xe3
 8004a16:	2b00      	cmp	r3, #0
 8004a18:	d10d      	bne.n	8004a36 <HAL_RCCEx_PeriphCLKConfig+0xa9e>
    {
      /* Configure the OctoSPI clock source */
      __HAL_RCC_OSPI_CONFIG(pPeriphClkInit->OspiClockSelection);
 8004a1a:	4b3e      	ldr	r3, [pc, #248]	; (8004b14 <HAL_RCCEx_PeriphCLKConfig+0xb7c>)
 8004a1c:	f8d3 30e4 	ldr.w	r3, [r3, #228]	; 0xe4
 8004a20:	f423 1240 	bic.w	r2, r3, #3145728	; 0x300000
 8004a24:	f8d7 30d4 	ldr.w	r3, [r7, #212]	; 0xd4
 8004a28:	f8d3 30b0 	ldr.w	r3, [r3, #176]	; 0xb0
 8004a2c:	4939      	ldr	r1, [pc, #228]	; (8004b14 <HAL_RCCEx_PeriphCLKConfig+0xb7c>)
 8004a2e:	4313      	orrs	r3, r2
 8004a30:	f8c1 30e4 	str.w	r3, [r1, #228]	; 0xe4
 8004a34:	e003      	b.n	8004a3e <HAL_RCCEx_PeriphCLKConfig+0xaa6>
    }
    else
    {
      /* set overall return value */
      status = ret;
 8004a36:	f897 30e3 	ldrb.w	r3, [r7, #227]	; 0xe3
 8004a3a:	f887 30e2 	strb.w	r3, [r7, #226]	; 0xe2
    }
  }
#endif /* defined(HSPI1) */

  /*-------------------------- FDCAN1 kernel clock source configuration -------------*/
  if (((pPeriphClkInit->PeriphClockSelection) & RCC_PERIPHCLK_FDCAN1) == (RCC_PERIPHCLK_FDCAN1))
 8004a3e:	f8d7 30d4 	ldr.w	r3, [r7, #212]	; 0xd4
 8004a42:	e9d3 2300 	ldrd	r2, r3, [r3]
 8004a46:	f002 6300 	and.w	r3, r2, #134217728	; 0x8000000
 8004a4a:	60bb      	str	r3, [r7, #8]
 8004a4c:	2300      	movs	r3, #0
 8004a4e:	60fb      	str	r3, [r7, #12]
 8004a50:	e9d7 1202 	ldrd	r1, r2, [r7, #8]
 8004a54:	460b      	mov	r3, r1
 8004a56:	4313      	orrs	r3, r2
 8004a58:	d03a      	beq.n	8004ad0 <HAL_RCCEx_PeriphCLKConfig+0xb38>
  {
    assert_param(IS_RCC_FDCAN1CLK(pPeriphClkInit->Fdcan1ClockSelection));

    switch (pPeriphClkInit->Fdcan1ClockSelection)
 8004a5a:	f8d7 30d4 	ldr.w	r3, [r7, #212]	; 0xd4
 8004a5e:	f8d3 3084 	ldr.w	r3, [r3, #132]	; 0x84
 8004a62:	f1b3 7f00 	cmp.w	r3, #33554432	; 0x2000000
 8004a66:	d00e      	beq.n	8004a86 <HAL_RCCEx_PeriphCLKConfig+0xaee>
 8004a68:	f1b3 7f00 	cmp.w	r3, #33554432	; 0x2000000
 8004a6c:	d815      	bhi.n	8004a9a <HAL_RCCEx_PeriphCLKConfig+0xb02>
 8004a6e:	2b00      	cmp	r3, #0
 8004a70:	d017      	beq.n	8004aa2 <HAL_RCCEx_PeriphCLKConfig+0xb0a>
 8004a72:	f1b3 7f80 	cmp.w	r3, #16777216	; 0x1000000
 8004a76:	d110      	bne.n	8004a9a <HAL_RCCEx_PeriphCLKConfig+0xb02>
      case RCC_FDCAN1CLKSOURCE_HSE:      /* HSE is used as source of FDCAN1 kernel clock*/
        /* FDCAN1 kernel clock source config set later after clock selection check */
        break;
      case RCC_FDCAN1CLKSOURCE_PLL1:      /* PLL1 is used as clock source for FDCAN1 kernel clock*/
        /* Enable 48M2 Clock output generated from System PLL  */
        __HAL_RCC_PLLCLKOUT_ENABLE(RCC_PLL1_DIVQ);
 8004a78:	4b26      	ldr	r3, [pc, #152]	; (8004b14 <HAL_RCCEx_PeriphCLKConfig+0xb7c>)
 8004a7a:	6a9b      	ldr	r3, [r3, #40]	; 0x28
 8004a7c:	4a25      	ldr	r2, [pc, #148]	; (8004b14 <HAL_RCCEx_PeriphCLKConfig+0xb7c>)
 8004a7e:	f443 3300 	orr.w	r3, r3, #131072	; 0x20000
 8004a82:	6293      	str	r3, [r2, #40]	; 0x28
        /* FDCAN1 kernel clock source config set later after clock selection check */
        break;
 8004a84:	e00e      	b.n	8004aa4 <HAL_RCCEx_PeriphCLKConfig+0xb0c>
      case RCC_FDCAN1CLKSOURCE_PLL2:  /* PLL2 is used as clock source for FDCAN1 kernel clock*/
        /* PLL2 input clock, parameters M, N & P configuration and clock output (PLL2ClockOut) */
        ret = RCCEx_PLL2_Config(&(pPeriphClkInit->PLL2));
 8004a86:	f8d7 30d4 	ldr.w	r3, [r7, #212]	; 0xd4
 8004a8a:	3308      	adds	r3, #8
 8004a8c:	4618      	mov	r0, r3
 8004a8e:	f000 f843 	bl	8004b18 <RCCEx_PLL2_Config>
 8004a92:	4603      	mov	r3, r0
 8004a94:	f887 30e3 	strb.w	r3, [r7, #227]	; 0xe3
        /* FDCAN1 kernel clock source config set later after clock selection check */
        break;
 8004a98:	e004      	b.n	8004aa4 <HAL_RCCEx_PeriphCLKConfig+0xb0c>
      default:
        ret = HAL_ERROR;
 8004a9a:	2301      	movs	r3, #1
 8004a9c:	f887 30e3 	strb.w	r3, [r7, #227]	; 0xe3
        break;
 8004aa0:	e000      	b.n	8004aa4 <HAL_RCCEx_PeriphCLKConfig+0xb0c>
        break;
 8004aa2:	bf00      	nop
    }
    if (ret == HAL_OK)
 8004aa4:	f897 30e3 	ldrb.w	r3, [r7, #227]	; 0xe3
 8004aa8:	2b00      	cmp	r3, #0
 8004aaa:	d10d      	bne.n	8004ac8 <HAL_RCCEx_PeriphCLKConfig+0xb30>
    {
      /* Set the source of FDCAN1 kernel clock*/
      __HAL_RCC_FDCAN1_CONFIG(pPeriphClkInit->Fdcan1ClockSelection);
 8004aac:	4b19      	ldr	r3, [pc, #100]	; (8004b14 <HAL_RCCEx_PeriphCLKConfig+0xb7c>)
 8004aae:	f8d3 30e0 	ldr.w	r3, [r3, #224]	; 0xe0
 8004ab2:	f023 7240 	bic.w	r2, r3, #50331648	; 0x3000000
 8004ab6:	f8d7 30d4 	ldr.w	r3, [r7, #212]	; 0xd4
 8004aba:	f8d3 3084 	ldr.w	r3, [r3, #132]	; 0x84
 8004abe:	4915      	ldr	r1, [pc, #84]	; (8004b14 <HAL_RCCEx_PeriphCLKConfig+0xb7c>)
 8004ac0:	4313      	orrs	r3, r2
 8004ac2:	f8c1 30e0 	str.w	r3, [r1, #224]	; 0xe0
 8004ac6:	e003      	b.n	8004ad0 <HAL_RCCEx_PeriphCLKConfig+0xb38>
    }
    else
    {
      /* set overall return value */
      status = ret;
 8004ac8:	f897 30e3 	ldrb.w	r3, [r7, #227]	; 0xe3
 8004acc:	f887 30e2 	strb.w	r3, [r7, #226]	; 0xe2
    }
  }

  /*-------------------------- DAC1 clock source configuration ----------------*/
  if (((pPeriphClkInit->PeriphClockSelection) & RCC_PERIPHCLK_DAC1) == RCC_PERIPHCLK_DAC1)
 8004ad0:	f8d7 30d4 	ldr.w	r3, [r7, #212]	; 0xd4
 8004ad4:	e9d3 2300 	ldrd	r2, r3, [r3]
 8004ad8:	f002 5380 	and.w	r3, r2, #268435456	; 0x10000000
 8004adc:	603b      	str	r3, [r7, #0]
 8004ade:	2300      	movs	r3, #0
 8004ae0:	607b      	str	r3, [r7, #4]
 8004ae2:	e9d7 1200 	ldrd	r1, r2, [r7]
 8004ae6:	460b      	mov	r3, r1
 8004ae8:	4313      	orrs	r3, r2
 8004aea:	d00c      	beq.n	8004b06 <HAL_RCCEx_PeriphCLKConfig+0xb6e>

    /* Check the parameters */
    assert_param(IS_RCC_DAC1CLKSOURCE(pPeriphClkInit->Dac1ClockSelection));

    /* Configure the DAC1 clock source */
    __HAL_RCC_DAC1_CONFIG(pPeriphClkInit->Dac1ClockSelection);
 8004aec:	4b09      	ldr	r3, [pc, #36]	; (8004b14 <HAL_RCCEx_PeriphCLKConfig+0xb7c>)
 8004aee:	f8d3 30e8 	ldr.w	r3, [r3, #232]	; 0xe8
 8004af2:	f423 4200 	bic.w	r2, r3, #32768	; 0x8000
 8004af6:	f8d7 30d4 	ldr.w	r3, [r7, #212]	; 0xd4
 8004afa:	f8d3 30ac 	ldr.w	r3, [r3, #172]	; 0xac
 8004afe:	4905      	ldr	r1, [pc, #20]	; (8004b14 <HAL_RCCEx_PeriphCLKConfig+0xb7c>)
 8004b00:	4313      	orrs	r3, r2
 8004b02:	f8c1 30e8 	str.w	r3, [r1, #232]	; 0xe8
    }
  }

#endif /* defined(USB_OTG_HS) */

  return status;
 8004b06:	f897 30e2 	ldrb.w	r3, [r7, #226]	; 0xe2
}
 8004b0a:	4618      	mov	r0, r3
 8004b0c:	37e8      	adds	r7, #232	; 0xe8
 8004b0e:	46bd      	mov	sp, r7
 8004b10:	e8bd 8fb0 	ldmia.w	sp!, {r4, r5, r7, r8, r9, sl, fp, pc}
 8004b14:	46020c00 	.word	0x46020c00

08004b18 <RCCEx_PLL2_Config>:
  * @note   PLL2 is temporary disabled to apply new parameters
  *
  * @retval HAL status
  */
static HAL_StatusTypeDef RCCEx_PLL2_Config(const RCC_PLL2InitTypeDef *pll2)
{
 8004b18:	b580      	push	{r7, lr}
 8004b1a:	b084      	sub	sp, #16
 8004b1c:	af00      	add	r7, sp, #0
 8004b1e:	6078      	str	r0, [r7, #4]
  assert_param(IS_RCC_PLLP_VALUE(pll2->PLL2P));
  assert_param(IS_RCC_PLLQ_VALUE(pll2->PLL2Q));
  assert_param(IS_RCC_PLLR_VALUE(pll2->PLL2R));

  /* Disable  PLL2 */
  __HAL_RCC_PLL2_DISABLE();
 8004b20:	4b47      	ldr	r3, [pc, #284]	; (8004c40 <RCCEx_PLL2_Config+0x128>)
 8004b22:	681b      	ldr	r3, [r3, #0]
 8004b24:	4a46      	ldr	r2, [pc, #280]	; (8004c40 <RCCEx_PLL2_Config+0x128>)
 8004b26:	f023 6380 	bic.w	r3, r3, #67108864	; 0x4000000
 8004b2a:	6013      	str	r3, [r2, #0]

  /* Get Start Tick*/
  tickstart = HAL_GetTick();
 8004b2c:	f7fb ff4c 	bl	80009c8 <HAL_GetTick>
 8004b30:	60f8      	str	r0, [r7, #12]

  /* Wait till PLL is ready */
  while (__HAL_RCC_GET_FLAG(RCC_FLAG_PLL2RDY) != 0U)
 8004b32:	e008      	b.n	8004b46 <RCCEx_PLL2_Config+0x2e>
  {
    if ((HAL_GetTick() - tickstart) > PLL2_TIMEOUT_VALUE)
 8004b34:	f7fb ff48 	bl	80009c8 <HAL_GetTick>
 8004b38:	4602      	mov	r2, r0
 8004b3a:	68fb      	ldr	r3, [r7, #12]
 8004b3c:	1ad3      	subs	r3, r2, r3
 8004b3e:	2b02      	cmp	r3, #2
 8004b40:	d901      	bls.n	8004b46 <RCCEx_PLL2_Config+0x2e>
    {
      return HAL_TIMEOUT;
 8004b42:	2303      	movs	r3, #3
 8004b44:	e077      	b.n	8004c36 <RCCEx_PLL2_Config+0x11e>
  while (__HAL_RCC_GET_FLAG(RCC_FLAG_PLL2RDY) != 0U)
 8004b46:	4b3e      	ldr	r3, [pc, #248]	; (8004c40 <RCCEx_PLL2_Config+0x128>)
 8004b48:	681b      	ldr	r3, [r3, #0]
 8004b4a:	f003 6300 	and.w	r3, r3, #134217728	; 0x8000000
 8004b4e:	2b00      	cmp	r3, #0
 8004b50:	d1f0      	bne.n	8004b34 <RCCEx_PLL2_Config+0x1c>
    }
  }

  /* Configure PLL2 multiplication and division factors */
  __HAL_RCC_PLL2_CONFIG(pll2->PLL2Source,
 8004b52:	4b3b      	ldr	r3, [pc, #236]	; (8004c40 <RCCEx_PLL2_Config+0x128>)
 8004b54:	6adb      	ldr	r3, [r3, #44]	; 0x2c
 8004b56:	f423 6370 	bic.w	r3, r3, #3840	; 0xf00
 8004b5a:	f023 0303 	bic.w	r3, r3, #3
 8004b5e:	687a      	ldr	r2, [r7, #4]
 8004b60:	6811      	ldr	r1, [r2, #0]
 8004b62:	687a      	ldr	r2, [r7, #4]
 8004b64:	6852      	ldr	r2, [r2, #4]
 8004b66:	3a01      	subs	r2, #1
 8004b68:	0212      	lsls	r2, r2, #8
 8004b6a:	430a      	orrs	r2, r1
 8004b6c:	4934      	ldr	r1, [pc, #208]	; (8004c40 <RCCEx_PLL2_Config+0x128>)
 8004b6e:	4313      	orrs	r3, r2
 8004b70:	62cb      	str	r3, [r1, #44]	; 0x2c
 8004b72:	4b33      	ldr	r3, [pc, #204]	; (8004c40 <RCCEx_PLL2_Config+0x128>)
 8004b74:	6bda      	ldr	r2, [r3, #60]	; 0x3c
 8004b76:	4b33      	ldr	r3, [pc, #204]	; (8004c44 <RCCEx_PLL2_Config+0x12c>)
 8004b78:	4013      	ands	r3, r2
 8004b7a:	687a      	ldr	r2, [r7, #4]
 8004b7c:	6892      	ldr	r2, [r2, #8]
 8004b7e:	3a01      	subs	r2, #1
 8004b80:	f3c2 0108 	ubfx	r1, r2, #0, #9
 8004b84:	687a      	ldr	r2, [r7, #4]
 8004b86:	68d2      	ldr	r2, [r2, #12]
 8004b88:	3a01      	subs	r2, #1
 8004b8a:	0252      	lsls	r2, r2, #9
 8004b8c:	b292      	uxth	r2, r2
 8004b8e:	4311      	orrs	r1, r2
 8004b90:	687a      	ldr	r2, [r7, #4]
 8004b92:	6912      	ldr	r2, [r2, #16]
 8004b94:	3a01      	subs	r2, #1
 8004b96:	0412      	lsls	r2, r2, #16
 8004b98:	f402 02fe 	and.w	r2, r2, #8323072	; 0x7f0000
 8004b9c:	4311      	orrs	r1, r2
 8004b9e:	687a      	ldr	r2, [r7, #4]
 8004ba0:	6952      	ldr	r2, [r2, #20]
 8004ba2:	3a01      	subs	r2, #1
 8004ba4:	0612      	lsls	r2, r2, #24
 8004ba6:	f002 42fe 	and.w	r2, r2, #2130706432	; 0x7f000000
 8004baa:	430a      	orrs	r2, r1
 8004bac:	4924      	ldr	r1, [pc, #144]	; (8004c40 <RCCEx_PLL2_Config+0x128>)
 8004bae:	4313      	orrs	r3, r2
 8004bb0:	63cb      	str	r3, [r1, #60]	; 0x3c
                        pll2->PLL2P,
                        pll2->PLL2Q,
                        pll2->PLL2R);

  /* Select PLL2 input reference frequency range: VCI */
  __HAL_RCC_PLL2_VCIRANGE(pll2->PLL2RGE);
 8004bb2:	4b23      	ldr	r3, [pc, #140]	; (8004c40 <RCCEx_PLL2_Config+0x128>)
 8004bb4:	6adb      	ldr	r3, [r3, #44]	; 0x2c
 8004bb6:	f023 020c 	bic.w	r2, r3, #12
 8004bba:	687b      	ldr	r3, [r7, #4]
 8004bbc:	699b      	ldr	r3, [r3, #24]
 8004bbe:	4920      	ldr	r1, [pc, #128]	; (8004c40 <RCCEx_PLL2_Config+0x128>)
 8004bc0:	4313      	orrs	r3, r2
 8004bc2:	62cb      	str	r3, [r1, #44]	; 0x2c

  /* Configure the PLL2 Clock output(s) */
  __HAL_RCC_PLL2CLKOUT_ENABLE(pll2->PLL2ClockOut);
 8004bc4:	4b1e      	ldr	r3, [pc, #120]	; (8004c40 <RCCEx_PLL2_Config+0x128>)
 8004bc6:	6ada      	ldr	r2, [r3, #44]	; 0x2c
 8004bc8:	687b      	ldr	r3, [r7, #4]
 8004bca:	6a1b      	ldr	r3, [r3, #32]
 8004bcc:	491c      	ldr	r1, [pc, #112]	; (8004c40 <RCCEx_PLL2_Config+0x128>)
 8004bce:	4313      	orrs	r3, r2
 8004bd0:	62cb      	str	r3, [r1, #44]	; 0x2c

  /* Disable PLL2FRACN  */
  __HAL_RCC_PLL2FRACN_DISABLE();
 8004bd2:	4b1b      	ldr	r3, [pc, #108]	; (8004c40 <RCCEx_PLL2_Config+0x128>)
 8004bd4:	6adb      	ldr	r3, [r3, #44]	; 0x2c
 8004bd6:	4a1a      	ldr	r2, [pc, #104]	; (8004c40 <RCCEx_PLL2_Config+0x128>)
 8004bd8:	f023 0310 	bic.w	r3, r3, #16
 8004bdc:	62d3      	str	r3, [r2, #44]	; 0x2c

  /* Configures PLL2 clock Fractional Part Of The Multiplication Factor */
  __HAL_RCC_PLL2FRACN_CONFIG(pll2->PLL2FRACN);
 8004bde:	4b18      	ldr	r3, [pc, #96]	; (8004c40 <RCCEx_PLL2_Config+0x128>)
 8004be0:	6c1b      	ldr	r3, [r3, #64]	; 0x40
 8004be2:	f423 437f 	bic.w	r3, r3, #65280	; 0xff00
 8004be6:	f023 03f8 	bic.w	r3, r3, #248	; 0xf8
 8004bea:	687a      	ldr	r2, [r7, #4]
 8004bec:	69d2      	ldr	r2, [r2, #28]
 8004bee:	00d2      	lsls	r2, r2, #3
 8004bf0:	4913      	ldr	r1, [pc, #76]	; (8004c40 <RCCEx_PLL2_Config+0x128>)
 8004bf2:	4313      	orrs	r3, r2
 8004bf4:	640b      	str	r3, [r1, #64]	; 0x40

  /* Enable PLL2FRACN  */
  __HAL_RCC_PLL2FRACN_ENABLE();
 8004bf6:	4b12      	ldr	r3, [pc, #72]	; (8004c40 <RCCEx_PLL2_Config+0x128>)
 8004bf8:	6adb      	ldr	r3, [r3, #44]	; 0x2c
 8004bfa:	4a11      	ldr	r2, [pc, #68]	; (8004c40 <RCCEx_PLL2_Config+0x128>)
 8004bfc:	f043 0310 	orr.w	r3, r3, #16
 8004c00:	62d3      	str	r3, [r2, #44]	; 0x2c

  /* Enable  PLL2 */
  __HAL_RCC_PLL2_ENABLE();
 8004c02:	4b0f      	ldr	r3, [pc, #60]	; (8004c40 <RCCEx_PLL2_Config+0x128>)
 8004c04:	681b      	ldr	r3, [r3, #0]
 8004c06:	4a0e      	ldr	r2, [pc, #56]	; (8004c40 <RCCEx_PLL2_Config+0x128>)
 8004c08:	f043 6380 	orr.w	r3, r3, #67108864	; 0x4000000
 8004c0c:	6013      	str	r3, [r2, #0]

  /* Get Start Tick*/
  tickstart = HAL_GetTick();
 8004c0e:	f7fb fedb 	bl	80009c8 <HAL_GetTick>
 8004c12:	60f8      	str	r0, [r7, #12]

  /* Wait till PLL2 is ready */
  while (__HAL_RCC_GET_FLAG(RCC_FLAG_PLL2RDY) == 0U)
 8004c14:	e008      	b.n	8004c28 <RCCEx_PLL2_Config+0x110>
  {
    if ((HAL_GetTick() - tickstart) > PLL2_TIMEOUT_VALUE)
 8004c16:	f7fb fed7 	bl	80009c8 <HAL_GetTick>
 8004c1a:	4602      	mov	r2, r0
 8004c1c:	68fb      	ldr	r3, [r7, #12]
 8004c1e:	1ad3      	subs	r3, r2, r3
 8004c20:	2b02      	cmp	r3, #2
 8004c22:	d901      	bls.n	8004c28 <RCCEx_PLL2_Config+0x110>
    {
      return HAL_TIMEOUT;
 8004c24:	2303      	movs	r3, #3
 8004c26:	e006      	b.n	8004c36 <RCCEx_PLL2_Config+0x11e>
  while (__HAL_RCC_GET_FLAG(RCC_FLAG_PLL2RDY) == 0U)
 8004c28:	4b05      	ldr	r3, [pc, #20]	; (8004c40 <RCCEx_PLL2_Config+0x128>)
 8004c2a:	681b      	ldr	r3, [r3, #0]
 8004c2c:	f003 6300 	and.w	r3, r3, #134217728	; 0x8000000
 8004c30:	2b00      	cmp	r3, #0
 8004c32:	d0f0      	beq.n	8004c16 <RCCEx_PLL2_Config+0xfe>
    }
  }
  return HAL_OK;
 8004c34:	2300      	movs	r3, #0

}
 8004c36:	4618      	mov	r0, r3
 8004c38:	3710      	adds	r7, #16
 8004c3a:	46bd      	mov	sp, r7
 8004c3c:	bd80      	pop	{r7, pc}
 8004c3e:	bf00      	nop
 8004c40:	46020c00 	.word	0x46020c00
 8004c44:	80800000 	.word	0x80800000

08004c48 <RCCEx_PLL3_Config>:
  *         contains the configuration parameters as well as VCI clock ranges.
  * @note   PLL3 is temporary disabled to apply new parameters
  * @retval HAL status
  */
static HAL_StatusTypeDef RCCEx_PLL3_Config(const RCC_PLL3InitTypeDef *pll3)
{
 8004c48:	b580      	push	{r7, lr}
 8004c4a:	b084      	sub	sp, #16
 8004c4c:	af00      	add	r7, sp, #0
 8004c4e:	6078      	str	r0, [r7, #4]
  assert_param(IS_RCC_PLLP_VALUE(pll3->PLL3P));
  assert_param(IS_RCC_PLLQ_VALUE(pll3->PLL3Q));
  assert_param(IS_RCC_PLLR_VALUE(pll3->PLL3R));

  /* Disable  PLL3 */
  __HAL_RCC_PLL3_DISABLE();
 8004c50:	4b47      	ldr	r3, [pc, #284]	; (8004d70 <RCCEx_PLL3_Config+0x128>)
 8004c52:	681b      	ldr	r3, [r3, #0]
 8004c54:	4a46      	ldr	r2, [pc, #280]	; (8004d70 <RCCEx_PLL3_Config+0x128>)
 8004c56:	f023 5380 	bic.w	r3, r3, #268435456	; 0x10000000
 8004c5a:	6013      	str	r3, [r2, #0]

  /* Get Start Tick*/
  tickstart = HAL_GetTick();
 8004c5c:	f7fb feb4 	bl	80009c8 <HAL_GetTick>
 8004c60:	60f8      	str	r0, [r7, #12]

  /* Wait till PLL is ready */
  while (__HAL_RCC_GET_FLAG(RCC_FLAG_PLL3RDY) != 0U)
 8004c62:	e008      	b.n	8004c76 <RCCEx_PLL3_Config+0x2e>
  {
    if ((HAL_GetTick() - tickstart) > PLL3_TIMEOUT_VALUE)
 8004c64:	f7fb feb0 	bl	80009c8 <HAL_GetTick>
 8004c68:	4602      	mov	r2, r0
 8004c6a:	68fb      	ldr	r3, [r7, #12]
 8004c6c:	1ad3      	subs	r3, r2, r3
 8004c6e:	2b02      	cmp	r3, #2
 8004c70:	d901      	bls.n	8004c76 <RCCEx_PLL3_Config+0x2e>
    {
      return HAL_TIMEOUT;
 8004c72:	2303      	movs	r3, #3
 8004c74:	e077      	b.n	8004d66 <RCCEx_PLL3_Config+0x11e>
  while (__HAL_RCC_GET_FLAG(RCC_FLAG_PLL3RDY) != 0U)
 8004c76:	4b3e      	ldr	r3, [pc, #248]	; (8004d70 <RCCEx_PLL3_Config+0x128>)
 8004c78:	681b      	ldr	r3, [r3, #0]
 8004c7a:	f003 5300 	and.w	r3, r3, #536870912	; 0x20000000
 8004c7e:	2b00      	cmp	r3, #0
 8004c80:	d1f0      	bne.n	8004c64 <RCCEx_PLL3_Config+0x1c>
    }
  }

  /* Configure PLL3 multiplication and division factors */
  __HAL_RCC_PLL3_CONFIG(pll3->PLL3Source,
 8004c82:	4b3b      	ldr	r3, [pc, #236]	; (8004d70 <RCCEx_PLL3_Config+0x128>)
 8004c84:	6b1b      	ldr	r3, [r3, #48]	; 0x30
 8004c86:	f423 6370 	bic.w	r3, r3, #3840	; 0xf00
 8004c8a:	f023 0303 	bic.w	r3, r3, #3
 8004c8e:	687a      	ldr	r2, [r7, #4]
 8004c90:	6811      	ldr	r1, [r2, #0]
 8004c92:	687a      	ldr	r2, [r7, #4]
 8004c94:	6852      	ldr	r2, [r2, #4]
 8004c96:	3a01      	subs	r2, #1
 8004c98:	0212      	lsls	r2, r2, #8
 8004c9a:	430a      	orrs	r2, r1
 8004c9c:	4934      	ldr	r1, [pc, #208]	; (8004d70 <RCCEx_PLL3_Config+0x128>)
 8004c9e:	4313      	orrs	r3, r2
 8004ca0:	630b      	str	r3, [r1, #48]	; 0x30
 8004ca2:	4b33      	ldr	r3, [pc, #204]	; (8004d70 <RCCEx_PLL3_Config+0x128>)
 8004ca4:	6c5a      	ldr	r2, [r3, #68]	; 0x44
 8004ca6:	4b33      	ldr	r3, [pc, #204]	; (8004d74 <RCCEx_PLL3_Config+0x12c>)
 8004ca8:	4013      	ands	r3, r2
 8004caa:	687a      	ldr	r2, [r7, #4]
 8004cac:	6892      	ldr	r2, [r2, #8]
 8004cae:	3a01      	subs	r2, #1
 8004cb0:	f3c2 0108 	ubfx	r1, r2, #0, #9
 8004cb4:	687a      	ldr	r2, [r7, #4]
 8004cb6:	68d2      	ldr	r2, [r2, #12]
 8004cb8:	3a01      	subs	r2, #1
 8004cba:	0252      	lsls	r2, r2, #9
 8004cbc:	b292      	uxth	r2, r2
 8004cbe:	4311      	orrs	r1, r2
 8004cc0:	687a      	ldr	r2, [r7, #4]
 8004cc2:	6912      	ldr	r2, [r2, #16]
 8004cc4:	3a01      	subs	r2, #1
 8004cc6:	0412      	lsls	r2, r2, #16
 8004cc8:	f402 02fe 	and.w	r2, r2, #8323072	; 0x7f0000
 8004ccc:	4311      	orrs	r1, r2
 8004cce:	687a      	ldr	r2, [r7, #4]
 8004cd0:	6952      	ldr	r2, [r2, #20]
 8004cd2:	3a01      	subs	r2, #1
 8004cd4:	0612      	lsls	r2, r2, #24
 8004cd6:	f002 42fe 	and.w	r2, r2, #2130706432	; 0x7f000000
 8004cda:	430a      	orrs	r2, r1
 8004cdc:	4924      	ldr	r1, [pc, #144]	; (8004d70 <RCCEx_PLL3_Config+0x128>)
 8004cde:	4313      	orrs	r3, r2
 8004ce0:	644b      	str	r3, [r1, #68]	; 0x44
                        pll3->PLL3P,
                        pll3->PLL3Q,
                        pll3->PLL3R);

  /* Select PLL3 input reference frequency range: VCI */
  __HAL_RCC_PLL3_VCIRANGE(pll3->PLL3RGE);
 8004ce2:	4b23      	ldr	r3, [pc, #140]	; (8004d70 <RCCEx_PLL3_Config+0x128>)
 8004ce4:	6b1b      	ldr	r3, [r3, #48]	; 0x30
 8004ce6:	f023 020c 	bic.w	r2, r3, #12
 8004cea:	687b      	ldr	r3, [r7, #4]
 8004cec:	699b      	ldr	r3, [r3, #24]
 8004cee:	4920      	ldr	r1, [pc, #128]	; (8004d70 <RCCEx_PLL3_Config+0x128>)
 8004cf0:	4313      	orrs	r3, r2
 8004cf2:	630b      	str	r3, [r1, #48]	; 0x30

  /* Configure the PLL3 Clock output(s) */
  __HAL_RCC_PLL3CLKOUT_ENABLE(pll3->PLL3ClockOut);
 8004cf4:	4b1e      	ldr	r3, [pc, #120]	; (8004d70 <RCCEx_PLL3_Config+0x128>)
 8004cf6:	6b1a      	ldr	r2, [r3, #48]	; 0x30
 8004cf8:	687b      	ldr	r3, [r7, #4]
 8004cfa:	6a1b      	ldr	r3, [r3, #32]
 8004cfc:	491c      	ldr	r1, [pc, #112]	; (8004d70 <RCCEx_PLL3_Config+0x128>)
 8004cfe:	4313      	orrs	r3, r2
 8004d00:	630b      	str	r3, [r1, #48]	; 0x30

  /* Disable PLL3FRACN  */
  __HAL_RCC_PLL3FRACN_DISABLE();
 8004d02:	4b1b      	ldr	r3, [pc, #108]	; (8004d70 <RCCEx_PLL3_Config+0x128>)
 8004d04:	6b1b      	ldr	r3, [r3, #48]	; 0x30
 8004d06:	4a1a      	ldr	r2, [pc, #104]	; (8004d70 <RCCEx_PLL3_Config+0x128>)
 8004d08:	f023 0310 	bic.w	r3, r3, #16
 8004d0c:	6313      	str	r3, [r2, #48]	; 0x30

  /* Configures PLL3 clock Fractional Part Of The Multiplication Factor */
  __HAL_RCC_PLL3FRACN_CONFIG(pll3->PLL3FRACN);
 8004d0e:	4b18      	ldr	r3, [pc, #96]	; (8004d70 <RCCEx_PLL3_Config+0x128>)
 8004d10:	6c9b      	ldr	r3, [r3, #72]	; 0x48
 8004d12:	f423 437f 	bic.w	r3, r3, #65280	; 0xff00
 8004d16:	f023 03f8 	bic.w	r3, r3, #248	; 0xf8
 8004d1a:	687a      	ldr	r2, [r7, #4]
 8004d1c:	69d2      	ldr	r2, [r2, #28]
 8004d1e:	00d2      	lsls	r2, r2, #3
 8004d20:	4913      	ldr	r1, [pc, #76]	; (8004d70 <RCCEx_PLL3_Config+0x128>)
 8004d22:	4313      	orrs	r3, r2
 8004d24:	648b      	str	r3, [r1, #72]	; 0x48

  /* Enable PLL3FRACN  */
  __HAL_RCC_PLL3FRACN_ENABLE();
 8004d26:	4b12      	ldr	r3, [pc, #72]	; (8004d70 <RCCEx_PLL3_Config+0x128>)
 8004d28:	6b1b      	ldr	r3, [r3, #48]	; 0x30
 8004d2a:	4a11      	ldr	r2, [pc, #68]	; (8004d70 <RCCEx_PLL3_Config+0x128>)
 8004d2c:	f043 0310 	orr.w	r3, r3, #16
 8004d30:	6313      	str	r3, [r2, #48]	; 0x30

  /* Enable  PLL3 */
  __HAL_RCC_PLL3_ENABLE();
 8004d32:	4b0f      	ldr	r3, [pc, #60]	; (8004d70 <RCCEx_PLL3_Config+0x128>)
 8004d34:	681b      	ldr	r3, [r3, #0]
 8004d36:	4a0e      	ldr	r2, [pc, #56]	; (8004d70 <RCCEx_PLL3_Config+0x128>)
 8004d38:	f043 5380 	orr.w	r3, r3, #268435456	; 0x10000000
 8004d3c:	6013      	str	r3, [r2, #0]

  /* Get Start Tick*/
  tickstart = HAL_GetTick();
 8004d3e:	f7fb fe43 	bl	80009c8 <HAL_GetTick>
 8004d42:	60f8      	str	r0, [r7, #12]

  /* Wait till PLL3 is ready */
  while (__HAL_RCC_GET_FLAG(RCC_FLAG_PLL3RDY) == 0U)
 8004d44:	e008      	b.n	8004d58 <RCCEx_PLL3_Config+0x110>
  {
    if ((HAL_GetTick() - tickstart) > PLL3_TIMEOUT_VALUE)
 8004d46:	f7fb fe3f 	bl	80009c8 <HAL_GetTick>
 8004d4a:	4602      	mov	r2, r0
 8004d4c:	68fb      	ldr	r3, [r7, #12]
 8004d4e:	1ad3      	subs	r3, r2, r3
 8004d50:	2b02      	cmp	r3, #2
 8004d52:	d901      	bls.n	8004d58 <RCCEx_PLL3_Config+0x110>
    {
      return HAL_TIMEOUT;
 8004d54:	2303      	movs	r3, #3
 8004d56:	e006      	b.n	8004d66 <RCCEx_PLL3_Config+0x11e>
  while (__HAL_RCC_GET_FLAG(RCC_FLAG_PLL3RDY) == 0U)
 8004d58:	4b05      	ldr	r3, [pc, #20]	; (8004d70 <RCCEx_PLL3_Config+0x128>)
 8004d5a:	681b      	ldr	r3, [r3, #0]
 8004d5c:	f003 5300 	and.w	r3, r3, #536870912	; 0x20000000
 8004d60:	2b00      	cmp	r3, #0
 8004d62:	d0f0      	beq.n	8004d46 <RCCEx_PLL3_Config+0xfe>
    }
  }
  return HAL_OK;
 8004d64:	2300      	movs	r3, #0
}
 8004d66:	4618      	mov	r0, r3
 8004d68:	3710      	adds	r7, #16
 8004d6a:	46bd      	mov	sp, r7
 8004d6c:	bd80      	pop	{r7, pc}
 8004d6e:	bf00      	nop
 8004d70:	46020c00 	.word	0x46020c00
 8004d74:	80800000 	.word	0x80800000

08004d78 <HAL_RNG_Init>:
  * @param  hrng pointer to a RNG_HandleTypeDef structure that contains
  *                the configuration information for RNG.
  * @retval HAL status
  */
HAL_StatusTypeDef HAL_RNG_Init(RNG_HandleTypeDef *hrng)
{
 8004d78:	b580      	push	{r7, lr}
 8004d7a:	b084      	sub	sp, #16
 8004d7c:	af00      	add	r7, sp, #0
 8004d7e:	6078      	str	r0, [r7, #4]
  uint32_t tickstart;
  /* Check the RNG handle allocation */
  if (hrng == NULL)
 8004d80:	687b      	ldr	r3, [r7, #4]
 8004d82:	2b00      	cmp	r3, #0
 8004d84:	d101      	bne.n	8004d8a <HAL_RNG_Init+0x12>
  {
    return HAL_ERROR;
 8004d86:	2301      	movs	r3, #1
 8004d88:	e08b      	b.n	8004ea2 <HAL_RNG_Init+0x12a>

    /* Init the low level hardware */
    hrng->MspInitCallback(hrng);
  }
#else
  if (hrng->State == HAL_RNG_STATE_RESET)
 8004d8a:	687b      	ldr	r3, [r7, #4]
 8004d8c:	7a5b      	ldrb	r3, [r3, #9]
 8004d8e:	b2db      	uxtb	r3, r3
 8004d90:	2b00      	cmp	r3, #0
 8004d92:	d105      	bne.n	8004da0 <HAL_RNG_Init+0x28>
  {
    /* Allocate lock resource and initialize it */
    hrng->Lock = HAL_UNLOCKED;
 8004d94:	687b      	ldr	r3, [r7, #4]
 8004d96:	2200      	movs	r2, #0
 8004d98:	721a      	strb	r2, [r3, #8]

    /* Init the low level hardware */
    HAL_RNG_MspInit(hrng);
 8004d9a:	6878      	ldr	r0, [r7, #4]
 8004d9c:	f7fb fc34 	bl	8000608 <HAL_RNG_MspInit>
  }
#endif /* USE_HAL_RNG_REGISTER_CALLBACKS */

  /* Change RNG peripheral state */
  hrng->State = HAL_RNG_STATE_BUSY;
 8004da0:	687b      	ldr	r3, [r7, #4]
 8004da2:	2202      	movs	r2, #2
 8004da4:	725a      	strb	r2, [r3, #9]

  /* Disable RNG */
  __HAL_RNG_DISABLE(hrng);
 8004da6:	687b      	ldr	r3, [r7, #4]
 8004da8:	681b      	ldr	r3, [r3, #0]
 8004daa:	681a      	ldr	r2, [r3, #0]
 8004dac:	687b      	ldr	r3, [r7, #4]
 8004dae:	681b      	ldr	r3, [r3, #0]
 8004db0:	f022 0204 	bic.w	r2, r2, #4
 8004db4:	601a      	str	r2, [r3, #0]

  /* Clock Error Detection Configuration when CONDRT bit is set to 1 */
  MODIFY_REG(hrng->Instance->CR, RNG_CR_CED | RNG_CR_CONDRST, hrng->Init.ClockErrorDetection | RNG_CR_CONDRST);
 8004db6:	687b      	ldr	r3, [r7, #4]
 8004db8:	681b      	ldr	r3, [r3, #0]
 8004dba:	681b      	ldr	r3, [r3, #0]
 8004dbc:	f023 4380 	bic.w	r3, r3, #1073741824	; 0x40000000
 8004dc0:	f023 0320 	bic.w	r3, r3, #32
 8004dc4:	687a      	ldr	r2, [r7, #4]
 8004dc6:	6852      	ldr	r2, [r2, #4]
 8004dc8:	431a      	orrs	r2, r3
 8004dca:	687b      	ldr	r3, [r7, #4]
 8004dcc:	681b      	ldr	r3, [r3, #0]
 8004dce:	f042 4280 	orr.w	r2, r2, #1073741824	; 0x40000000
 8004dd2:	601a      	str	r2, [r3, #0]

  /* Writing bit CONDRST=0 */
  CLEAR_BIT(hrng->Instance->CR, RNG_CR_CONDRST);
 8004dd4:	687b      	ldr	r3, [r7, #4]
 8004dd6:	681b      	ldr	r3, [r3, #0]
 8004dd8:	681a      	ldr	r2, [r3, #0]
 8004dda:	687b      	ldr	r3, [r7, #4]
 8004ddc:	681b      	ldr	r3, [r3, #0]
 8004dde:	f022 4280 	bic.w	r2, r2, #1073741824	; 0x40000000
 8004de2:	601a      	str	r2, [r3, #0]

  /* Get tick */
  tickstart = HAL_GetTick();
 8004de4:	f7fb fdf0 	bl	80009c8 <HAL_GetTick>
 8004de8:	60f8      	str	r0, [r7, #12]

  /* Wait for conditioning reset process to be completed */
  while (HAL_IS_BIT_SET(hrng->Instance->CR, RNG_CR_CONDRST))
 8004dea:	e016      	b.n	8004e1a <HAL_RNG_Init+0xa2>
  {
    if ((HAL_GetTick() - tickstart) > RNG_TIMEOUT_VALUE)
 8004dec:	f7fb fdec 	bl	80009c8 <HAL_GetTick>
 8004df0:	4602      	mov	r2, r0
 8004df2:	68fb      	ldr	r3, [r7, #12]
 8004df4:	1ad3      	subs	r3, r2, r3
 8004df6:	2b04      	cmp	r3, #4
 8004df8:	d90f      	bls.n	8004e1a <HAL_RNG_Init+0xa2>
    {
      /* New check to avoid false timeout detection in case of preemption */
      if (HAL_IS_BIT_SET(hrng->Instance->CR, RNG_CR_CONDRST))
 8004dfa:	687b      	ldr	r3, [r7, #4]
 8004dfc:	681b      	ldr	r3, [r3, #0]
 8004dfe:	681b      	ldr	r3, [r3, #0]
 8004e00:	f003 4380 	and.w	r3, r3, #1073741824	; 0x40000000
 8004e04:	f1b3 4f80 	cmp.w	r3, #1073741824	; 0x40000000
 8004e08:	d107      	bne.n	8004e1a <HAL_RNG_Init+0xa2>
      {
        hrng->State = HAL_RNG_STATE_READY;
 8004e0a:	687b      	ldr	r3, [r7, #4]
 8004e0c:	2201      	movs	r2, #1
 8004e0e:	725a      	strb	r2, [r3, #9]
        hrng->ErrorCode = HAL_RNG_ERROR_TIMEOUT;
 8004e10:	687b      	ldr	r3, [r7, #4]
 8004e12:	2202      	movs	r2, #2
 8004e14:	60da      	str	r2, [r3, #12]
        return HAL_ERROR;
 8004e16:	2301      	movs	r3, #1
 8004e18:	e043      	b.n	8004ea2 <HAL_RNG_Init+0x12a>
  while (HAL_IS_BIT_SET(hrng->Instance->CR, RNG_CR_CONDRST))
 8004e1a:	687b      	ldr	r3, [r7, #4]
 8004e1c:	681b      	ldr	r3, [r3, #0]
 8004e1e:	681b      	ldr	r3, [r3, #0]
 8004e20:	f003 4380 	and.w	r3, r3, #1073741824	; 0x40000000
 8004e24:	f1b3 4f80 	cmp.w	r3, #1073741824	; 0x40000000
 8004e28:	d0e0      	beq.n	8004dec <HAL_RNG_Init+0x74>
      }
    }
  }

  /* Enable the RNG Peripheral */
  __HAL_RNG_ENABLE(hrng);
 8004e2a:	687b      	ldr	r3, [r7, #4]
 8004e2c:	681b      	ldr	r3, [r3, #0]
 8004e2e:	681a      	ldr	r2, [r3, #0]
 8004e30:	687b      	ldr	r3, [r7, #4]
 8004e32:	681b      	ldr	r3, [r3, #0]
 8004e34:	f042 0204 	orr.w	r2, r2, #4
 8004e38:	601a      	str	r2, [r3, #0]

  /* verify that no seed error */
  if (__HAL_RNG_GET_IT(hrng, RNG_IT_SEI) != RESET)
 8004e3a:	687b      	ldr	r3, [r7, #4]
 8004e3c:	681b      	ldr	r3, [r3, #0]
 8004e3e:	685b      	ldr	r3, [r3, #4]
 8004e40:	f003 0340 	and.w	r3, r3, #64	; 0x40
 8004e44:	2b40      	cmp	r3, #64	; 0x40
 8004e46:	d104      	bne.n	8004e52 <HAL_RNG_Init+0xda>
  {
    hrng->State = HAL_RNG_STATE_ERROR;
 8004e48:	687b      	ldr	r3, [r7, #4]
 8004e4a:	2204      	movs	r2, #4
 8004e4c:	725a      	strb	r2, [r3, #9]
    return HAL_ERROR;
 8004e4e:	2301      	movs	r3, #1
 8004e50:	e027      	b.n	8004ea2 <HAL_RNG_Init+0x12a>
  }
  /* Get tick */
  tickstart = HAL_GetTick();
 8004e52:	f7fb fdb9 	bl	80009c8 <HAL_GetTick>
 8004e56:	60f8      	str	r0, [r7, #12]
  /* Check if data register contains valid random data */
  while (__HAL_RNG_GET_FLAG(hrng, RNG_FLAG_SECS) != RESET)
 8004e58:	e015      	b.n	8004e86 <HAL_RNG_Init+0x10e>
  {
    if ((HAL_GetTick() - tickstart) > RNG_TIMEOUT_VALUE)
 8004e5a:	f7fb fdb5 	bl	80009c8 <HAL_GetTick>
 8004e5e:	4602      	mov	r2, r0
 8004e60:	68fb      	ldr	r3, [r7, #12]
 8004e62:	1ad3      	subs	r3, r2, r3
 8004e64:	2b04      	cmp	r3, #4
 8004e66:	d90e      	bls.n	8004e86 <HAL_RNG_Init+0x10e>
    {
      /* New check to avoid false timeout detection in case of preemption */
      if (__HAL_RNG_GET_FLAG(hrng, RNG_FLAG_SECS) != RESET)
 8004e68:	687b      	ldr	r3, [r7, #4]
 8004e6a:	681b      	ldr	r3, [r3, #0]
 8004e6c:	685b      	ldr	r3, [r3, #4]
 8004e6e:	f003 0304 	and.w	r3, r3, #4
 8004e72:	2b04      	cmp	r3, #4
 8004e74:	d107      	bne.n	8004e86 <HAL_RNG_Init+0x10e>
      {
        hrng->State = HAL_RNG_STATE_ERROR;
 8004e76:	687b      	ldr	r3, [r7, #4]
 8004e78:	2204      	movs	r2, #4
 8004e7a:	725a      	strb	r2, [r3, #9]
        hrng->ErrorCode = HAL_RNG_ERROR_TIMEOUT;
 8004e7c:	687b      	ldr	r3, [r7, #4]
 8004e7e:	2202      	movs	r2, #2
 8004e80:	60da      	str	r2, [r3, #12]
        return HAL_ERROR;
 8004e82:	2301      	movs	r3, #1
 8004e84:	e00d      	b.n	8004ea2 <HAL_RNG_Init+0x12a>
  while (__HAL_RNG_GET_FLAG(hrng, RNG_FLAG_SECS) != RESET)
 8004e86:	687b      	ldr	r3, [r7, #4]
 8004e88:	681b      	ldr	r3, [r3, #0]
 8004e8a:	685b      	ldr	r3, [r3, #4]
 8004e8c:	f003 0304 	and.w	r3, r3, #4
 8004e90:	2b04      	cmp	r3, #4
 8004e92:	d0e2      	beq.n	8004e5a <HAL_RNG_Init+0xe2>
      }
    }
  }

  /* Initialize the RNG state */
  hrng->State = HAL_RNG_STATE_READY;
 8004e94:	687b      	ldr	r3, [r7, #4]
 8004e96:	2201      	movs	r2, #1
 8004e98:	725a      	strb	r2, [r3, #9]

  /* Initialise the error code */
  hrng->ErrorCode = HAL_RNG_ERROR_NONE;
 8004e9a:	687b      	ldr	r3, [r7, #4]
 8004e9c:	2200      	movs	r2, #0
 8004e9e:	60da      	str	r2, [r3, #12]

  /* Return function status */
  return HAL_OK;
 8004ea0:	2300      	movs	r3, #0
}
 8004ea2:	4618      	mov	r0, r3
 8004ea4:	3710      	adds	r7, #16
 8004ea6:	46bd      	mov	sp, r7
 8004ea8:	bd80      	pop	{r7, pc}

08004eaa <memcmp>:
 8004eaa:	3901      	subs	r1, #1
 8004eac:	4402      	add	r2, r0
 8004eae:	b510      	push	{r4, lr}
 8004eb0:	4290      	cmp	r0, r2
 8004eb2:	d101      	bne.n	8004eb8 <memcmp+0xe>
 8004eb4:	2000      	movs	r0, #0
 8004eb6:	e005      	b.n	8004ec4 <memcmp+0x1a>
 8004eb8:	7803      	ldrb	r3, [r0, #0]
 8004eba:	f811 4f01 	ldrb.w	r4, [r1, #1]!
 8004ebe:	42a3      	cmp	r3, r4
 8004ec0:	d001      	beq.n	8004ec6 <memcmp+0x1c>
 8004ec2:	1b18      	subs	r0, r3, r4
 8004ec4:	bd10      	pop	{r4, pc}
 8004ec6:	3001      	adds	r0, #1
 8004ec8:	e7f2      	b.n	8004eb0 <memcmp+0x6>

08004eca <memset>:
 8004eca:	4402      	add	r2, r0
 8004ecc:	4603      	mov	r3, r0
 8004ece:	4293      	cmp	r3, r2
 8004ed0:	d100      	bne.n	8004ed4 <memset+0xa>
 8004ed2:	4770      	bx	lr
 8004ed4:	f803 1b01 	strb.w	r1, [r3], #1
 8004ed8:	e7f9      	b.n	8004ece <memset+0x4>
	...

08004edc <__libc_init_array>:
 8004edc:	b570      	push	{r4, r5, r6, lr}
 8004ede:	4d0d      	ldr	r5, [pc, #52]	; (8004f14 <__libc_init_array+0x38>)
 8004ee0:	2600      	movs	r6, #0
 8004ee2:	4c0d      	ldr	r4, [pc, #52]	; (8004f18 <__libc_init_array+0x3c>)
 8004ee4:	1b64      	subs	r4, r4, r5
 8004ee6:	10a4      	asrs	r4, r4, #2
 8004ee8:	42a6      	cmp	r6, r4
 8004eea:	d109      	bne.n	8004f00 <__libc_init_array+0x24>
 8004eec:	4d0b      	ldr	r5, [pc, #44]	; (8004f1c <__libc_init_array+0x40>)
 8004eee:	2600      	movs	r6, #0
 8004ef0:	4c0b      	ldr	r4, [pc, #44]	; (8004f20 <__libc_init_array+0x44>)
 8004ef2:	f000 f817 	bl	8004f24 <_init>
 8004ef6:	1b64      	subs	r4, r4, r5
 8004ef8:	10a4      	asrs	r4, r4, #2
 8004efa:	42a6      	cmp	r6, r4
 8004efc:	d105      	bne.n	8004f0a <__libc_init_array+0x2e>
 8004efe:	bd70      	pop	{r4, r5, r6, pc}
 8004f00:	f855 3b04 	ldr.w	r3, [r5], #4
 8004f04:	3601      	adds	r6, #1
 8004f06:	4798      	blx	r3
 8004f08:	e7ee      	b.n	8004ee8 <__libc_init_array+0xc>
 8004f0a:	f855 3b04 	ldr.w	r3, [r5], #4
 8004f0e:	3601      	adds	r6, #1
 8004f10:	4798      	blx	r3
 8004f12:	e7f2      	b.n	8004efa <__libc_init_array+0x1e>
 8004f14:	08005044 	.word	0x08005044
 8004f18:	08005044 	.word	0x08005044
 8004f1c:	08005044 	.word	0x08005044
 8004f20:	08005048 	.word	0x08005048

08004f24 <_init>:
 8004f24:	b5f8      	push	{r3, r4, r5, r6, r7, lr}
 8004f26:	bf00      	nop
 8004f28:	bcf8      	pop	{r3, r4, r5, r6, r7}
 8004f2a:	bc08      	pop	{r3}
 8004f2c:	469e      	mov	lr, r3
 8004f2e:	4770      	bx	lr

08004f30 <_fini>:
 8004f30:	b5f8      	push	{r3, r4, r5, r6, r7, lr}
 8004f32:	bf00      	nop
 8004f34:	bcf8      	pop	{r3, r4, r5, r6, r7}
 8004f36:	bc08      	pop	{r3}
 8004f38:	469e      	mov	lr, r3
 8004f3a:	4770      	bx	lr
